   1               		.file	"ppp.c"
   2               	__SREG__ = 0x3f
   3               	__SP_H__ = 0x3e
   4               	__SP_L__ = 0x3d
   5               	__CCP__  = 0x34
   6               	__tmp_reg__ = 0
   7               	__zero_reg__ = 1
  15               	.Ltext0:
  16               		.section	.text.ppp_init,"ax",@progbits
  17               	.global	ppp_init
  19               	ppp_init:
  20               	.LFB3:
  21               	.LSM0:
  22               	/* prologue: function */
  23               	/* frame size = 0 */
  24               	.LSM1:
  25 0000 1092 0000 		sts (ppp_active_pcbs)+1,__zero_reg__
  26 0004 1092 0000 		sts ppp_active_pcbs,__zero_reg__
  27               	.LSM2:
  28 0008 1092 0000 		sts (ppp_tmp_pcb)+1,__zero_reg__
  29 000c 1092 0000 		sts ppp_tmp_pcb,__zero_reg__
  30               	.LSM3:
  31 0010 1092 0000 		sts id_nxt,__zero_reg__
  32               	/* epilogue start */
  33               	.LSM4:
  34 0014 0895      		ret
  35               	.LFE3:
  37               		.section	.text.ppp_process_pap,"ax",@progbits
  38               	.global	ppp_process_pap
  40               	ppp_process_pap:
  41               	.LFB8:
  42               	.LSM5:
  43               	.LVL0:
  44               	/* prologue: function */
  45               	/* frame size = 0 */
  46               	/* epilogue start */
  47               	.LSM6:
  48 0000 0895      		ret
  49               	.LFE8:
  51               		.section	.text.ppp_next_id,"ax",@progbits
  52               	.global	ppp_next_id
  54               	ppp_next_id:
  55               	.LFB23:
  56               	.LSM7:
  57               	/* prologue: function */
  58               	/* frame size = 0 */
  59               	.LSM8:
  60 0000 8091 0000 		lds r24,id_nxt
  61 0004 8F5F      		subi r24,lo8(-(1))
  62 0006 8093 0000 		sts id_nxt,r24
  63               	/* epilogue start */
  64               	.LSM9:
  65 000a 0895      		ret
  66               	.LFE23:
  68               		.section	.text.ppp_disconnected,"ax",@progbits
  69               	.global	ppp_disconnected
  71               	ppp_disconnected:
  72               	.LFB24:
  73               	.LSM10:
  74               	.LVL1:
  75               	/* prologue: function */
  76               	/* frame size = 0 */
  77               	.LSM11:
  78 0000 FC01      		movw r30,r24
  79 0002 73A3      		std Z+35,r23
  80 0004 62A3      		std Z+34,r22
  81               	/* epilogue start */
  82               	.LSM12:
  83 0006 0895      		ret
  84               	.LFE24:
  86               		.section	.text.ppp_netif,"ax",@progbits
  87               	.global	ppp_netif
  89               	ppp_netif:
  90               	.LFB25:
  91               	.LSM13:
  92               	.LVL2:
  93               	/* prologue: function */
  94               	/* frame size = 0 */
  95               	.LSM14:
  96 0000 FC01      		movw r30,r24
  97 0002 758F      		std Z+29,r23
  98 0004 648F      		std Z+28,r22
  99               	/* epilogue start */
 100               	.LSM15:
 101 0006 0895      		ret
 102               	.LFE25:
 104               		.section	.text.ppp_arg,"ax",@progbits
 105               	.global	ppp_arg
 107               	ppp_arg:
 108               	.LFB26:
 109               	.LSM16:
 110               	.LVL3:
 111               	/* prologue: function */
 112               	/* frame size = 0 */
 113               	.LSM17:
 114 0000 FC01      		movw r30,r24
 115 0002 778F      		std Z+31,r23
 116 0004 668F      		std Z+30,r22
 117               	/* epilogue start */
 118               	.LSM18:
 119 0006 0895      		ret
 120               	.LFE26:
 122               		.section	.text.ppp_pbuf_ref_chain,"ax",@progbits
 123               	.global	ppp_pbuf_ref_chain
 125               	ppp_pbuf_ref_chain:
 126               	.LFB27:
 127               	.LSM19:
 128               	.LVL4:
 129               	/* prologue: function */
 130               	/* frame size = 0 */
 131 0000 FC01      		movw r30,r24
 132 0002 00C0      		rjmp .L14
 133               	.LVL5:
 134               	.L15:
 135               	.LSM20:
 136 0004 8285      		ldd r24,Z+10
 137 0006 9385      		ldd r25,Z+11
 138 0008 0196      		adiw r24,1
 139 000a 9387      		std Z+11,r25
 140 000c 8287      		std Z+10,r24
 141               	.LSM21:
 142 000e 0190      		ld __tmp_reg__,Z+
 143 0010 F081      		ld r31,Z
 144 0012 E02D      		mov r30,__tmp_reg__
 145               	.LVL6:
 146               	.L14:
 147               	.LSM22:
 148 0014 3097      		sbiw r30,0
 149 0016 01F4      		brne .L15
 150               	/* epilogue start */
 151               	.LSM23:
 152 0018 0895      		ret
 153               	.LFE27:
 155               		.section	.text.ppp_output_alloc,"ax",@progbits
 156               	.global	ppp_output_alloc
 158               	ppp_output_alloc:
 159               	.LFB21:
 160               	.LSM24:
 161               	.LVL7:
 162               	/* prologue: function */
 163               	/* frame size = 0 */
 164 0000 AB01      		movw r20,r22
 165               	.LSM25:
 166 0002 FC01      		movw r30,r24
 167               	.LVL8:
 168 0004 60E0      		ldi r22,lo8(0)
 169 0006 70E0      		ldi r23,hi8(0)
 170               	.LVL9:
 171 0008 00C0      		rjmp .L18
 172               	.LVL10:
 173               	.L19:
 174               	.LSM26:
 175 000a 8681      		ldd r24,Z+6
 176 000c 9781      		ldd r25,Z+7
 177               	.LVL11:
 178 000e 680F      		add r22,r24
 179 0010 791F      		adc r23,r25
 180               	.LSM27:
 181 0012 0190      		ld __tmp_reg__,Z+
 182 0014 F081      		ld r31,Z
 183 0016 E02D      		mov r30,__tmp_reg__
 184               	.LVL12:
 185               	.L18:
 186 0018 3097      		sbiw r30,0
 187 001a 01F4      		brne .L19
 188               	.LSM28:
 189 001c 641B      		sub r22,r20
 190 001e 750B      		sbc r23,r21
 191 0020 83E0      		ldi r24,lo8(3)
 192               	.LVL13:
 193 0022 40E0      		ldi r20,lo8(0)
 194               	.LVL14:
 195 0024 0E94 0000 		call pbuf_alloc
 196               	.LVL15:
 197               	/* epilogue start */
 198               	.LSM29:
 199 0028 0895      		ret
 200               	.LFE21:
 202               		.section	.text.ppp_output,"ax",@progbits
 203               	.global	ppp_output
 205               	ppp_output:
 206               	.LFB22:
 207               	.LSM30:
 208               	.LVL16:
 209 0000 3F92      		push r3
 210 0002 4F92      		push r4
 211 0004 5F92      		push r5
 212 0006 6F92      		push r6
 213 0008 7F92      		push r7
 214 000a 8F92      		push r8
 215 000c 9F92      		push r9
 216 000e AF92      		push r10
 217 0010 BF92      		push r11
 218 0012 CF92      		push r12
 219 0014 DF92      		push r13
 220 0016 EF92      		push r14
 221 0018 FF92      		push r15
 222 001a 0F93      		push r16
 223 001c 1F93      		push r17
 224 001e CF93      		push r28
 225 0020 DF93      		push r29
 226               	/* prologue: function */
 227               	/* frame size = 0 */
 228 0022 4C01      		movw r8,r24
 229 0024 8B01      		movw r16,r22
 230               	.LSM31:
 231 0026 DB01      		movw r26,r22
 232 0028 1496      		adiw r26,4
 233 002a 6D91      		ld r22,X+
 234 002c 7C91      		ld r23,X
 235 002e 1597      		sbiw r26,4+1
 236               	.LVL17:
 237 0030 6F5F      		subi r22,lo8(-(1))
 238 0032 7F4F      		sbci r23,hi8(-(1))
 239 0034 83E0      		ldi r24,lo8(3)
 240               	.LVL18:
 241 0036 40E0      		ldi r20,lo8(0)
 242 0038 0E94 0000 		call pbuf_alloc
 243 003c 5C01      		movw r10,r24
 244               	.LVL19:
 245               	.LSM32:
 246 003e DC01      		movw r26,r24
 247 0040 1296      		adiw r26,2
 248 0042 ED91      		ld r30,X+
 249 0044 FC91      		ld r31,X
 250 0046 1397      		sbiw r26,2+1
 251 0048 8EE7      		ldi r24,lo8(126)
 252 004a 8083      		st Z,r24
 253 004c 7801      		movw r14,r16
 254               	.LVL20:
 255 004e E501      		movw r28,r10
 256               	.LVL21:
 257 0050 61E0      		ldi r22,lo8(1)
 258 0052 70E0      		ldi r23,hi8(1)
 259               	.LVL22:
 260               	.LSM33:
 261 0054 3DE5      		ldi r19,lo8(93)
 262 0056 332E      		mov r3,r19
 263               	.LSM34:
 264 0058 21E0      		ldi r18,lo8(1)
 265 005a 622E      		mov r6,r18
 266 005c 712C      		mov r7,__zero_reg__
 267               	.LSM35:
 268 005e 1DE7      		ldi r17,lo8(125)
 269               	.LSM36:
 270 0060 90E2      		ldi r25,lo8(32)
 271 0062 592E      		mov r5,r25
 272               	.LSM37:
 273 0064 8EE5      		ldi r24,lo8(94)
 274 0066 482E      		mov r4,r24
 275 0068 00C0      		rjmp .L22
 276               	.LVL23:
 277               	.L34:
 278               	.LSM38:
 279 006a D701      		movw r26,r14
 280 006c 1296      		adiw r26,2
 281 006e ED91      		ld r30,X+
 282 0070 FC91      		ld r31,X
 283 0072 1397      		sbiw r26,2+1
 284 0074 EC0D      		add r30,r12
 285 0076 FD1D      		adc r31,r13
 286 0078 0081      		ld r16,Z
 287               	.LVL24:
 288               	.LSM39:
 289 007a 8E81      		ldd r24,Y+6
 290 007c 9F81      		ldd r25,Y+7
 291 007e 6817      		cp r22,r24
 292 0080 7907      		cpc r23,r25
 293 0082 01F4      		brne .L23
 294               	.LSM40:
 295 0084 C701      		movw r24,r14
 296 0086 B601      		movw r22,r12
 297               	.LVL25:
 298 0088 0E94 0000 		call ppp_output_alloc
 299 008c EC01      		movw r28,r24
 300               	.LSM41:
 301 008e C501      		movw r24,r10
 302 0090 BE01      		movw r22,r28
 303 0092 0E94 0000 		call pbuf_chain
 304               	.LSM42:
 305 0096 CE01      		movw r24,r28
 306 0098 0E94 0000 		call pbuf_free
 307 009c 60E0      		ldi r22,lo8(0)
 308 009e 70E0      		ldi r23,hi8(0)
 309               	.LVL26:
 310               	.L23:
 311               	.LSM43:
 312 00a0 0D37      		cpi r16,lo8(125)
 313 00a2 01F0      		breq .L25
 314 00a4 0E37      		cpi r16,lo8(126)
 315 00a6 01F0      		breq .+2
 316 00a8 00C0      		rjmp .L40
 317               	.LSM44:
 318 00aa EA81      		ldd r30,Y+2
 319 00ac FB81      		ldd r31,Y+3
 320 00ae E60F      		add r30,r22
 321 00b0 F71F      		adc r31,r23
 322 00b2 1083      		st Z,r17
 323 00b4 9B01      		movw r18,r22
 324 00b6 2F5F      		subi r18,lo8(-(1))
 325 00b8 3F4F      		sbci r19,hi8(-(1))
 326               	.LVL27:
 327               	.LSM45:
 328 00ba 8E81      		ldd r24,Y+6
 329 00bc 9F81      		ldd r25,Y+7
 330 00be 2817      		cp r18,r24
 331 00c0 3907      		cpc r19,r25
 332 00c2 01F4      		brne .L27
 333               	.LSM46:
 334 00c4 C701      		movw r24,r14
 335 00c6 B601      		movw r22,r12
 336 00c8 0E94 0000 		call ppp_output_alloc
 337               	.LVL28:
 338 00cc EC01      		movw r28,r24
 339               	.LSM47:
 340 00ce C501      		movw r24,r10
 341 00d0 BE01      		movw r22,r28
 342 00d2 0E94 0000 		call pbuf_chain
 343               	.LSM48:
 344 00d6 CE01      		movw r24,r28
 345 00d8 0E94 0000 		call pbuf_free
 346 00dc 20E0      		ldi r18,lo8(0)
 347 00de 30E0      		ldi r19,hi8(0)
 348               	.LVL29:
 349               	.L27:
 350               	.LSM49:
 351 00e0 EA81      		ldd r30,Y+2
 352 00e2 FB81      		ldd r31,Y+3
 353 00e4 E20F      		add r30,r18
 354 00e6 F31F      		adc r31,r19
 355 00e8 4082      		st Z,r4
 356 00ea 00C0      		rjmp .L43
 357               	.LVL30:
 358               	.L25:
 359               	.LSM50:
 360 00ec EA81      		ldd r30,Y+2
 361 00ee FB81      		ldd r31,Y+3
 362 00f0 E60F      		add r30,r22
 363 00f2 F71F      		adc r31,r23
 364 00f4 0083      		st Z,r16
 365 00f6 9B01      		movw r18,r22
 366 00f8 2F5F      		subi r18,lo8(-(1))
 367 00fa 3F4F      		sbci r19,hi8(-(1))
 368               	.LVL31:
 369               	.LSM51:
 370 00fc 8E81      		ldd r24,Y+6
 371 00fe 9F81      		ldd r25,Y+7
 372 0100 2817      		cp r18,r24
 373 0102 3907      		cpc r19,r25
 374 0104 01F4      		brne .L29
 375               	.LSM52:
 376 0106 C701      		movw r24,r14
 377 0108 B601      		movw r22,r12
 378 010a 0E94 0000 		call ppp_output_alloc
 379               	.LVL32:
 380 010e EC01      		movw r28,r24
 381               	.LSM53:
 382 0110 C501      		movw r24,r10
 383 0112 BE01      		movw r22,r28
 384 0114 0E94 0000 		call pbuf_chain
 385               	.LSM54:
 386 0118 CE01      		movw r24,r28
 387 011a 0E94 0000 		call pbuf_free
 388 011e 20E0      		ldi r18,lo8(0)
 389 0120 30E0      		ldi r19,hi8(0)
 390               	.LVL33:
 391               	.L29:
 392               	.LSM55:
 393 0122 EA81      		ldd r30,Y+2
 394 0124 FB81      		ldd r31,Y+3
 395 0126 E20F      		add r30,r18
 396 0128 F31F      		adc r31,r19
 397 012a 3082      		st Z,r3
 398 012c 00C0      		rjmp .L43
 399               	.LVL34:
 400               	.L40:
 401               	.LSM56:
 402 012e 0032      		cpi r16,lo8(32)
 403 0130 00F4      		brsh .L30
 404               	.LSM57:
 405 0132 C301      		movw r24,r6
 406 0134 002E      		mov r0,r16
 407 0136 00C0      		rjmp 2f
 408 0138 880F      	1:	lsl r24
 409 013a 991F      		rol r25
 410 013c 0A94      	2:	dec r0
 411 013e 02F4      		brpl 1b
 412 0140 AA27      		clr r26
 413 0142 97FD      		sbrc r25,7
 414 0144 A095      		com r26
 415 0146 BA2F      		mov r27,r26
 416 0148 F401      		movw r30,r8
 417 014a 2289      		ldd r18,Z+18
 418 014c 3389      		ldd r19,Z+19
 419 014e 4489      		ldd r20,Z+20
 420 0150 5589      		ldd r21,Z+21
 421 0152 8223      		and r24,r18
 422 0154 9323      		and r25,r19
 423 0156 A423      		and r26,r20
 424 0158 B523      		and r27,r21
 425 015a 0097      		sbiw r24,0
 426 015c A105      		cpc r26,__zero_reg__
 427 015e B105      		cpc r27,__zero_reg__
 428 0160 01F4      		brne .L31
 429 0162 8481      		ldd r24,Z+4
 430 0164 8230      		cpi r24,lo8(2)
 431 0166 01F4      		brne .L30
 432               	.L31:
 433               	.LSM58:
 434 0168 EA81      		ldd r30,Y+2
 435 016a FB81      		ldd r31,Y+3
 436 016c E60F      		add r30,r22
 437 016e F71F      		adc r31,r23
 438 0170 1083      		st Z,r17
 439 0172 9B01      		movw r18,r22
 440 0174 2F5F      		subi r18,lo8(-(1))
 441 0176 3F4F      		sbci r19,hi8(-(1))
 442               	.LVL35:
 443               	.LSM59:
 444 0178 8E81      		ldd r24,Y+6
 445 017a 9F81      		ldd r25,Y+7
 446 017c 2817      		cp r18,r24
 447 017e 3907      		cpc r19,r25
 448 0180 01F4      		brne .L33
 449               	.LSM60:
 450 0182 C701      		movw r24,r14
 451 0184 B601      		movw r22,r12
 452 0186 0E94 0000 		call ppp_output_alloc
 453               	.LVL36:
 454 018a EC01      		movw r28,r24
 455               	.LSM61:
 456 018c C501      		movw r24,r10
 457 018e BE01      		movw r22,r28
 458 0190 0E94 0000 		call pbuf_chain
 459               	.LSM62:
 460 0194 CE01      		movw r24,r28
 461 0196 0E94 0000 		call pbuf_free
 462 019a 20E0      		ldi r18,lo8(0)
 463 019c 30E0      		ldi r19,hi8(0)
 464               	.LVL37:
 465               	.L33:
 466               	.LSM63:
 467 019e EA81      		ldd r30,Y+2
 468 01a0 FB81      		ldd r31,Y+3
 469 01a2 E20F      		add r30,r18
 470 01a4 F31F      		adc r31,r19
 471 01a6 0525      		eor r16,r5
 472 01a8 0083      		st Z,r16
 473               	.L43:
 474 01aa B901      		movw r22,r18
 475 01ac 00C0      		rjmp .L41
 476               	.LVL38:
 477               	.L30:
 478               	.LSM64:
 479 01ae EA81      		ldd r30,Y+2
 480 01b0 FB81      		ldd r31,Y+3
 481 01b2 E60F      		add r30,r22
 482 01b4 F71F      		adc r31,r23
 483 01b6 0083      		st Z,r16
 484               	.LVL39:
 485               	.L41:
 486 01b8 6F5F      		subi r22,lo8(-(1))
 487 01ba 7F4F      		sbci r23,hi8(-(1))
 488               	.LSM65:
 489 01bc 0894      		sec
 490 01be C11C      		adc r12,__zero_reg__
 491 01c0 D11C      		adc r13,__zero_reg__
 492               	.LVL40:
 493               	.L36:
 494 01c2 D701      		movw r26,r14
 495 01c4 1696      		adiw r26,6
 496 01c6 8D91      		ld r24,X+
 497 01c8 9C91      		ld r25,X
 498 01ca 1797      		sbiw r26,6+1
 499 01cc C816      		cp r12,r24
 500 01ce D906      		cpc r13,r25
 501 01d0 00F4      		brsh .+2
 502 01d2 00C0      		rjmp .L34
 503               	.LSM66:
 504 01d4 ED90      		ld r14,X+
 505 01d6 FC90      		ld r15,X
 506               	.L22:
 507 01d8 E114      		cp r14,__zero_reg__
 508 01da F104      		cpc r15,__zero_reg__
 509 01dc 01F0      		breq .L35
 510 01de CC24      		clr r12
 511 01e0 DD24      		clr r13
 512 01e2 00C0      		rjmp .L36
 513               	.L35:
 514               	.LSM67:
 515 01e4 83E0      		ldi r24,lo8(3)
 516 01e6 61E0      		ldi r22,lo8(1)
 517 01e8 70E0      		ldi r23,hi8(1)
 518               	.LVL41:
 519 01ea 40E0      		ldi r20,lo8(0)
 520 01ec 0E94 0000 		call pbuf_alloc
 521 01f0 8C01      		movw r16,r24
 522               	.LVL42:
 523               	.LSM68:
 524 01f2 DC01      		movw r26,r24
 525 01f4 1296      		adiw r26,2
 526 01f6 ED91      		ld r30,X+
 527 01f8 FC91      		ld r31,X
 528 01fa 1397      		sbiw r26,2+1
 529 01fc 8EE7      		ldi r24,lo8(126)
 530 01fe 8083      		st Z,r24
 531               	.LSM69:
 532 0200 C501      		movw r24,r10
 533 0202 B801      		movw r22,r16
 534 0204 0E94 0000 		call pbuf_chain
 535               	.LSM70:
 536 0208 C801      		movw r24,r16
 537 020a 0E94 0000 		call pbuf_free
 538               	.LSM71:
 539 020e D401      		movw r26,r8
 540 0210 1296      		adiw r26,2
 541 0212 ED91      		ld r30,X+
 542 0214 FC91      		ld r31,X
 543 0216 1397      		sbiw r26,2+1
 544 0218 8681      		ldd r24,Z+6
 545 021a 8823      		tst r24
 546 021c 01F0      		breq .L37
 547               	.LSM72:
 548 021e 60E1      		ldi r22,lo8(16)
 549 0220 8385      		ldd r24,Z+11
 550 0222 681B      		sub r22,r24
 551 0224 CF01      		movw r24,r30
 552 0226 A501      		movw r20,r10
 553 0228 0E94 0000 		call rfcomm_uih_credits
 554 022c 00C0      		rjmp .L42
 555               	.L37:
 556               	.LSM73:
 557 022e CF01      		movw r24,r30
 558 0230 6581      		ldd r22,Z+5
 559 0232 A501      		movw r20,r10
 560 0234 0E94 0000 		call rfcomm_uih
 561               	.L42:
 562 0238 082F      		mov r16,r24
 563               	.LVL43:
 564               	.LSM74:
 565 023a C501      		movw r24,r10
 566 023c 0E94 0000 		call pbuf_free
 567               	.LSM75:
 568 0240 802F      		mov r24,r16
 569               	/* epilogue start */
 570 0242 DF91      		pop r29
 571 0244 CF91      		pop r28
 572 0246 1F91      		pop r17
 573 0248 0F91      		pop r16
 574               	.LVL44:
 575 024a FF90      		pop r15
 576 024c EF90      		pop r14
 577               	.LVL45:
 578 024e DF90      		pop r13
 579 0250 CF90      		pop r12
 580               	.LVL46:
 581 0252 BF90      		pop r11
 582 0254 AF90      		pop r10
 583               	.LVL47:
 584 0256 9F90      		pop r9
 585 0258 8F90      		pop r8
 586               	.LVL48:
 587 025a 7F90      		pop r7
 588 025c 6F90      		pop r6
 589 025e 5F90      		pop r5
 590 0260 4F90      		pop r4
 591 0262 3F90      		pop r3
 592 0264 0895      		ret
 593               	.LFE22:
 595               		.section	.text.ppp_data_output,"ax",@progbits
 596               	.global	ppp_data_output
 598               	ppp_data_output:
 599               	.LFB20:
 600               	.LSM76:
 601               	.LVL49:
 602 0000 CF92      		push r12
 603 0002 DF92      		push r13
 604 0004 EF92      		push r14
 605 0006 FF92      		push r15
 606 0008 0F93      		push r16
 607 000a 1F93      		push r17
 608 000c CF93      		push r28
 609 000e DF93      		push r29
 610               	/* prologue: function */
 611               	/* frame size = 0 */
 612 0010 7C01      		movw r14,r24
 613 0012 6B01      		movw r12,r22
 614               	.LSM77:
 615 0014 0097      		sbiw r24,0
 616 0016 01F4      		brne .+2
 617 0018 00C0      		rjmp .L45
 618               	.LVL50:
 619               	.LSM78:
 620 001a DC01      		movw r26,r24
 621 001c 1496      		adiw r26,4
 622 001e 8C91      		ld r24,X
 623 0020 1497      		sbiw r26,4
 624               	.LVL51:
 625 0022 8530      		cpi r24,lo8(5)
 626 0024 01F0      		breq .+2
 627 0026 00C0      		rjmp .L45
 628               	.LSM79:
 629 0028 5896      		adiw r26,24
 630 002a 8C91      		ld r24,X
 631 002c 85FD      		sbrc r24,5
 632 002e 00C0      		rjmp .L46
 633 0030 64E0      		ldi r22,lo8(4)
 634               	.LVL52:
 635 0032 00C0      		rjmp .L47
 636               	.LVL53:
 637               	.L46:
 638 0034 62E0      		ldi r22,lo8(2)
 639               	.LVL54:
 640               	.L47:
 641               	.LSM80:
 642 0036 83FD      		sbrc r24,3
 643               	.LSM81:
 644 0038 6150      		subi r22,lo8(-(-1))
 645               	.L48:
 646               	.LSM82:
 647 003a 83E0      		ldi r24,lo8(3)
 648 003c 70E0      		ldi r23,lo8(0)
 649 003e 40E0      		ldi r20,lo8(0)
 650 0040 0E94 0000 		call pbuf_alloc
 651               	.LVL55:
 652 0044 EC01      		movw r28,r24
 653               	.LVL56:
 654               	.LSM83:
 655 0046 F701      		movw r30,r14
 656 0048 808D      		ldd r24,Z+24
 657 004a 85FF      		sbrs r24,5
 658 004c 00C0      		rjmp .L49
 659 004e 00E0      		ldi r16,lo8(0)
 660               	.LVL57:
 661 0050 00C0      		rjmp .L50
 662               	.LVL58:
 663               	.L49:
 664               	.LSM84:
 665 0052 0A81      		ldd r16,Y+2
 666 0054 1B81      		ldd r17,Y+3
 667 0056 83E0      		ldi r24,lo8(-253)
 668 0058 9FEF      		ldi r25,hi8(-253)
 669 005a 0E94 0000 		call htons
 670 005e D801      		movw r26,r16
 671 0060 8D93      		st X+,r24
 672 0062 9C93      		st X,r25
 673 0064 02E0      		ldi r16,lo8(2)
 674               	.LVL59:
 675               	.L50:
 676               	.LSM85:
 677 0066 F701      		movw r30,r14
 678 0068 808D      		ldd r24,Z+24
 679 006a EA81      		ldd r30,Y+2
 680 006c FB81      		ldd r31,Y+3
 681 006e 83FF      		sbrs r24,3
 682 0070 00C0      		rjmp .L51
 683               	.LSM86:
 684 0072 E00F      		add r30,r16
 685 0074 F11D      		adc r31,__zero_reg__
 686 0076 81E2      		ldi r24,lo8(33)
 687 0078 8083      		st Z,r24
 688 007a 00C0      		rjmp .L52
 689               	.L51:
 690               	.LSM87:
 691 007c 0695      		lsr r16
 692 007e 10E0      		ldi r17,lo8(0)
 693 0080 000F      		lsl r16
 694 0082 111F      		rol r17
 695               	.LVL60:
 696 0084 0E0F      		add r16,r30
 697 0086 1F1F      		adc r17,r31
 698 0088 81E2      		ldi r24,lo8(33)
 699 008a 90E0      		ldi r25,hi8(33)
 700 008c 0E94 0000 		call htons
 701 0090 D801      		movw r26,r16
 702 0092 8D93      		st X+,r24
 703 0094 9C93      		st X,r25
 704               	.LVL61:
 705               	.L52:
 706               	.LSM88:
 707 0096 C114      		cp r12,__zero_reg__
 708 0098 D104      		cpc r13,__zero_reg__
 709 009a 01F0      		breq .L53
 710               	.LSM89:
 711 009c CE01      		movw r24,r28
 712 009e B601      		movw r22,r12
 713 00a0 0E94 0000 		call pbuf_chain
 714               	.L53:
 715               	.LSM90:
 716 00a4 83E0      		ldi r24,lo8(3)
 717 00a6 62E0      		ldi r22,lo8(2)
 718 00a8 70E0      		ldi r23,hi8(2)
 719 00aa 40E0      		ldi r20,lo8(0)
 720 00ac 0E94 0000 		call pbuf_alloc
 721 00b0 8C01      		movw r16,r24
 722               	.LVL62:
 723               	.LSM91:
 724 00b2 6C81      		ldd r22,Y+4
 725 00b4 7D81      		ldd r23,Y+5
 726 00b6 CE01      		movw r24,r28
 727 00b8 0E94 0000 		call fcs16_crc_calc
 728               	.LSM92:
 729 00bc D801      		movw r26,r16
 730 00be 1296      		adiw r26,2
 731 00c0 ED91      		ld r30,X+
 732 00c2 FC91      		ld r31,X
 733 00c4 1397      		sbiw r26,2+1
 734 00c6 8083      		st Z,r24
 735               	.LSM93:
 736 00c8 1296      		adiw r26,2
 737 00ca ED91      		ld r30,X+
 738 00cc FC91      		ld r31,X
 739 00ce 1397      		sbiw r26,2+1
 740 00d0 9183      		std Z+1,r25
 741               	.LSM94:
 742 00d2 CE01      		movw r24,r28
 743 00d4 B801      		movw r22,r16
 744 00d6 0E94 0000 		call pbuf_chain
 745               	.LSM95:
 746 00da C801      		movw r24,r16
 747 00dc 0E94 0000 		call pbuf_free
 748               	.LSM96:
 749 00e0 C701      		movw r24,r14
 750 00e2 BE01      		movw r22,r28
 751 00e4 0E94 0000 		call ppp_output
 752 00e8 082F      		mov r16,r24
 753               	.LVL63:
 754               	.LSM97:
 755 00ea C114      		cp r12,__zero_reg__
 756 00ec D104      		cpc r13,__zero_reg__
 757 00ee 01F0      		breq .L54
 758               	.LSM98:
 759 00f0 CE01      		movw r24,r28
 760 00f2 0E94 0000 		call pbuf_dechain
 761               	.LSM99:
 762 00f6 F601      		movw r30,r12
 763 00f8 6481      		ldd r22,Z+4
 764 00fa 7581      		ldd r23,Z+5
 765 00fc 6250      		subi r22,lo8(-(-2))
 766 00fe 7040      		sbci r23,hi8(-(-2))
 767 0100 C601      		movw r24,r12
 768 0102 0E94 0000 		call pbuf_realloc
 769               	.L54:
 770               	.LSM100:
 771 0106 CE01      		movw r24,r28
 772 0108 0E94 0000 		call pbuf_free
 773 010c 00C0      		rjmp .L55
 774               	.LVL64:
 775               	.L45:
 776               	.LSM101:
 777 010e 09EF      		ldi r16,lo8(-7)
 778               	.LVL65:
 779               	.L55:
 780               	.LSM102:
 781 0110 802F      		mov r24,r16
 782               	/* epilogue start */
 783 0112 DF91      		pop r29
 784 0114 CF91      		pop r28
 785               	.LVL66:
 786 0116 1F91      		pop r17
 787 0118 0F91      		pop r16
 788               	.LVL67:
 789 011a FF90      		pop r15
 790 011c EF90      		pop r14
 791               	.LVL68:
 792 011e DF90      		pop r13
 793 0120 CF90      		pop r12
 794               	.LVL69:
 795 0122 0895      		ret
 796               	.LFE20:
 798               		.section	.text.ppp_netif_output,"ax",@progbits
 799               	.global	ppp_netif_output
 801               	ppp_netif_output:
 802               	.LFB19:
 803               	.LSM103:
 804               	.LVL70:
 805               	/* prologue: function */
 806               	/* frame size = 0 */
 807 0000 9C01      		movw r18,r24
 808               	.LSM104:
 809 0002 E091 0000 		lds r30,ppp_active_pcbs
 810 0006 F091 0000 		lds r31,(ppp_active_pcbs)+1
 811               	.LVL71:
 812 000a 00C0      		rjmp .L58
 813               	.LVL72:
 814               	.L60:
 815               	.LSM105:
 816 000c 848D      		ldd r24,Z+28
 817 000e 958D      		ldd r25,Z+29
 818 0010 8217      		cp r24,r18
 819 0012 9307      		cpc r25,r19
 820 0014 01F0      		breq .L59
 821               	.LSM106:
 822 0016 0190      		ld __tmp_reg__,Z+
 823 0018 F081      		ld r31,Z
 824 001a E02D      		mov r30,__tmp_reg__
 825               	.LVL73:
 826               	.L58:
 827 001c 3097      		sbiw r30,0
 828 001e 01F4      		brne .L60
 829 0020 89EF      		ldi r24,lo8(-7)
 830 0022 0895      		ret
 831               	.L59:
 832               	.LSM107:
 833 0024 CF01      		movw r24,r30
 834 0026 0E94 0000 		call ppp_data_output
 835               	.LVL74:
 836               	.LSM108:
 837 002a 0895      		ret
 838               	.LFE19:
 840               		.section	.text.ppp_cp_output,"ax",@progbits
 841               	.global	ppp_cp_output
 843               	ppp_cp_output:
 844               	.LFB18:
 845               	.LSM109:
 846               	.LVL75:
 847 0000 6F92      		push r6
 848 0002 7F92      		push r7
 849 0004 9F92      		push r9
 850 0006 AF92      		push r10
 851 0008 BF92      		push r11
 852 000a CF92      		push r12
 853 000c DF92      		push r13
 854 000e EF92      		push r14
 855 0010 FF92      		push r15
 856 0012 0F93      		push r16
 857               	.LVL76:
 858 0014 1F93      		push r17
 859 0016 CF93      		push r28
 860 0018 DF93      		push r29
 861               	/* prologue: function */
 862               	/* frame size = 0 */
 863 001a 6C01      		movw r12,r24
 864 001c 3B01      		movw r6,r22
 865 001e E42E      		mov r14,r20
 866 0020 922E      		mov r9,r18
 867 0022 5801      		movw r10,r16
 868               	.LVL77:
 869               	.LSM110:
 870 0024 DC01      		movw r26,r24
 871 0026 5896      		adiw r26,24
 872 0028 8C91      		ld r24,X
 873 002a 5897      		sbiw r26,24
 874               	.LVL78:
 875 002c 85FF      		sbrs r24,5
 876 002e 00C0      		rjmp .L64
 877               	.LVL79:
 878 0030 1496      		adiw r26,4
 879 0032 8C91      		ld r24,X
 880 0034 8230      		cpi r24,lo8(2)
 881 0036 01F0      		breq .L64
 882               	.LSM111:
 883 0038 83E0      		ldi r24,lo8(3)
 884 003a 66E0      		ldi r22,lo8(6)
 885 003c 70E0      		ldi r23,hi8(6)
 886 003e 00C0      		rjmp .L81
 887               	.LVL80:
 888               	.L64:
 889               	.LSM112:
 890 0040 83E0      		ldi r24,lo8(3)
 891 0042 68E0      		ldi r22,lo8(8)
 892 0044 70E0      		ldi r23,hi8(8)
 893               	.L81:
 894 0046 40E0      		ldi r20,lo8(0)
 895 0048 0E94 0000 		call pbuf_alloc
 896 004c EC01      		movw r28,r24
 897               	.LVL81:
 898               	.LSM113:
 899 004e F601      		movw r30,r12
 900 0050 808D      		ldd r24,Z+24
 901 0052 85FF      		sbrs r24,5
 902 0054 00C0      		rjmp .L66
 903 0056 8481      		ldd r24,Z+4
 904 0058 8230      		cpi r24,lo8(2)
 905 005a 01F0      		breq .L66
 906 005c FF24      		clr r15
 907               	.LVL82:
 908 005e 00C0      		rjmp .L67
 909               	.LVL83:
 910               	.L66:
 911               	.LSM114:
 912 0060 0A81      		ldd r16,Y+2
 913 0062 1B81      		ldd r17,Y+3
 914 0064 83E0      		ldi r24,lo8(-253)
 915 0066 9FEF      		ldi r25,hi8(-253)
 916 0068 0E94 0000 		call htons
 917 006c D801      		movw r26,r16
 918 006e 8D93      		st X+,r24
 919 0070 9C93      		st X,r25
 920 0072 E2E0      		ldi r30,lo8(2)
 921 0074 FE2E      		mov r15,r30
 922               	.LVL84:
 923               	.L67:
 924               	.LSM115:
 925 0076 8F2D      		mov r24,r15
 926 0078 8695      		lsr r24
 927 007a 90E0      		ldi r25,lo8(0)
 928 007c 880F      		lsl r24
 929 007e 991F      		rol r25
 930 0080 0A81      		ldd r16,Y+2
 931 0082 1B81      		ldd r17,Y+3
 932 0084 080F      		add r16,r24
 933 0086 191F      		adc r17,r25
 934 0088 C301      		movw r24,r6
 935 008a 0E94 0000 		call htons
 936 008e F801      		movw r30,r16
 937 0090 9183      		std Z+1,r25
 938 0092 8083      		st Z,r24
 939               	.LSM116:
 940 0094 F2E0      		ldi r31,lo8(2)
 941 0096 FF0E      		add r15,r31
 942               	.LSM117:
 943 0098 EA81      		ldd r30,Y+2
 944 009a FB81      		ldd r31,Y+3
 945 009c EF0D      		add r30,r15
 946 009e F11D      		adc r31,__zero_reg__
 947 00a0 E082      		st Z,r14
 948 00a2 F394      		inc r15
 949               	.LSM118:
 950 00a4 EA81      		ldd r30,Y+2
 951 00a6 FB81      		ldd r31,Y+3
 952 00a8 EF0D      		add r30,r15
 953 00aa F11D      		adc r31,__zero_reg__
 954 00ac 9082      		st Z,r9
 955 00ae 0F2D      		mov r16,r15
 956 00b0 0F5F      		subi r16,lo8(-(1))
 957 00b2 8A81      		ldd r24,Y+2
 958 00b4 9B81      		ldd r25,Y+3
 959 00b6 0695      		lsr r16
 960               	.LSM119:
 961 00b8 A114      		cp r10,__zero_reg__
 962 00ba B104      		cpc r11,__zero_reg__
 963 00bc 01F4      		brne .L68
 964               	.LSM120:
 965 00be 10E0      		ldi r17,lo8(0)
 966 00c0 000F      		lsl r16
 967 00c2 111F      		rol r17
 968 00c4 080F      		add r16,r24
 969 00c6 191F      		adc r17,r25
 970 00c8 84E0      		ldi r24,lo8(4)
 971 00ca 90E0      		ldi r25,hi8(4)
 972 00cc 0E94 0000 		call htons
 973 00d0 D801      		movw r26,r16
 974 00d2 8D93      		st X+,r24
 975 00d4 9C93      		st X,r25
 976 00d6 00C0      		rjmp .L69
 977               	.L68:
 978               	.LSM121:
 979 00d8 10E0      		ldi r17,lo8(0)
 980 00da 000F      		lsl r16
 981 00dc 111F      		rol r17
 982 00de 080F      		add r16,r24
 983 00e0 191F      		adc r17,r25
 984 00e2 F501      		movw r30,r10
 985 00e4 8481      		ldd r24,Z+4
 986 00e6 9581      		ldd r25,Z+5
 987 00e8 0496      		adiw r24,4
 988 00ea 0E94 0000 		call htons
 989 00ee D801      		movw r26,r16
 990 00f0 8D93      		st X+,r24
 991 00f2 9C93      		st X,r25
 992               	.LSM122:
 993 00f4 CE01      		movw r24,r28
 994 00f6 B501      		movw r22,r10
 995 00f8 0E94 0000 		call pbuf_chain
 996               	.LSM123:
 997 00fc C501      		movw r24,r10
 998 00fe 0E94 0000 		call pbuf_free
 999               	.L69:
 1000               	.LSM124:
 1001 0102 83E0      		ldi r24,lo8(3)
 1002 0104 62E0      		ldi r22,lo8(2)
 1003 0106 70E0      		ldi r23,hi8(2)
 1004 0108 40E0      		ldi r20,lo8(0)
 1005 010a 0E94 0000 		call pbuf_alloc
 1006 010e 8C01      		movw r16,r24
 1007               	.LVL85:
 1008               	.LSM125:
 1009 0110 6C81      		ldd r22,Y+4
 1010 0112 7D81      		ldd r23,Y+5
 1011 0114 CE01      		movw r24,r28
 1012 0116 0E94 0000 		call fcs16_crc_calc
 1013               	.LSM126:
 1014 011a D801      		movw r26,r16
 1015 011c 1296      		adiw r26,2
 1016 011e ED91      		ld r30,X+
 1017 0120 FC91      		ld r31,X
 1018 0122 1397      		sbiw r26,2+1
 1019 0124 8083      		st Z,r24
 1020               	.LSM127:
 1021 0126 1296      		adiw r26,2
 1022 0128 ED91      		ld r30,X+
 1023 012a FC91      		ld r31,X
 1024 012c 1397      		sbiw r26,2+1
 1025 012e 9183      		std Z+1,r25
 1026               	.LSM128:
 1027 0130 CE01      		movw r24,r28
 1028 0132 B801      		movw r22,r16
 1029 0134 0E94 0000 		call pbuf_chain
 1030               	.LSM129:
 1031 0138 C801      		movw r24,r16
 1032 013a 0E94 0000 		call pbuf_free
 1033               	.LSM130:
 1034 013e C601      		movw r24,r12
 1035 0140 BE01      		movw r22,r28
 1036 0142 0E94 0000 		call ppp_output
 1037 0146 182F      		mov r17,r24
 1038               	.LVL86:
 1039               	.LSM131:
 1040 0148 8823      		tst r24
 1041 014a 01F4      		brne .L70
 1042               	.LVL87:
 1043 014c B1E0      		ldi r27,lo8(1)
 1044 014e EB16      		cp r14,r27
 1045 0150 01F0      		breq .L71
 1046 0152 E5E0      		ldi r30,lo8(5)
 1047 0154 EE16      		cp r14,r30
 1048 0156 01F4      		brne .L70
 1049               	.L71:
 1050               	.LSM132:
 1051 0158 D601      		movw r26,r12
 1052 015a 1D96      		adiw r26,13
 1053 015c ED91      		ld r30,X+
 1054 015e FC91      		ld r31,X
 1055 0160 1E97      		sbiw r26,13+1
 1056               	.LVL88:
 1057 0162 00C0      		rjmp .L72
 1058               	.L74:
 1059               	.LSM133:
 1060 0164 8481      		ldd r24,Z+4
 1061               	.LVL89:
 1062 0166 8915      		cp r24,r9
 1063 0168 01F0      		breq .L73
 1064               	.LSM134:
 1065 016a 0190      		ld __tmp_reg__,Z+
 1066 016c F081      		ld r31,Z
 1067 016e E02D      		mov r30,__tmp_reg__
 1068               	.LVL90:
 1069               	.L72:
 1070 0170 3097      		sbiw r30,0
 1071 0172 01F4      		brne .L74
 1072               	.LVL91:
 1073 0174 00C0      		rjmp .L82
 1074               	.LVL92:
 1075               	.L83:
 1076               	.LSM135:
 1077 0176 CE01      		movw r24,r28
 1078               	.LVL93:
 1079 0178 0E94 0000 		call pbuf_free
 1080 017c 1FEF      		ldi r17,lo8(-1)
 1081 017e 00C0      		rjmp .L73
 1082               	.LVL94:
 1083               	.L80:
 1084               	.LSM136:
 1085 0180 D383      		std Z+3,r29
 1086 0182 C283      		std Z+2,r28
 1087               	.LSM137:
 1088 0184 9482      		std Z+4,r9
 1089               	.LSM138:
 1090 0186 7086      		std Z+8,r7
 1091 0188 6782      		std Z+7,r6
 1092               	.LSM139:
 1093 018a 82E0      		ldi r24,lo8(2)
 1094               	.LVL95:
 1095 018c 8583      		std Z+5,r24
 1096               	.LSM140:
 1097 018e 83E0      		ldi r24,lo8(3)
 1098 0190 8683      		std Z+6,r24
 1099               	.LSM141:
 1100 0192 D601      		movw r26,r12
 1101 0194 1D96      		adiw r26,13
 1102 0196 8D91      		ld r24,X+
 1103 0198 9C91      		ld r25,X
 1104 019a 1E97      		sbiw r26,13+1
 1105 019c 9183      		std Z+1,r25
 1106 019e 8083      		st Z,r24
 1107 01a0 1E96      		adiw r26,13+1
 1108 01a2 FC93      		st X,r31
 1109 01a4 EE93      		st -X,r30
 1110 01a6 1D97      		sbiw r26,13
 1111 01a8 00C0      		rjmp .L73
 1112               	.LVL96:
 1113               	.L70:
 1114               	.LSM142:
 1115 01aa CE01      		movw r24,r28
 1116               	.LVL97:
 1117 01ac 0E94 0000 		call pbuf_free
 1118               	.LVL98:
 1119               	.L73:
 1120               	.LSM143:
 1121 01b0 812F      		mov r24,r17
 1122               	/* epilogue start */
 1123 01b2 DF91      		pop r29
 1124 01b4 CF91      		pop r28
 1125               	.LVL99:
 1126 01b6 1F91      		pop r17
 1127               	.LVL100:
 1128 01b8 0F91      		pop r16
 1129               	.LVL101:
 1130 01ba FF90      		pop r15
 1131               	.LVL102:
 1132 01bc EF90      		pop r14
 1133               	.LVL103:
 1134 01be DF90      		pop r13
 1135 01c0 CF90      		pop r12
 1136               	.LVL104:
 1137 01c2 BF90      		pop r11
 1138 01c4 AF90      		pop r10
 1139               	.LVL105:
 1140 01c6 9F90      		pop r9
 1141               	.LVL106:
 1142 01c8 7F90      		pop r7
 1143 01ca 6F90      		pop r6
 1144               	.LVL107:
 1145 01cc 0895      		ret
 1146               	.LVL108:
 1147               	.L82:
 1148               	.LSM144:
 1149 01ce 8CE0      		ldi r24,lo8(12)
 1150               	.LVL109:
 1151 01d0 0E94 0000 		call lwbt_memp_malloc
 1152               	.LVL110:
 1153 01d4 FC01      		movw r30,r24
 1154 01d6 0097      		sbiw r24,0
 1155               	.LVL111:
 1156 01d8 01F4      		brne .L80
 1157 01da 00C0      		rjmp .L83
 1158               	.LFE18:
 1160               		.section	.text.ppp_echo,"ax",@progbits
 1161               	.global	ppp_echo
 1163               	ppp_echo:
 1164               	.LFB17:
 1165               	.LSM145:
 1166               	.LVL112:
 1167 0000 0F93      		push r16
 1168 0002 1F93      		push r17
 1169 0004 CF93      		push r28
 1170 0006 DF93      		push r29
 1171               	/* prologue: function */
 1172               	/* frame size = 0 */
 1173 0008 EC01      		movw r28,r24
 1174               	.LSM146:
 1175 000a 8C81      		ldd r24,Y+4
 1176               	.LVL113:
 1177 000c 8330      		cpi r24,lo8(3)
 1178 000e 00F0      		brlo .L85
 1179 0010 8630      		cpi r24,lo8(6)
 1180 0012 01F0      		breq .L85
 1181               	.LSM147:
 1182 0014 7DA3      		std Y+37,r23
 1183 0016 6CA3      		std Y+36,r22
 1184               	.LSM148:
 1185 0018 0E94 0000 		call ppp_next_id
 1186               	.LVL114:
 1187 001c 282F      		mov r18,r24
 1188 001e CE01      		movw r24,r28
 1189 0020 61E2      		ldi r22,lo8(-16351)
 1190 0022 70EC      		ldi r23,hi8(-16351)
 1191 0024 49E0      		ldi r20,lo8(9)
 1192 0026 00E0      		ldi r16,lo8(0)
 1193 0028 10E0      		ldi r17,hi8(0)
 1194 002a 0E94 0000 		call ppp_cp_output
 1195 002e 00C0      		rjmp .L86
 1196               	.LVL115:
 1197               	.L85:
 1198 0030 8AEF      		ldi r24,lo8(-6)
 1199               	.L86:
 1200               	/* epilogue start */
 1201               	.LSM149:
 1202 0032 DF91      		pop r29
 1203 0034 CF91      		pop r28
 1204               	.LVL116:
 1205 0036 1F91      		pop r17
 1206 0038 0F91      		pop r16
 1207 003a 0895      		ret
 1208               	.LFE17:
 1210               		.section	.text.ipcp_cfg_req,"ax",@progbits
 1211               	.global	ipcp_cfg_req
 1213               	ipcp_cfg_req:
 1214               	.LFB14:
 1215               	.LSM150:
 1216               	.LVL117:
 1217 0000 0F93      		push r16
 1218 0002 1F93      		push r17
 1219 0004 CF93      		push r28
 1220 0006 DF93      		push r29
 1221               	/* prologue: function */
 1222               	/* frame size = 0 */
 1223 0008 8C01      		movw r16,r24
 1224               	.LSM151:
 1225 000a DC01      		movw r26,r24
 1226 000c 5A96      		adiw r26,26
 1227 000e 8C91      		ld r24,X
 1228               	.LVL118:
 1229 0010 81FD      		sbrc r24,1
 1230 0012 00C0      		rjmp .L89
 1231 0014 C0E0      		ldi r28,lo8(0)
 1232 0016 D0E0      		ldi r29,hi8(0)
 1233               	.LVL119:
 1234 0018 00C0      		rjmp .L90
 1235               	.LVL120:
 1236               	.L89:
 1237               	.LSM152:
 1238 001a 83E0      		ldi r24,lo8(3)
 1239 001c 66E0      		ldi r22,lo8(6)
 1240 001e 70E0      		ldi r23,hi8(6)
 1241 0020 40E0      		ldi r20,lo8(0)
 1242 0022 0E94 0000 		call pbuf_alloc
 1243 0026 EC01      		movw r28,r24
 1244               	.LVL121:
 1245 0028 0097      		sbiw r24,0
 1246 002a 01F4      		brne .L91
 1247               	.LVL122:
 1248 002c 8FEF      		ldi r24,lo8(-1)
 1249               	.LVL123:
 1250 002e 00C0      		rjmp .L92
 1251               	.LVL124:
 1252               	.L91:
 1253               	.LSM153:
 1254 0030 EA81      		ldd r30,Y+2
 1255 0032 FB81      		ldd r31,Y+3
 1256               	.LVL125:
 1257               	.LSM154:
 1258 0034 83E0      		ldi r24,lo8(3)
 1259               	.LVL126:
 1260 0036 8083      		st Z,r24
 1261               	.LSM155:
 1262 0038 8E81      		ldd r24,Y+6
 1263 003a 8183      		std Z+1,r24
 1264               	.LSM156:
 1265 003c 2A81      		ldd r18,Y+2
 1266 003e 3B81      		ldd r19,Y+3
 1267 0040 D801      		movw r26,r16
 1268 0042 5C96      		adiw r26,28
 1269 0044 ED91      		ld r30,X+
 1270 0046 FC91      		ld r31,X
 1271 0048 5D97      		sbiw r26,28+1
 1272               	.LVL127:
 1273 004a 8281      		ldd r24,Z+2
 1274 004c 9381      		ldd r25,Z+3
 1275 004e A481      		ldd r26,Z+4
 1276 0050 B581      		ldd r27,Z+5
 1277 0052 F901      		movw r30,r18
 1278 0054 8283      		std Z+2,r24
 1279 0056 9383      		std Z+3,r25
 1280 0058 A483      		std Z+4,r26
 1281 005a B583      		std Z+5,r27
 1282               	.L90:
 1283               	.LSM157:
 1284 005c 0E94 0000 		call ppp_next_id
 1285 0060 282F      		mov r18,r24
 1286 0062 C801      		movw r24,r16
 1287 0064 61E2      		ldi r22,lo8(-32735)
 1288 0066 70E8      		ldi r23,hi8(-32735)
 1289 0068 41E0      		ldi r20,lo8(1)
 1290 006a 8E01      		movw r16,r28
 1291               	.LVL128:
 1292 006c 0E94 0000 		call ppp_cp_output
 1293               	.LVL129:
 1294               	.L92:
 1295               	/* epilogue start */
 1296               	.LSM158:
 1297 0070 DF91      		pop r29
 1298 0072 CF91      		pop r28
 1299               	.LVL130:
 1300 0074 1F91      		pop r17
 1301 0076 0F91      		pop r16
 1302               	.LVL131:
 1303 0078 0895      		ret
 1304               	.LFE14:
 1306               		.section	.text.lcp_cfg_req,"ax",@progbits
 1307               	.global	lcp_cfg_req
 1309               	lcp_cfg_req:
 1310               	.LFB13:
 1311               	.LSM159:
 1312               	.LVL132:
 1313 0000 AF92      		push r10
 1314 0002 BF92      		push r11
 1315 0004 CF92      		push r12
 1316 0006 DF92      		push r13
 1317 0008 EF92      		push r14
 1318 000a FF92      		push r15
 1319 000c 0F93      		push r16
 1320 000e 1F93      		push r17
 1321 0010 CF93      		push r28
 1322 0012 DF93      		push r29
 1323               	/* prologue: function */
 1324               	/* frame size = 0 */
 1325 0014 6C01      		movw r12,r24
 1326 0016 5B01      		movw r10,r22
 1327               	.LSM160:
 1328 0018 DC01      		movw r26,r24
 1329 001a 5796      		adiw r26,23
 1330 001c 8C91      		ld r24,X
 1331               	.LVL133:
 1332 001e 80FD      		sbrc r24,0
 1333 0020 00C0      		rjmp .L95
 1334               	.LVL134:
 1335 0022 EE24      		clr r14
 1336 0024 FF24      		clr r15
 1337               	.LVL135:
 1338 0026 00C0      		rjmp .L96
 1339               	.LVL136:
 1340               	.L95:
 1341               	.LSM161:
 1342 0028 83E0      		ldi r24,lo8(3)
 1343 002a 64E0      		ldi r22,lo8(4)
 1344 002c 70E0      		ldi r23,hi8(4)
 1345 002e 40E0      		ldi r20,lo8(0)
 1346 0030 0E94 0000 		call pbuf_alloc
 1347 0034 7C01      		movw r14,r24
 1348               	.LVL137:
 1349               	.LSM162:
 1350 0036 DC01      		movw r26,r24
 1351 0038 1296      		adiw r26,2
 1352 003a ED91      		ld r30,X+
 1353 003c FC91      		ld r31,X
 1354 003e 1397      		sbiw r26,2+1
 1355               	.LVL138:
 1356               	.LSM163:
 1357 0040 81E0      		ldi r24,lo8(1)
 1358 0042 8083      		st Z,r24
 1359               	.LSM164:
 1360 0044 1696      		adiw r26,6
 1361 0046 8C91      		ld r24,X
 1362 0048 1697      		sbiw r26,6
 1363 004a 8183      		std Z+1,r24
 1364               	.LSM165:
 1365 004c 1296      		adiw r26,2
 1366 004e 0D91      		ld r16,X+
 1367 0050 1C91      		ld r17,X
 1368 0052 1397      		sbiw r26,2+1
 1369 0054 80E4      		ldi r24,lo8(576)
 1370 0056 92E0      		ldi r25,hi8(576)
 1371 0058 0E94 0000 		call htons
 1372               	.LVL139:
 1373 005c F801      		movw r30,r16
 1374 005e 9383      		std Z+3,r25
 1375 0060 8283      		std Z+2,r24
 1376               	.LVL140:
 1377               	.L96:
 1378               	.LSM166:
 1379 0062 D601      		movw r26,r12
 1380 0064 5796      		adiw r26,23
 1381 0066 8C91      		ld r24,X
 1382 0068 84FF      		sbrs r24,4
 1383 006a 00C0      		rjmp .L97
 1384               	.LSM167:
 1385 006c 83E0      		ldi r24,lo8(3)
 1386 006e 66E0      		ldi r22,lo8(6)
 1387 0070 70E0      		ldi r23,hi8(6)
 1388 0072 40E0      		ldi r20,lo8(0)
 1389 0074 0E94 0000 		call pbuf_alloc
 1390 0078 EC01      		movw r28,r24
 1391               	.LVL141:
 1392               	.LSM168:
 1393 007a EA81      		ldd r30,Y+2
 1394 007c FB81      		ldd r31,Y+3
 1395               	.LVL142:
 1396               	.LSM169:
 1397 007e 82E0      		ldi r24,lo8(2)
 1398 0080 8083      		st Z,r24
 1399               	.LSM170:
 1400 0082 8E81      		ldd r24,Y+6
 1401 0084 8183      		std Z+1,r24
 1402               	.LSM171:
 1403 0086 0A81      		ldd r16,Y+2
 1404 0088 1B81      		ldd r17,Y+3
 1405 008a 60E0      		ldi r22,lo8(0)
 1406 008c 70E0      		ldi r23,hi8(0)
 1407 008e 80E0      		ldi r24,hlo8(0)
 1408 0090 90E0      		ldi r25,hhi8(0)
 1409 0092 0E94 0000 		call htonl
 1410               	.LVL143:
 1411 0096 F801      		movw r30,r16
 1412 0098 6283      		std Z+2,r22
 1413 009a 7383      		std Z+3,r23
 1414 009c 8483      		std Z+4,r24
 1415 009e 9583      		std Z+5,r25
 1416               	.LSM172:
 1417 00a0 E114      		cp r14,__zero_reg__
 1418 00a2 F104      		cpc r15,__zero_reg__
 1419 00a4 01F4      		brne .L98
 1420 00a6 7E01      		movw r14,r28
 1421 00a8 00C0      		rjmp .L97
 1422               	.L98:
 1423               	.LSM173:
 1424 00aa C701      		movw r24,r14
 1425 00ac BE01      		movw r22,r28
 1426 00ae 0E94 0000 		call pbuf_chain
 1427               	.LSM174:
 1428 00b2 CE01      		movw r24,r28
 1429 00b4 0E94 0000 		call pbuf_free
 1430               	.LVL144:
 1431               	.L97:
 1432               	.LSM175:
 1433 00b8 D601      		movw r26,r12
 1434 00ba 5796      		adiw r26,23
 1435 00bc 8C91      		ld r24,X
 1436 00be 82FF      		sbrs r24,2
 1437 00c0 00C0      		rjmp .L99
 1438               	.LSM176:
 1439 00c2 83E0      		ldi r24,lo8(3)
 1440 00c4 62E0      		ldi r22,lo8(2)
 1441 00c6 70E0      		ldi r23,hi8(2)
 1442 00c8 40E0      		ldi r20,lo8(0)
 1443 00ca 0E94 0000 		call pbuf_alloc
 1444 00ce EC01      		movw r28,r24
 1445               	.LVL145:
 1446               	.LSM177:
 1447 00d0 EA81      		ldd r30,Y+2
 1448 00d2 FB81      		ldd r31,Y+3
 1449               	.LVL146:
 1450               	.LSM178:
 1451 00d4 87E0      		ldi r24,lo8(7)
 1452 00d6 8083      		st Z,r24
 1453               	.LSM179:
 1454 00d8 8E81      		ldd r24,Y+6
 1455 00da 8183      		std Z+1,r24
 1456               	.LSM180:
 1457 00dc E114      		cp r14,__zero_reg__
 1458 00de F104      		cpc r15,__zero_reg__
 1459 00e0 01F4      		brne .L100
 1460 00e2 7E01      		movw r14,r28
 1461 00e4 00C0      		rjmp .L99
 1462               	.L100:
 1463               	.LSM181:
 1464 00e6 C701      		movw r24,r14
 1465 00e8 BE01      		movw r22,r28
 1466 00ea 0E94 0000 		call pbuf_chain
 1467               	.LVL147:
 1468               	.LSM182:
 1469 00ee CE01      		movw r24,r28
 1470 00f0 0E94 0000 		call pbuf_free
 1471               	.LVL148:
 1472               	.L99:
 1473               	.LSM183:
 1474 00f4 F601      		movw r30,r12
 1475               	.LVL149:
 1476 00f6 8789      		ldd r24,Z+23
 1477 00f8 83FF      		sbrs r24,3
 1478 00fa 00C0      		rjmp .L101
 1479               	.LSM184:
 1480 00fc 83E0      		ldi r24,lo8(3)
 1481 00fe 62E0      		ldi r22,lo8(2)
 1482 0100 70E0      		ldi r23,hi8(2)
 1483 0102 40E0      		ldi r20,lo8(0)
 1484 0104 0E94 0000 		call pbuf_alloc
 1485 0108 EC01      		movw r28,r24
 1486               	.LVL150:
 1487               	.LSM185:
 1488 010a EA81      		ldd r30,Y+2
 1489 010c FB81      		ldd r31,Y+3
 1490               	.LVL151:
 1491               	.LSM186:
 1492 010e 88E0      		ldi r24,lo8(8)
 1493 0110 8083      		st Z,r24
 1494               	.LSM187:
 1495 0112 8E81      		ldd r24,Y+6
 1496 0114 8183      		std Z+1,r24
 1497               	.LSM188:
 1498 0116 E114      		cp r14,__zero_reg__
 1499 0118 F104      		cpc r15,__zero_reg__
 1500 011a 01F4      		brne .L102
 1501 011c 7E01      		movw r14,r28
 1502 011e 00C0      		rjmp .L101
 1503               	.L102:
 1504               	.LSM189:
 1505 0120 C701      		movw r24,r14
 1506 0122 BE01      		movw r22,r28
 1507 0124 0E94 0000 		call pbuf_chain
 1508               	.LVL152:
 1509               	.LSM190:
 1510 0128 CE01      		movw r24,r28
 1511 012a 0E94 0000 		call pbuf_free
 1512               	.LVL153:
 1513               	.L101:
 1514               	.LSM191:
 1515 012e A114      		cp r10,__zero_reg__
 1516 0130 B104      		cpc r11,__zero_reg__
 1517 0132 01F0      		breq .L103
 1518               	.LSM192:
 1519 0134 C701      		movw r24,r14
 1520 0136 B501      		movw r22,r10
 1521 0138 0E94 0000 		call pbuf_chain
 1522               	.LVL154:
 1523               	.LSM193:
 1524 013c C501      		movw r24,r10
 1525 013e 0E94 0000 		call pbuf_free
 1526               	.LVL155:
 1527               	.L103:
 1528               	.LSM194:
 1529 0142 C701      		movw r24,r14
 1530               	.LVL156:
 1531               	/* epilogue start */
 1532 0144 DF91      		pop r29
 1533 0146 CF91      		pop r28
 1534               	.LVL157:
 1535 0148 1F91      		pop r17
 1536 014a 0F91      		pop r16
 1537 014c FF90      		pop r15
 1538 014e EF90      		pop r14
 1539 0150 DF90      		pop r13
 1540 0152 CF90      		pop r12
 1541               	.LVL158:
 1542 0154 BF90      		pop r11
 1543 0156 AF90      		pop r10
 1544               	.LVL159:
 1545 0158 0895      		ret
 1546               	.LFE13:
 1548               		.section	.text.ppp_connect,"ax",@progbits
 1549               	.global	ppp_connect
 1551               	ppp_connect:
 1552               	.LFB15:
 1553               	.LSM195:
 1554               	.LVL160:
 1555 0000 0F93      		push r16
 1556 0002 1F93      		push r17
 1557 0004 CF93      		push r28
 1558 0006 DF93      		push r29
 1559               	/* prologue: function */
 1560               	/* frame size = 0 */
 1561 0008 EC01      		movw r28,r24
 1562               	.LSM196:
 1563 000a 79A3      		std Y+33,r23
 1564 000c 68A3      		std Y+32,r22
 1565               	.LSM197:
 1566 000e 8E89      		ldd r24,Y+22
 1567               	.LVL161:
 1568 0010 8160      		ori r24,lo8(1)
 1569 0012 8E8B      		std Y+22,r24
 1570               	.LSM198:
 1571 0014 8C81      		ldd r24,Y+4
 1572 0016 8330      		cpi r24,lo8(3)
 1573 0018 01F4      		brne .L106
 1574               	.LSM199:
 1575 001a CE01      		movw r24,r28
 1576 001c 0E94 0000 		call ipcp_cfg_req
 1577               	.LVL162:
 1578 0020 982F      		mov r25,r24
 1579               	.LVL163:
 1580 0022 8823      		tst r24
 1581 0024 01F4      		brne .L107
 1582               	.LVL164:
 1583               	.LSM200:
 1584 0026 84E0      		ldi r24,lo8(4)
 1585               	.LVL165:
 1586 0028 00C0      		rjmp .L109
 1587               	.LVL166:
 1588               	.L106:
 1589               	.LSM201:
 1590 002a 8091 0000 		lds r24,ppp_active_pcbs
 1591 002e 9091 0000 		lds r25,(ppp_active_pcbs)+1
 1592 0032 9983      		std Y+1,r25
 1593 0034 8883      		st Y,r24
 1594 0036 D093 0000 		sts (ppp_active_pcbs)+1,r29
 1595 003a C093 0000 		sts ppp_active_pcbs,r28
 1596               	.LSM202:
 1597 003e CE01      		movw r24,r28
 1598 0040 60E0      		ldi r22,lo8(0)
 1599 0042 70E0      		ldi r23,hi8(0)
 1600               	.LVL167:
 1601 0044 0E94 0000 		call lcp_cfg_req
 1602 0048 8C01      		movw r16,r24
 1603               	.LVL168:
 1604               	.LSM203:
 1605 004a 0E94 0000 		call ppp_next_id
 1606 004e 282F      		mov r18,r24
 1607 0050 CE01      		movw r24,r28
 1608 0052 61E2      		ldi r22,lo8(-16351)
 1609 0054 70EC      		ldi r23,hi8(-16351)
 1610 0056 41E0      		ldi r20,lo8(1)
 1611 0058 0E94 0000 		call ppp_cp_output
 1612 005c 982F      		mov r25,r24
 1613               	.LVL169:
 1614 005e 8823      		tst r24
 1615 0060 01F4      		brne .L107
 1616               	.LVL170:
 1617               	.LSM204:
 1618 0062 82E0      		ldi r24,lo8(2)
 1619               	.LVL171:
 1620               	.L109:
 1621 0064 8C83      		std Y+4,r24
 1622               	.LVL172:
 1623               	.L107:
 1624               	.LSM205:
 1625 0066 892F      		mov r24,r25
 1626               	/* epilogue start */
 1627 0068 DF91      		pop r29
 1628 006a CF91      		pop r28
 1629               	.LVL173:
 1630 006c 1F91      		pop r17
 1631 006e 0F91      		pop r16
 1632               	.LVL174:
 1633 0070 0895      		ret
 1634               	.LFE15:
 1636               		.section	.text.ppp_close,"ax",@progbits
 1637               	.global	ppp_close
 1639               	ppp_close:
 1640               	.LFB11:
 1641               	.LSM206:
 1642               	.LVL175:
 1643 0000 0F93      		push r16
 1644 0002 1F93      		push r17
 1645 0004 CF93      		push r28
 1646 0006 DF93      		push r29
 1647               	/* prologue: function */
 1648               	/* frame size = 0 */
 1649 0008 8C01      		movw r16,r24
 1650               	.LSM207:
 1651 000a DC01      		movw r26,r24
 1652 000c 1D96      		adiw r26,13
 1653 000e CD91      		ld r28,X+
 1654 0010 DC91      		ld r29,X
 1655 0012 1E97      		sbiw r26,13+1
 1656               	.LVL176:
 1657 0014 00C0      		rjmp .L111
 1658               	.L118:
 1659               	.LSM208:
 1660 0016 D801      		movw r26,r16
 1661 0018 1D96      		adiw r26,13
 1662 001a ED91      		ld r30,X+
 1663 001c FC91      		ld r31,X
 1664 001e 1E97      		sbiw r26,13+1
 1665 0020 EC17      		cp r30,r28
 1666 0022 FD07      		cpc r31,r29
 1667 0024 01F4      		brne .L112
 1668               	.LVL177:
 1669 0026 8881      		ld r24,Y
 1670 0028 9981      		ldd r25,Y+1
 1671 002a 1E96      		adiw r26,13+1
 1672 002c 9C93      		st X,r25
 1673 002e 8E93      		st -X,r24
 1674 0030 1D97      		sbiw r26,13
 1675 0032 00C0      		rjmp .L113
 1676               	.LVL178:
 1677               	.L112:
 1678 0034 F093 0000 		sts (ppp_tmp_req)+1,r31
 1679 0038 E093 0000 		sts ppp_tmp_req,r30
 1680 003c 00C0      		rjmp .L114
 1681               	.L116:
 1682 003e 8081      		ld r24,Z
 1683 0040 9181      		ldd r25,Z+1
 1684 0042 0097      		sbiw r24,0
 1685 0044 01F0      		breq .L115
 1686 0046 8C17      		cp r24,r28
 1687 0048 9D07      		cpc r25,r29
 1688 004a 01F4      		brne .L115
 1689 004c F093 0000 		sts (ppp_tmp_req)+1,r31
 1690 0050 E093 0000 		sts ppp_tmp_req,r30
 1691 0054 8881      		ld r24,Y
 1692 0056 9981      		ldd r25,Y+1
 1693 0058 9183      		std Z+1,r25
 1694 005a 8083      		st Z,r24
 1695 005c 00C0      		rjmp .L113
 1696               	.L115:
 1697 005e FC01      		movw r30,r24
 1698               	.LVL179:
 1699               	.L114:
 1700 0060 3097      		sbiw r30,0
 1701 0062 01F4      		brne .L116
 1702 0064 1092 0000 		sts (ppp_tmp_req)+1,__zero_reg__
 1703 0068 1092 0000 		sts ppp_tmp_req,__zero_reg__
 1704               	.L113:
 1705 006c 1982      		std Y+1,__zero_reg__
 1706 006e 1882      		st Y,__zero_reg__
 1707               	.LSM209:
 1708 0070 8A81      		ldd r24,Y+2
 1709 0072 9B81      		ldd r25,Y+3
 1710 0074 0097      		sbiw r24,0
 1711 0076 01F0      		breq .L117
 1712               	.LSM210:
 1713 0078 0E94 0000 		call pbuf_free
 1714               	.L117:
 1715               	.LSM211:
 1716 007c 8CE0      		ldi r24,lo8(12)
 1717 007e BE01      		movw r22,r28
 1718 0080 0E94 0000 		call lwbt_memp_free
 1719               	.LSM212:
 1720 0084 0990      		ld __tmp_reg__,Y+
 1721 0086 D881      		ld r29,Y
 1722 0088 C02D      		mov r28,__tmp_reg__
 1723               	.LVL180:
 1724               	.L111:
 1725 008a 2097      		sbiw r28,0
 1726 008c 01F4      		brne .L118
 1727               	.LVL181:
 1728               	.LSM213:
 1729 008e F801      		movw r30,r16
 1730 0090 8481      		ldd r24,Z+4
 1731               	.LVL182:
 1732 0092 8130      		cpi r24,lo8(1)
 1733 0094 01F4      		brne .L134
 1734               	.LSM214:
 1735 0096 E091 0000 		lds r30,ppp_listen_pcbs
 1736 009a F091 0000 		lds r31,(ppp_listen_pcbs)+1
 1737 009e E017      		cp r30,r16
 1738 00a0 F107      		cpc r31,r17
 1739 00a2 01F4      		brne .L121
 1740 00a4 D801      		movw r26,r16
 1741 00a6 8D91      		ld r24,X+
 1742 00a8 9C91      		ld r25,X
 1743 00aa 9093 0000 		sts (ppp_listen_pcbs)+1,r25
 1744 00ae 8093 0000 		sts ppp_listen_pcbs,r24
 1745 00b2 00C0      		rjmp .L128
 1746               	.L121:
 1747 00b4 F093 0000 		sts (ppp_tmp_pcb)+1,r31
 1748 00b8 E093 0000 		sts ppp_tmp_pcb,r30
 1749 00bc 00C0      		rjmp .L123
 1750               	.L125:
 1751 00be 8081      		ld r24,Z
 1752 00c0 9181      		ldd r25,Z+1
 1753 00c2 0097      		sbiw r24,0
 1754 00c4 01F0      		breq .L124
 1755 00c6 8017      		cp r24,r16
 1756 00c8 9107      		cpc r25,r17
 1757 00ca 01F4      		brne .L124
 1758 00cc E093 0000 		sts ppp_tmp_pcb,r30
 1759 00d0 F093 0000 		sts ppp_tmp_pcb+1,r31
 1760 00d4 00C0      		rjmp .L136
 1761               	.L124:
 1762 00d6 FC01      		movw r30,r24
 1763               	.L123:
 1764 00d8 3097      		sbiw r30,0
 1765 00da 01F4      		brne .L125
 1766 00dc 00C0      		rjmp .L135
 1767               	.L134:
 1768               	.LSM215:
 1769 00de E091 0000 		lds r30,ppp_active_pcbs
 1770 00e2 F091 0000 		lds r31,(ppp_active_pcbs)+1
 1771 00e6 E017      		cp r30,r16
 1772 00e8 F107      		cpc r31,r17
 1773 00ea 01F4      		brne .L127
 1774 00ec D801      		movw r26,r16
 1775 00ee 8D91      		ld r24,X+
 1776 00f0 9C91      		ld r25,X
 1777 00f2 9093 0000 		sts (ppp_active_pcbs)+1,r25
 1778 00f6 8093 0000 		sts ppp_active_pcbs,r24
 1779 00fa 00C0      		rjmp .L128
 1780               	.L127:
 1781 00fc F093 0000 		sts (ppp_tmp_pcb)+1,r31
 1782 0100 E093 0000 		sts ppp_tmp_pcb,r30
 1783 0104 00C0      		rjmp .L129
 1784               	.L131:
 1785 0106 8081      		ld r24,Z
 1786 0108 9181      		ldd r25,Z+1
 1787 010a 0097      		sbiw r24,0
 1788 010c 01F0      		breq .L130
 1789 010e 8017      		cp r24,r16
 1790 0110 9107      		cpc r25,r17
 1791 0112 01F4      		brne .L130
 1792 0114 F093 0000 		sts (ppp_tmp_pcb)+1,r31
 1793 0118 E093 0000 		sts ppp_tmp_pcb,r30
 1794               	.L136:
 1795 011c D801      		movw r26,r16
 1796 011e 8D91      		ld r24,X+
 1797 0120 9C91      		ld r25,X
 1798 0122 9183      		std Z+1,r25
 1799 0124 8083      		st Z,r24
 1800 0126 00C0      		rjmp .L128
 1801               	.L130:
 1802 0128 FC01      		movw r30,r24
 1803               	.L129:
 1804 012a 3097      		sbiw r30,0
 1805 012c 01F4      		brne .L131
 1806               	.L135:
 1807 012e 1092 0000 		sts (ppp_tmp_pcb)+1,__zero_reg__
 1808 0132 1092 0000 		sts ppp_tmp_pcb,__zero_reg__
 1809               	.L128:
 1810 0136 F801      		movw r30,r16
 1811 0138 1182      		std Z+1,__zero_reg__
 1812 013a 1082      		st Z,__zero_reg__
 1813               	.LSM216:
 1814 013c D801      		movw r26,r16
 1815 013e 1596      		adiw r26,5
 1816 0140 8D91      		ld r24,X+
 1817 0142 9C91      		ld r25,X
 1818 0144 1697      		sbiw r26,5+1
 1819 0146 0097      		sbiw r24,0
 1820 0148 01F0      		breq .L132
 1821               	.LSM217:
 1822 014a 0E94 0000 		call pbuf_free
 1823               	.LSM218:
 1824 014e F801      		movw r30,r16
 1825 0150 1682      		std Z+6,__zero_reg__
 1826 0152 1582      		std Z+5,__zero_reg__
 1827               	.L132:
 1828               	.LSM219:
 1829 0154 8BE0      		ldi r24,lo8(11)
 1830 0156 B801      		movw r22,r16
 1831 0158 0E94 0000 		call lwbt_memp_free
 1832               	.LSM220:
 1833 015c 80E0      		ldi r24,lo8(0)
 1834               	/* epilogue start */
 1835 015e DF91      		pop r29
 1836 0160 CF91      		pop r28
 1837               	.LVL183:
 1838 0162 1F91      		pop r17
 1839 0164 0F91      		pop r16
 1840               	.LVL184:
 1841 0166 0895      		ret
 1842               	.LFE11:
 1844               		.section	.text.ppp_disconnect,"ax",@progbits
 1845               	.global	ppp_disconnect
 1847               	ppp_disconnect:
 1848               	.LFB16:
 1849               	.LSM221:
 1850               	.LVL185:
 1851 0000 0F93      		push r16
 1852 0002 1F93      		push r17
 1853 0004 CF93      		push r28
 1854 0006 DF93      		push r29
 1855               	/* prologue: function */
 1856               	/* frame size = 0 */
 1857 0008 EC01      		movw r28,r24
 1858               	.LSM222:
 1859 000a 8C81      		ldd r24,Y+4
 1860               	.LVL186:
 1861 000c 8230      		cpi r24,lo8(2)
 1862 000e 00F0      		brlo .L138
 1863 0010 8630      		cpi r24,lo8(6)
 1864 0012 01F4      		brne .L139
 1865               	.L138:
 1866               	.LSM223:
 1867 0014 EAA1      		ldd r30,Y+34
 1868 0016 FBA1      		ldd r31,Y+35
 1869 0018 3097      		sbiw r30,0
 1870 001a 01F0      		breq .L140
 1871 001c 8E8D      		ldd r24,Y+30
 1872 001e 9F8D      		ldd r25,Y+31
 1873 0020 BE01      		movw r22,r28
 1874 0022 41E2      		ldi r20,lo8(-16351)
 1875 0024 50EC      		ldi r21,hi8(-16351)
 1876 0026 20E0      		ldi r18,lo8(0)
 1877 0028 0995      		icall
 1878 002a 00C0      		rjmp .L143
 1879               	.L140:
 1880 002c 8C8D      		ldd r24,Y+28
 1881 002e 9D8D      		ldd r25,Y+29
 1882 0030 0E94 0000 		call netif_remove
 1883 0034 CE01      		movw r24,r28
 1884 0036 0E94 0000 		call ppp_close
 1885               	.L143:
 1886 003a 80E0      		ldi r24,lo8(0)
 1887 003c 00C0      		rjmp .L141
 1888               	.L139:
 1889               	.LSM224:
 1890 003e 86E0      		ldi r24,lo8(6)
 1891 0040 8C83      		std Y+4,r24
 1892               	.LSM225:
 1893 0042 0E94 0000 		call ppp_next_id
 1894 0046 282F      		mov r18,r24
 1895 0048 CE01      		movw r24,r28
 1896 004a 61E2      		ldi r22,lo8(-16351)
 1897 004c 70EC      		ldi r23,hi8(-16351)
 1898 004e 45E0      		ldi r20,lo8(5)
 1899 0050 00E0      		ldi r16,lo8(0)
 1900 0052 10E0      		ldi r17,hi8(0)
 1901 0054 0E94 0000 		call ppp_cp_output
 1902               	.L141:
 1903               	/* epilogue start */
 1904               	.LSM226:
 1905 0058 DF91      		pop r29
 1906 005a CF91      		pop r28
 1907               	.LVL187:
 1908 005c 1F91      		pop r17
 1909 005e 0F91      		pop r16
 1910 0060 0895      		ret
 1911               	.LFE16:
 1913               		.section	.text.ppp_reset_all,"ax",@progbits
 1914               	.global	ppp_reset_all
 1916               	ppp_reset_all:
 1917               	.LFB12:
 1918               	.LSM227:
 1919 0000 0F93      		push r16
 1920 0002 1F93      		push r17
 1921               	/* prologue: function */
 1922               	/* frame size = 0 */
 1923               	.LSM228:
 1924 0004 E091 0000 		lds r30,ppp_active_pcbs
 1925 0008 F091 0000 		lds r31,(ppp_active_pcbs)+1
 1926               	.LVL188:
 1927 000c 00C0      		rjmp .L145
 1928               	.LVL189:
 1929               	.L146:
 1930               	.LSM229:
 1931 000e 1081      		ld r17,Z
 1932 0010 0181      		ldd r16,Z+1
 1933               	.LSM230:
 1934 0012 CF01      		movw r24,r30
 1935 0014 0E94 0000 		call ppp_close
 1936               	.LVL190:
 1937 0018 212F      		mov r18,r17
 1938               	.LVL191:
 1939 001a 302F      		mov r19,r16
 1940               	.LVL192:
 1941 001c C901      		movw r24,r18
 1942               	.LVL193:
 1943 001e FC01      		movw r30,r24
 1944               	.LVL194:
 1945               	.L145:
 1946               	.LSM231:
 1947 0020 3097      		sbiw r30,0
 1948 0022 01F4      		brne .L146
 1949               	.LSM232:
 1950 0024 E091 0000 		lds r30,ppp_listen_pcbs
 1951 0028 F091 0000 		lds r31,(ppp_listen_pcbs)+1
 1952               	.LVL195:
 1953 002c 00C0      		rjmp .L147
 1954               	.LVL196:
 1955               	.L148:
 1956               	.LSM233:
 1957 002e 1081      		ld r17,Z
 1958 0030 0181      		ldd r16,Z+1
 1959               	.LSM234:
 1960 0032 CF01      		movw r24,r30
 1961 0034 0E94 0000 		call ppp_close
 1962               	.LVL197:
 1963 0038 212F      		mov r18,r17
 1964               	.LVL198:
 1965 003a 302F      		mov r19,r16
 1966               	.LVL199:
 1967 003c C901      		movw r24,r18
 1968               	.LVL200:
 1969 003e FC01      		movw r30,r24
 1970               	.LVL201:
 1971               	.L147:
 1972               	.LSM235:
 1973 0040 3097      		sbiw r30,0
 1974 0042 01F4      		brne .L148
 1975               	.LSM236:
 1976 0044 0E94 0000 		call ppp_init
 1977               	.LVL202:
 1978               	/* epilogue start */
 1979               	.LSM237:
 1980 0048 1F91      		pop r17
 1981               	.LVL203:
 1982 004a 0F91      		pop r16
 1983               	.LVL204:
 1984 004c 0895      		ret
 1985               	.LFE12:
 1987               		.section	.text.ppp_lp_disconnected,"ax",@progbits
 1988               	.global	ppp_lp_disconnected
 1990               	ppp_lp_disconnected:
 1991               	.LFB5:
 1992               	.LSM238:
 1993               	.LVL205:
 1994 0000 CF93      		push r28
 1995 0002 DF93      		push r29
 1996               	/* prologue: function */
 1997               	/* frame size = 0 */
 1998 0004 9C01      		movw r18,r24
 1999               	.LSM239:
 2000 0006 C091 0000 		lds r28,ppp_active_pcbs
 2001 000a D091 0000 		lds r29,(ppp_active_pcbs)+1
 2002               	.LVL206:
 2003 000e 00C0      		rjmp .L151
 2004               	.LVL207:
 2005               	.L155:
 2006               	.LSM240:
 2007 0010 8A81      		ldd r24,Y+2
 2008 0012 9B81      		ldd r25,Y+3
 2009 0014 8217      		cp r24,r18
 2010 0016 9307      		cpc r25,r19
 2011 0018 01F0      		breq .L164
 2012               	.L152:
 2013               	.LSM241:
 2014 001a 0990      		ld __tmp_reg__,Y+
 2015 001c D881      		ld r29,Y
 2016 001e C02D      		mov r28,__tmp_reg__
 2017               	.LVL208:
 2018               	.L151:
 2019 0020 2097      		sbiw r28,0
 2020 0022 01F4      		brne .L155
 2021               	.LSM242:
 2022 0024 C091 0000 		lds r28,ppp_listen_pcbs
 2023 0028 D091 0000 		lds r29,(ppp_listen_pcbs)+1
 2024               	.LVL209:
 2025 002c 00C0      		rjmp .L156
 2026               	.L159:
 2027               	.LSM243:
 2028 002e 8A81      		ldd r24,Y+2
 2029 0030 9B81      		ldd r25,Y+3
 2030 0032 8217      		cp r24,r18
 2031 0034 9307      		cpc r25,r19
 2032 0036 01F4      		brne .L157
 2033               	.L164:
 2034               	.LSM244:
 2035 0038 1C82      		std Y+4,__zero_reg__
 2036               	.LSM245:
 2037 003a EAA1      		ldd r30,Y+34
 2038 003c FBA1      		ldd r31,Y+35
 2039 003e 3097      		sbiw r30,0
 2040 0040 01F0      		breq .L158
 2041 0042 8E8D      		ldd r24,Y+30
 2042 0044 9F8D      		ldd r25,Y+31
 2043 0046 BE01      		movw r22,r28
 2044 0048 41E2      		ldi r20,lo8(-16351)
 2045 004a 50EC      		ldi r21,hi8(-16351)
 2046 004c 20E0      		ldi r18,lo8(0)
 2047               	.LVL210:
 2048 004e 0995      		icall
 2049 0050 00C0      		rjmp .L154
 2050               	.LVL211:
 2051               	.L158:
 2052 0052 8C8D      		ldd r24,Y+28
 2053 0054 9D8D      		ldd r25,Y+29
 2054 0056 0E94 0000 		call netif_remove
 2055               	.LVL212:
 2056 005a CE01      		movw r24,r28
 2057 005c 0E94 0000 		call ppp_close
 2058 0060 00C0      		rjmp .L162
 2059               	.LVL213:
 2060               	.L157:
 2061               	.LSM246:
 2062 0062 0990      		ld __tmp_reg__,Y+
 2063 0064 D881      		ld r29,Y
 2064 0066 C02D      		mov r28,__tmp_reg__
 2065               	.LVL214:
 2066               	.L156:
 2067 0068 2097      		sbiw r28,0
 2068 006a 01F4      		brne .L159
 2069               	.L162:
 2070 006c 80E0      		ldi r24,lo8(0)
 2071               	.LVL215:
 2072               	.L154:
 2073               	.LVL216:
 2074               	/* epilogue start */
 2075               	.LSM247:
 2076 006e DF91      		pop r29
 2077 0070 CF91      		pop r28
 2078               	.LVL217:
 2079 0072 0895      		ret
 2080               	.LFE5:
 2082               		.section	.text.ppp_tmr,"ax",@progbits
 2083               	.global	ppp_tmr
 2085               	ppp_tmr:
 2086               	.LFB4:
 2087               	.LSM248:
 2088 0000 0F93      		push r16
 2089 0002 1F93      		push r17
 2090 0004 CF93      		push r28
 2091 0006 DF93      		push r29
 2092               	/* prologue: function */
 2093               	/* frame size = 0 */
 2094               	.LSM249:
 2095 0008 0091 0000 		lds r16,ppp_active_pcbs
 2096 000c 1091 0000 		lds r17,(ppp_active_pcbs)+1
 2097               	.LVL218:
 2098 0010 00C0      		rjmp .L166
 2099               	.LVL219:
 2100               	.L177:
 2101               	.LSM250:
 2102 0012 D801      		movw r26,r16
 2103 0014 1D96      		adiw r26,13
 2104 0016 CD91      		ld r28,X+
 2105 0018 DC91      		ld r29,X
 2106 001a 1E97      		sbiw r26,13+1
 2107 001c 00C0      		rjmp .L167
 2108               	.L176:
 2109               	.LSM251:
 2110 001e 8D81      		ldd r24,Y+5
 2111 0020 8150      		subi r24,lo8(-(-1))
 2112 0022 8D83      		std Y+5,r24
 2113               	.LSM252:
 2114 0024 8823      		tst r24
 2115 0026 01F0      		breq .+2
 2116 0028 00C0      		rjmp .L168
 2117               	.LSM253:
 2118 002a 6E81      		ldd r22,Y+6
 2119 002c 6623      		tst r22
 2120 002e 01F0      		breq .+2
 2121 0030 00C0      		rjmp .L169
 2122               	.LSM254:
 2123 0032 D801      		movw r26,r16
 2124 0034 1D96      		adiw r26,13
 2125 0036 ED91      		ld r30,X+
 2126 0038 FC91      		ld r31,X
 2127 003a 1E97      		sbiw r26,13+1
 2128 003c EC17      		cp r30,r28
 2129 003e FD07      		cpc r31,r29
 2130 0040 01F4      		brne .L170
 2131 0042 8881      		ld r24,Y
 2132 0044 9981      		ldd r25,Y+1
 2133 0046 1E96      		adiw r26,13+1
 2134 0048 9C93      		st X,r25
 2135 004a 8E93      		st -X,r24
 2136 004c 1D97      		sbiw r26,13
 2137 004e 00C0      		rjmp .L171
 2138               	.L170:
 2139 0050 F093 0000 		sts (ppp_tmp_req)+1,r31
 2140 0054 E093 0000 		sts ppp_tmp_req,r30
 2141 0058 00C0      		rjmp .L172
 2142               	.L174:
 2143 005a 8081      		ld r24,Z
 2144 005c 9181      		ldd r25,Z+1
 2145 005e 0097      		sbiw r24,0
 2146 0060 01F0      		breq .L173
 2147 0062 8C17      		cp r24,r28
 2148 0064 9D07      		cpc r25,r29
 2149 0066 01F4      		brne .L173
 2150 0068 F093 0000 		sts (ppp_tmp_req)+1,r31
 2151 006c E093 0000 		sts ppp_tmp_req,r30
 2152 0070 8881      		ld r24,Y
 2153 0072 9981      		ldd r25,Y+1
 2154 0074 9183      		std Z+1,r25
 2155 0076 8083      		st Z,r24
 2156 0078 00C0      		rjmp .L171
 2157               	.L173:
 2158 007a FC01      		movw r30,r24
 2159               	.L172:
 2160 007c 3097      		sbiw r30,0
 2161 007e 01F4      		brne .L174
 2162 0080 1092 0000 		sts (ppp_tmp_req)+1,__zero_reg__
 2163 0084 1092 0000 		sts ppp_tmp_req,__zero_reg__
 2164               	.L171:
 2165 0088 1982      		std Y+1,__zero_reg__
 2166 008a 1882      		st Y,__zero_reg__
 2167               	.LSM255:
 2168 008c 8A81      		ldd r24,Y+2
 2169 008e 9B81      		ldd r25,Y+3
 2170 0090 0E94 0000 		call pbuf_free
 2171               	.LSM256:
 2172 0094 8CE0      		ldi r24,lo8(12)
 2173 0096 BE01      		movw r22,r28
 2174 0098 0E94 0000 		call lwbt_memp_free
 2175               	.LSM257:
 2176 009c F801      		movw r30,r16
 2177 009e 1482      		std Z+4,__zero_reg__
 2178               	.LSM258:
 2179 00a0 02A0      		ldd __tmp_reg__,Z+34
 2180 00a2 F3A1      		ldd r31,Z+35
 2181 00a4 E02D      		mov r30,__tmp_reg__
 2182 00a6 3097      		sbiw r30,0
 2183 00a8 01F0      		breq .L175
 2184 00aa 4F81      		ldd r20,Y+7
 2185 00ac 5885      		ldd r21,Y+8
 2186 00ae D801      		movw r26,r16
 2187 00b0 5E96      		adiw r26,30
 2188 00b2 8D91      		ld r24,X+
 2189 00b4 9C91      		ld r25,X
 2190 00b6 5F97      		sbiw r26,30+1
 2191 00b8 B801      		movw r22,r16
 2192 00ba 2AEF      		ldi r18,lo8(-6)
 2193 00bc 0995      		icall
 2194 00be 00C0      		rjmp .L168
 2195               	.L175:
 2196 00c0 F801      		movw r30,r16
 2197 00c2 848D      		ldd r24,Z+28
 2198 00c4 958D      		ldd r25,Z+29
 2199 00c6 0E94 0000 		call netif_remove
 2200 00ca C801      		movw r24,r16
 2201 00cc 0E94 0000 		call ppp_close
 2202 00d0 00C0      		rjmp .L168
 2203               	.L169:
 2204               	.LSM259:
 2205 00d2 6150      		subi r22,lo8(-(-1))
 2206 00d4 6E83      		std Y+6,r22
 2207               	.LSM260:
 2208 00d6 70E0      		ldi r23,lo8(0)
 2209 00d8 6F5F      		subi r22,lo8(-(1))
 2210 00da 7F4F      		sbci r23,hi8(-(1))
 2211 00dc 89E0      		ldi r24,lo8(9)
 2212 00de 90E0      		ldi r25,hi8(9)
 2213 00e0 0E94 0000 		call __divmodhi4
 2214 00e4 6D83      		std Y+5,r22
 2215               	.LSM261:
 2216 00e6 6A81      		ldd r22,Y+2
 2217 00e8 7B81      		ldd r23,Y+3
 2218 00ea C801      		movw r24,r16
 2219 00ec 0E94 0000 		call ppp_output
 2220               	.L168:
 2221               	.LSM262:
 2222 00f0 0990      		ld __tmp_reg__,Y+
 2223 00f2 D881      		ld r29,Y
 2224 00f4 C02D      		mov r28,__tmp_reg__
 2225               	.L167:
 2226 00f6 2097      		sbiw r28,0
 2227 00f8 01F0      		breq .+2
 2228 00fa 00C0      		rjmp .L176
 2229               	.LSM263:
 2230 00fc D801      		movw r26,r16
 2231 00fe 0D91      		ld r16,X+
 2232 0100 1C91      		ld r17,X
 2233               	.L166:
 2234 0102 0115      		cp r16,__zero_reg__
 2235 0104 1105      		cpc r17,__zero_reg__
 2236 0106 01F0      		breq .+2
 2237 0108 00C0      		rjmp .L177
 2238               	/* epilogue start */
 2239               	.LSM264:
 2240 010a DF91      		pop r29
 2241 010c CF91      		pop r28
 2242               	.LVL220:
 2243 010e 1F91      		pop r17
 2244 0110 0F91      		pop r16
 2245               	.LVL221:
 2246 0112 0895      		ret
 2247               	.LFE4:
 2249               		.section	.text.ppp_new,"ax",@progbits
 2250               	.global	ppp_new
 2252               	ppp_new:
 2253               	.LFB10:
 2254               	.LSM265:
 2255               	.LVL222:
 2256 0000 CF93      		push r28
 2257 0002 DF93      		push r29
 2258               	/* prologue: function */
 2259               	/* frame size = 0 */
 2260 0004 EC01      		movw r28,r24
 2261               	.LSM266:
 2262 0006 8BE0      		ldi r24,lo8(11)
 2263               	.LVL223:
 2264 0008 0E94 0000 		call lwbt_memp_malloc
 2265 000c FC01      		movw r30,r24
 2266               	.LSM267:
 2267 000e 0097      		sbiw r24,0
 2268               	.LVL224:
 2269 0010 01F0      		breq .L180
 2270               	.LSM268:
 2271 0012 86E2      		ldi r24,lo8(38)
 2272               	.LVL225:
 2273 0014 DF01      		movw r26,r30
 2274               	.LVL226:
 2275 0016 1D92      		st X+,__zero_reg__
 2276 0018 8A95      	        dec r24
 2277 001a 01F4      		brne .-6
 2278               	.LSM269:
 2279 001c D383      		std Z+3,r29
 2280 001e C283      		std Z+2,r28
 2281               	.LSM270:
 2282 0020 1482      		std Z+4,__zero_reg__
 2283               	.LSM271:
 2284 0022 8CED      		ldi r24,lo8(1500)
 2285 0024 95E0      		ldi r25,hi8(1500)
 2286 0026 918B      		std Z+17,r25
 2287 0028 808B      		std Z+16,r24
 2288               	.LSM272:
 2289 002a 8FEF      		ldi r24,lo8(-1)
 2290 002c 9FEF      		ldi r25,hi8(-1)
 2291 002e AFEF      		ldi r26,hlo8(-1)
 2292 0030 BFEF      		ldi r27,hhi8(-1)
 2293 0032 828B      		std Z+18,r24
 2294 0034 938B      		std Z+19,r25
 2295 0036 A48B      		std Z+20,r26
 2296 0038 B58B      		std Z+21,r27
 2297               	.LSM273:
 2298 003a 8DE1      		ldi r24,lo8(29)
 2299 003c 878B      		std Z+23,r24
 2300               	.LSM274:
 2301 003e 86E0      		ldi r24,lo8(6)
 2302 0040 828F      		std Z+26,r24
 2303               	.LVL227:
 2304               	.L180:
 2305               	.LSM275:
 2306 0042 CF01      		movw r24,r30
 2307               	.LVL228:
 2308               	/* epilogue start */
 2309 0044 DF91      		pop r29
 2310 0046 CF91      		pop r28
 2311               	.LVL229:
 2312 0048 0895      		ret
 2313               	.LFE10:
 2315               		.section	.text.ppp_process_ipcp,"ax",@progbits
 2316               	.global	ppp_process_ipcp
 2318               	ppp_process_ipcp:
 2319               	.LFB7:
 2320               	.LSM276:
 2321               	.LVL230:
 2322 0000 2F92      		push r2
 2323 0002 3F92      		push r3
 2324 0004 4F92      		push r4
 2325 0006 5F92      		push r5
 2326 0008 6F92      		push r6
 2327 000a 7F92      		push r7
 2328 000c 8F92      		push r8
 2329 000e 9F92      		push r9
 2330 0010 AF92      		push r10
 2331 0012 BF92      		push r11
 2332 0014 CF92      		push r12
 2333 0016 DF92      		push r13
 2334 0018 EF92      		push r14
 2335 001a FF92      		push r15
 2336 001c 0F93      		push r16
 2337 001e 1F93      		push r17
 2338 0020 CF93      		push r28
 2339 0022 DF93      		push r29
 2340               	/* prologue: function */
 2341               	/* frame size = 0 */
 2342 0024 6C01      		movw r12,r24
 2343 0026 4B01      		movw r8,r22
 2344               	.LSM277:
 2345 0028 DB01      		movw r26,r22
 2346 002a 1296      		adiw r26,2
 2347 002c 2D90      		ld r2,X+
 2348 002e 3C90      		ld r3,X
 2349 0030 1397      		sbiw r26,2+1
 2350               	.LVL231:
 2351               	.LSM278:
 2352 0032 CB01      		movw r24,r22
 2353               	.LVL232:
 2354 0034 6CEF      		ldi r22,lo8(-4)
 2355 0036 7FEF      		ldi r23,hi8(-4)
 2356               	.LVL233:
 2357 0038 0E94 0000 		call pbuf_header
 2358               	.LSM279:
 2359 003c F101      		movw r30,r2
 2360 003e 8281      		ldd r24,Z+2
 2361 0040 9381      		ldd r25,Z+3
 2362 0042 0E94 0000 		call ntohs
 2363 0046 D101      		movw r26,r2
 2364 0048 1396      		adiw r26,2+1
 2365 004a 9C93      		st X,r25
 2366 004c 8E93      		st -X,r24
 2367 004e 1297      		sbiw r26,2
 2368               	.LSM280:
 2369 0050 2CEF      		ldi r18,lo8(-4)
 2370 0052 422E      		mov r4,r18
 2371 0054 2FEF      		ldi r18,hi8(-4)
 2372 0056 522E      		mov r5,r18
 2373               	.LVL234:
 2374 0058 480E      		add r4,r24
 2375 005a 591E      		adc r5,r25
 2376               	.LSM281:
 2377 005c 9C91      		ld r25,X
 2378 005e 892F      		mov r24,r25
 2379 0060 8250      		subi r24,lo8(-(-2))
 2380 0062 8330      		cpi r24,lo8(3)
 2381 0064 00F0      		brlo .L183
 2382 0066 9730      		cpi r25,lo8(7)
 2383 0068 01F0      		breq .L183
 2384 006a 9630      		cpi r25,lo8(6)
 2385 006c 01F4      		brne .L184
 2386               	.L183:
 2387               	.LSM282:
 2388 006e F601      		movw r30,r12
 2389 0070 C585      		ldd r28,Z+13
 2390 0072 D685      		ldd r29,Z+14
 2391               	.LVL235:
 2392 0074 00C0      		rjmp .L185
 2393               	.L192:
 2394               	.LSM283:
 2395 0076 D101      		movw r26,r2
 2396 0078 1196      		adiw r26,1
 2397 007a 9C91      		ld r25,X
 2398 007c 8C81      		ldd r24,Y+4
 2399 007e 9817      		cp r25,r24
 2400 0080 01F4      		brne .L186
 2401               	.LSM284:
 2402 0082 F601      		movw r30,r12
 2403 0084 8585      		ldd r24,Z+13
 2404 0086 9685      		ldd r25,Z+14
 2405 0088 8C17      		cp r24,r28
 2406 008a 9D07      		cpc r25,r29
 2407 008c 01F4      		brne .L190
 2408 008e 8881      		ld r24,Y
 2409 0090 9981      		ldd r25,Y+1
 2410 0092 9687      		std Z+14,r25
 2411 0094 8587      		std Z+13,r24
 2412 0096 00C0      		rjmp .L188
 2413               	.L191:
 2414 0098 8081      		ld r24,Z
 2415 009a 9181      		ldd r25,Z+1
 2416 009c 0097      		sbiw r24,0
 2417 009e 01F0      		breq .L190
 2418 00a0 8C17      		cp r24,r28
 2419 00a2 9D07      		cpc r25,r29
 2420 00a4 01F4      		brne .L190
 2421 00a6 8881      		ld r24,Y
 2422 00a8 9981      		ldd r25,Y+1
 2423 00aa 9183      		std Z+1,r25
 2424 00ac 8083      		st Z,r24
 2425 00ae 00C0      		rjmp .L188
 2426               	.L190:
 2427 00b0 9093 0000 		sts (ppp_tmp_req)+1,r25
 2428 00b4 8093 0000 		sts ppp_tmp_req,r24
 2429 00b8 E091 0000 		lds r30,ppp_tmp_req
 2430 00bc F091 0000 		lds r31,(ppp_tmp_req)+1
 2431 00c0 3097      		sbiw r30,0
 2432 00c2 01F4      		brne .L191
 2433               	.L188:
 2434 00c4 1982      		std Y+1,__zero_reg__
 2435 00c6 1882      		st Y,__zero_reg__
 2436               	.LSM285:
 2437 00c8 8A81      		ldd r24,Y+2
 2438 00ca 9B81      		ldd r25,Y+3
 2439 00cc 0E94 0000 		call pbuf_free
 2440               	.LSM286:
 2441 00d0 8CE0      		ldi r24,lo8(12)
 2442 00d2 BE01      		movw r22,r28
 2443 00d4 0E94 0000 		call lwbt_memp_free
 2444               	.L186:
 2445               	.LSM287:
 2446 00d8 0990      		ld __tmp_reg__,Y+
 2447 00da D881      		ld r29,Y
 2448 00dc C02D      		mov r28,__tmp_reg__
 2449               	.L185:
 2450 00de 2097      		sbiw r28,0
 2451 00e0 01F4      		brne .L192
 2452               	.L184:
 2453               	.LSM288:
 2454 00e2 D101      		movw r26,r2
 2455 00e4 8C91      		ld r24,X
 2456 00e6 8430      		cpi r24,lo8(4)
 2457 00e8 01F4      		brne .+2
 2458 00ea 00C0      		rjmp .L197
 2459 00ec 8530      		cpi r24,lo8(5)
 2460 00ee 00F4      		brsh .L201
 2461 00f0 8230      		cpi r24,lo8(2)
 2462 00f2 01F4      		brne .+2
 2463 00f4 00C0      		rjmp .L195
 2464 00f6 8330      		cpi r24,lo8(3)
 2465 00f8 00F0      		brlo .+2
 2466 00fa 00C0      		rjmp .L196
 2467 00fc 8130      		cpi r24,lo8(1)
 2468 00fe 01F0      		breq .+2
 2469 0100 00C0      		rjmp .L193
 2470 0102 00C0      		rjmp .L316
 2471               	.L201:
 2472 0104 8630      		cpi r24,lo8(6)
 2473 0106 01F4      		brne .+2
 2474 0108 00C0      		rjmp .L199
 2475 010a 8630      		cpi r24,lo8(6)
 2476 010c 00F4      		brsh .+2
 2477 010e 00C0      		rjmp .L198
 2478 0110 8730      		cpi r24,lo8(7)
 2479 0112 01F0      		breq .+2
 2480 0114 00C0      		rjmp .L193
 2481 0116 00C0      		rjmp .L317
 2482               	.L316:
 2483               	.LSM289:
 2484 0118 F601      		movw r30,r12
 2485 011a 8481      		ldd r24,Z+4
 2486 011c 8330      		cpi r24,lo8(3)
 2487 011e 00F4      		brsh .+2
 2488 0120 00C0      		rjmp .L276
 2489 0122 8630      		cpi r24,lo8(6)
 2490 0124 01F4      		brne .+2
 2491 0126 00C0      		rjmp .L276
 2492               	.L203:
 2493               	.LSM290:
 2494 0128 84E0      		ldi r24,lo8(4)
 2495 012a D601      		movw r26,r12
 2496 012c 1496      		adiw r26,4
 2497 012e 8C93      		st X,r24
 2498 0130 C0E0      		ldi r28,lo8(0)
 2499 0132 D0E0      		ldi r29,hi8(0)
 2500               	.LVL236:
 2501 0134 02E0      		ldi r16,lo8(2)
 2502 0136 702E      		mov r7,r16
 2503               	.LVL237:
 2504 0138 6624      		clr r6
 2505               	.LVL238:
 2506 013a 00C0      		rjmp .L205
 2507               	.LVL239:
 2508               	.L252:
 2509               	.LSM291:
 2510 013c F401      		movw r30,r8
 2511 013e A280      		ldd r10,Z+2
 2512 0140 B380      		ldd r11,Z+3
 2513               	.LSM292:
 2514 0142 D501      		movw r26,r10
 2515 0144 8C91      		ld r24,X
 2516 0146 8238      		cpi r24,lo8(-126)
 2517 0148 01F4      		brne .+2
 2518 014a 00C0      		rjmp .L209
 2519 014c 8338      		cpi r24,lo8(-125)
 2520 014e 00F4      		brsh .L212
 2521 0150 8330      		cpi r24,lo8(3)
 2522 0152 01F0      		breq .L207
 2523 0154 8138      		cpi r24,lo8(-127)
 2524 0156 01F0      		breq .+2
 2525 0158 00C0      		rjmp .L206
 2526 015a 00C0      		rjmp .L318
 2527               	.L212:
 2528 015c 8338      		cpi r24,lo8(-125)
 2529 015e 01F4      		brne .+2
 2530 0160 00C0      		rjmp .L210
 2531 0162 8438      		cpi r24,lo8(-124)
 2532 0164 01F0      		breq .+2
 2533 0166 00C0      		rjmp .L206
 2534 0168 00C0      		rjmp .L319
 2535               	.L207:
 2536               	.LSM293:
 2537 016a F601      		movw r30,r12
 2538 016c 8689      		ldd r24,Z+22
 2539 016e 048C      		ldd __tmp_reg__,Z+28
 2540 0170 F58D      		ldd r31,Z+29
 2541 0172 E02D      		mov r30,__tmp_reg__
 2542 0174 D501      		movw r26,r10
 2543 0176 1296      		adiw r26,2
 2544 0178 2D91      		ld r18,X+
 2545 017a 3D91      		ld r19,X+
 2546 017c 4D91      		ld r20,X+
 2547 017e 5C91      		ld r21,X
 2548 0180 1597      		sbiw r26,2+3
 2549 0182 80FF      		sbrs r24,0
 2550 0184 00C0      		rjmp .L213
 2551               	.LSM294:
 2552 0186 2287      		std Z+10,r18
 2553 0188 3387      		std Z+11,r19
 2554 018a 4487      		std Z+12,r20
 2555 018c 5587      		std Z+13,r21
 2556 018e 00C0      		rjmp .L311
 2557               	.L213:
 2558               	.LSM295:
 2559 0190 8285      		ldd r24,Z+10
 2560 0192 9385      		ldd r25,Z+11
 2561 0194 A485      		ldd r26,Z+12
 2562 0196 B585      		ldd r27,Z+13
 2563 0198 2817      		cp r18,r24
 2564 019a 3907      		cpc r19,r25
 2565 019c 4A07      		cpc r20,r26
 2566 019e 5B07      		cpc r21,r27
 2567 01a0 01F4      		brne .L218
 2568               	.L311:
 2569               	.LSM296:
 2570 01a2 B2E0      		ldi r27,lo8(2)
 2571 01a4 7B16      		cp r7,r27
 2572 01a6 01F0      		breq .+2
 2573 01a8 00C0      		rjmp .L214
 2574               	.LSM297:
 2575 01aa F501      		movw r30,r10
 2576 01ac 6181      		ldd r22,Z+1
 2577 01ae 83E0      		ldi r24,lo8(3)
 2578 01b0 70E0      		ldi r23,lo8(0)
 2579 01b2 40E0      		ldi r20,lo8(0)
 2580 01b4 0E94 0000 		call pbuf_alloc
 2581 01b8 8C01      		movw r16,r24
 2582               	.LVL240:
 2583               	.LSM298:
 2584 01ba D501      		movw r26,r10
 2585 01bc 1196      		adiw r26,1
 2586 01be 4C91      		ld r20,X
 2587 01c0 F401      		movw r30,r8
 2588 01c2 6281      		ldd r22,Z+2
 2589 01c4 7381      		ldd r23,Z+3
 2590 01c6 DC01      		movw r26,r24
 2591 01c8 1296      		adiw r26,2
 2592 01ca 8C91      		ld r24,X
 2593 01cc 1297      		sbiw r26,2
 2594 01ce 1396      		adiw r26,3
 2595 01d0 9C91      		ld r25,X
 2596 01d2 50E0      		ldi r21,lo8(0)
 2597 01d4 0E94 0000 		call memcpy
 2598 01d8 00C0      		rjmp .L297
 2599               	.LVL241:
 2600               	.L218:
 2601               	.LSM299:
 2602 01da B2E0      		ldi r27,lo8(2)
 2603 01dc 7B16      		cp r7,r27
 2604 01de 01F4      		brne .L221
 2605               	.LSM300:
 2606 01e0 2097      		sbiw r28,0
 2607 01e2 01F0      		breq .L222
 2608               	.LSM301:
 2609 01e4 CE01      		movw r24,r28
 2610 01e6 0E94 0000 		call pbuf_free
 2611               	.L222:
 2612               	.LSM302:
 2613 01ea F501      		movw r30,r10
 2614 01ec 6181      		ldd r22,Z+1
 2615 01ee 83E0      		ldi r24,lo8(3)
 2616 01f0 70E0      		ldi r23,lo8(0)
 2617 01f2 40E0      		ldi r20,lo8(0)
 2618 01f4 0E94 0000 		call pbuf_alloc
 2619 01f8 EC01      		movw r28,r24
 2620               	.LSM303:
 2621 01fa AA81      		ldd r26,Y+2
 2622 01fc BB81      		ldd r27,Y+3
 2623 01fe F401      		movw r30,r8
 2624 0200 8281      		ldd r24,Z+2
 2625 0202 9381      		ldd r25,Z+3
 2626 0204 FC01      		movw r30,r24
 2627 0206 8081      		ld r24,Z
 2628 0208 9181      		ldd r25,Z+1
 2629 020a 8D93      		st X+,r24
 2630 020c 9C93      		st X,r25
 2631               	.LSM304:
 2632 020e 2A81      		ldd r18,Y+2
 2633 0210 3B81      		ldd r19,Y+3
 2634 0212 D601      		movw r26,r12
 2635 0214 5C96      		adiw r26,28
 2636 0216 ED91      		ld r30,X+
 2637 0218 FC91      		ld r31,X
 2638 021a 5D97      		sbiw r26,28+1
 2639 021c 8285      		ldd r24,Z+10
 2640 021e 9385      		ldd r25,Z+11
 2641 0220 A485      		ldd r26,Z+12
 2642 0222 B585      		ldd r27,Z+13
 2643 0224 F901      		movw r30,r18
 2644 0226 8283      		std Z+2,r24
 2645 0228 9383      		std Z+3,r25
 2646 022a A483      		std Z+4,r26
 2647 022c B583      		std Z+5,r27
 2648 022e 13E0      		ldi r17,lo8(3)
 2649 0230 712E      		mov r7,r17
 2650 0232 00C0      		rjmp .L214
 2651               	.L221:
 2652               	.LSM305:
 2653 0234 F3E0      		ldi r31,lo8(3)
 2654 0236 7F16      		cp r7,r31
 2655 0238 01F0      		breq .+2
 2656 023a 00C0      		rjmp .L214
 2657               	.LSM306:
 2658 023c D501      		movw r26,r10
 2659 023e 1196      		adiw r26,1
 2660 0240 6C91      		ld r22,X
 2661 0242 83E0      		ldi r24,lo8(3)
 2662 0244 70E0      		ldi r23,lo8(0)
 2663 0246 40E0      		ldi r20,lo8(0)
 2664 0248 0E94 0000 		call pbuf_alloc
 2665 024c 8C01      		movw r16,r24
 2666               	.LSM307:
 2667 024e FC01      		movw r30,r24
 2668 0250 A281      		ldd r26,Z+2
 2669 0252 B381      		ldd r27,Z+3
 2670 0254 F401      		movw r30,r8
 2671 0256 8281      		ldd r24,Z+2
 2672 0258 9381      		ldd r25,Z+3
 2673 025a FC01      		movw r30,r24
 2674 025c 8081      		ld r24,Z
 2675 025e 9181      		ldd r25,Z+1
 2676 0260 8D93      		st X+,r24
 2677 0262 9C93      		st X,r25
 2678               	.LSM308:
 2679 0264 D801      		movw r26,r16
 2680 0266 1296      		adiw r26,2
 2681 0268 2D91      		ld r18,X+
 2682 026a 3C91      		ld r19,X
 2683 026c 1397      		sbiw r26,2+1
 2684 026e D601      		movw r26,r12
 2685 0270 5C96      		adiw r26,28
 2686 0272 ED91      		ld r30,X+
 2687 0274 FC91      		ld r31,X
 2688 0276 5D97      		sbiw r26,28+1
 2689 0278 8285      		ldd r24,Z+10
 2690 027a 9385      		ldd r25,Z+11
 2691 027c A485      		ldd r26,Z+12
 2692 027e B585      		ldd r27,Z+13
 2693 0280 F901      		movw r30,r18
 2694 0282 8283      		std Z+2,r24
 2695 0284 9383      		std Z+3,r25
 2696 0286 A483      		std Z+4,r26
 2697 0288 B583      		std Z+5,r27
 2698               	.L297:
 2699               	.LSM309:
 2700 028a 2097      		sbiw r28,0
 2701 028c 01F4      		brne .L223
 2702 028e E801      		movw r28,r16
 2703 0290 00C0      		rjmp .L214
 2704               	.L223:
 2705               	.LSM310:
 2706 0292 CE01      		movw r24,r28
 2707 0294 B801      		movw r22,r16
 2708 0296 0E94 0000 		call pbuf_chain
 2709               	.LSM311:
 2710 029a C801      		movw r24,r16
 2711 029c 0E94 0000 		call pbuf_free
 2712 02a0 00C0      		rjmp .L214
 2713               	.LVL242:
 2714               	.L318:
 2715               	.LSM312:
 2716 02a2 D501      		movw r26,r10
 2717 02a4 1296      		adiw r26,2
 2718 02a6 ED90      		ld r14,X+
 2719 02a8 FD90      		ld r15,X+
 2720 02aa 0D91      		ld r16,X+
 2721 02ac 1C91      		ld r17,X
 2722 02ae 1597      		sbiw r26,2+3
 2723 02b0 61E0      		ldi r22,lo8(-2098199807)
 2724 02b2 73E0      		ldi r23,hi8(-2098199807)
 2725 02b4 80EF      		ldi r24,hlo8(-2098199807)
 2726 02b6 92E8      		ldi r25,hhi8(-2098199807)
 2727 02b8 0E94 0000 		call htonl
 2728 02bc E616      		cp r14,r22
 2729 02be F706      		cpc r15,r23
 2730 02c0 0807      		cpc r16,r24
 2731 02c2 1907      		cpc r17,r25
 2732 02c4 01F4      		brne .+2
 2733 02c6 00C0      		rjmp .L313
 2734               	.L224:
 2735               	.LSM313:
 2736 02c8 B2E0      		ldi r27,lo8(2)
 2737 02ca 7B16      		cp r7,r27
 2738 02cc 01F4      		brne .L227
 2739               	.LSM314:
 2740 02ce 2097      		sbiw r28,0
 2741 02d0 01F0      		breq .L228
 2742               	.LSM315:
 2743 02d2 CE01      		movw r24,r28
 2744 02d4 0E94 0000 		call pbuf_free
 2745               	.L228:
 2746               	.LSM316:
 2747 02d8 F501      		movw r30,r10
 2748 02da 6181      		ldd r22,Z+1
 2749 02dc 83E0      		ldi r24,lo8(3)
 2750 02de 70E0      		ldi r23,lo8(0)
 2751 02e0 40E0      		ldi r20,lo8(0)
 2752 02e2 0E94 0000 		call pbuf_alloc
 2753 02e6 EC01      		movw r28,r24
 2754               	.LSM317:
 2755 02e8 AA81      		ldd r26,Y+2
 2756 02ea BB81      		ldd r27,Y+3
 2757 02ec F401      		movw r30,r8
 2758 02ee 8281      		ldd r24,Z+2
 2759 02f0 9381      		ldd r25,Z+3
 2760 02f2 FC01      		movw r30,r24
 2761 02f4 8081      		ld r24,Z
 2762 02f6 9181      		ldd r25,Z+1
 2763 02f8 8D93      		st X+,r24
 2764 02fa 9C93      		st X,r25
 2765               	.LSM318:
 2766 02fc 0A81      		ldd r16,Y+2
 2767 02fe 1B81      		ldd r17,Y+3
 2768               	.LVL243:
 2769 0300 61E0      		ldi r22,lo8(-2098199807)
 2770 0302 73E0      		ldi r23,hi8(-2098199807)
 2771 0304 80EF      		ldi r24,hlo8(-2098199807)
 2772 0306 92E8      		ldi r25,hhi8(-2098199807)
 2773 0308 00C0      		rjmp .L287
 2774               	.LVL244:
 2775               	.L227:
 2776               	.LSM319:
 2777 030a B3E0      		ldi r27,lo8(3)
 2778 030c 7B16      		cp r7,r27
 2779 030e 01F0      		breq .+2
 2780 0310 00C0      		rjmp .L217
 2781               	.LSM320:
 2782 0312 F501      		movw r30,r10
 2783 0314 6181      		ldd r22,Z+1
 2784 0316 83E0      		ldi r24,lo8(3)
 2785 0318 70E0      		ldi r23,lo8(0)
 2786 031a 40E0      		ldi r20,lo8(0)
 2787 031c 0E94 0000 		call pbuf_alloc
 2788 0320 7C01      		movw r14,r24
 2789               	.LVL245:
 2790               	.LSM321:
 2791 0322 FC01      		movw r30,r24
 2792 0324 A281      		ldd r26,Z+2
 2793 0326 B381      		ldd r27,Z+3
 2794 0328 F401      		movw r30,r8
 2795 032a 8281      		ldd r24,Z+2
 2796 032c 9381      		ldd r25,Z+3
 2797 032e FC01      		movw r30,r24
 2798 0330 8081      		ld r24,Z
 2799 0332 9181      		ldd r25,Z+1
 2800 0334 8D93      		st X+,r24
 2801 0336 9C93      		st X,r25
 2802               	.LSM322:
 2803 0338 D701      		movw r26,r14
 2804 033a 1296      		adiw r26,2
 2805 033c 0D91      		ld r16,X+
 2806 033e 1C91      		ld r17,X
 2807 0340 1397      		sbiw r26,2+1
 2808 0342 61E0      		ldi r22,lo8(-2098199807)
 2809 0344 73E0      		ldi r23,hi8(-2098199807)
 2810 0346 80EF      		ldi r24,hlo8(-2098199807)
 2811 0348 92E8      		ldi r25,hhi8(-2098199807)
 2812 034a 00C0      		rjmp .L300
 2813               	.LVL246:
 2814               	.L209:
 2815               	.LSM323:
 2816 034c D501      		movw r26,r10
 2817 034e 1296      		adiw r26,2
 2818 0350 ED90      		ld r14,X+
 2819 0352 FD90      		ld r15,X+
 2820 0354 0D91      		ld r16,X+
 2821 0356 1C91      		ld r17,X
 2822 0358 1597      		sbiw r26,2+3
 2823 035a 6EE5      		ldi r22,lo8(-2098189730)
 2824 035c 7AE2      		ldi r23,hi8(-2098189730)
 2825 035e 80EF      		ldi r24,hlo8(-2098189730)
 2826 0360 92E8      		ldi r25,hhi8(-2098189730)
 2827 0362 0E94 0000 		call htonl
 2828 0366 E616      		cp r14,r22
 2829 0368 F706      		cpc r15,r23
 2830 036a 0807      		cpc r16,r24
 2831 036c 1907      		cpc r17,r25
 2832 036e 01F4      		brne .+2
 2833 0370 00C0      		rjmp .L313
 2834               	.L230:
 2835               	.LSM324:
 2836 0372 B2E0      		ldi r27,lo8(2)
 2837 0374 7B16      		cp r7,r27
 2838 0376 01F4      		brne .L233
 2839               	.LSM325:
 2840 0378 2097      		sbiw r28,0
 2841 037a 01F0      		breq .L234
 2842               	.LSM326:
 2843 037c CE01      		movw r24,r28
 2844 037e 0E94 0000 		call pbuf_free
 2845               	.L234:
 2846               	.LSM327:
 2847 0382 F501      		movw r30,r10
 2848 0384 6181      		ldd r22,Z+1
 2849 0386 83E0      		ldi r24,lo8(3)
 2850 0388 70E0      		ldi r23,lo8(0)
 2851 038a 40E0      		ldi r20,lo8(0)
 2852 038c 0E94 0000 		call pbuf_alloc
 2853 0390 EC01      		movw r28,r24
 2854               	.LSM328:
 2855 0392 AA81      		ldd r26,Y+2
 2856 0394 BB81      		ldd r27,Y+3
 2857 0396 F401      		movw r30,r8
 2858 0398 8281      		ldd r24,Z+2
 2859 039a 9381      		ldd r25,Z+3
 2860 039c FC01      		movw r30,r24
 2861 039e 8081      		ld r24,Z
 2862 03a0 9181      		ldd r25,Z+1
 2863 03a2 8D93      		st X+,r24
 2864 03a4 9C93      		st X,r25
 2865               	.LSM329:
 2866 03a6 0A81      		ldd r16,Y+2
 2867 03a8 1B81      		ldd r17,Y+3
 2868               	.LVL247:
 2869 03aa 6EE5      		ldi r22,lo8(-2098189730)
 2870 03ac 7AE2      		ldi r23,hi8(-2098189730)
 2871 03ae 80EF      		ldi r24,hlo8(-2098189730)
 2872 03b0 92E8      		ldi r25,hhi8(-2098189730)
 2873 03b2 00C0      		rjmp .L287
 2874               	.LVL248:
 2875               	.L233:
 2876               	.LSM330:
 2877 03b4 B3E0      		ldi r27,lo8(3)
 2878 03b6 7B16      		cp r7,r27
 2879 03b8 01F0      		breq .+2
 2880 03ba 00C0      		rjmp .L217
 2881               	.LSM331:
 2882 03bc F501      		movw r30,r10
 2883 03be 6181      		ldd r22,Z+1
 2884 03c0 83E0      		ldi r24,lo8(3)
 2885 03c2 70E0      		ldi r23,lo8(0)
 2886 03c4 40E0      		ldi r20,lo8(0)
 2887 03c6 0E94 0000 		call pbuf_alloc
 2888 03ca 7C01      		movw r14,r24
 2889               	.LVL249:
 2890               	.LSM332:
 2891 03cc FC01      		movw r30,r24
 2892 03ce A281      		ldd r26,Z+2
 2893 03d0 B381      		ldd r27,Z+3
 2894 03d2 F401      		movw r30,r8
 2895 03d4 8281      		ldd r24,Z+2
 2896 03d6 9381      		ldd r25,Z+3
 2897 03d8 FC01      		movw r30,r24
 2898 03da 8081      		ld r24,Z
 2899 03dc 9181      		ldd r25,Z+1
 2900 03de 8D93      		st X+,r24
 2901 03e0 9C93      		st X,r25
 2902               	.LSM333:
 2903 03e2 D701      		movw r26,r14
 2904 03e4 1296      		adiw r26,2
 2905 03e6 0D91      		ld r16,X+
 2906 03e8 1C91      		ld r17,X
 2907 03ea 1397      		sbiw r26,2+1
 2908 03ec 6EE5      		ldi r22,lo8(-2098189730)
 2909 03ee 7AE2      		ldi r23,hi8(-2098189730)
 2910 03f0 80EF      		ldi r24,hlo8(-2098189730)
 2911 03f2 92E8      		ldi r25,hhi8(-2098189730)
 2912 03f4 00C0      		rjmp .L300
 2913               	.LVL250:
 2914               	.L210:
 2915               	.LSM334:
 2916 03f6 D501      		movw r26,r10
 2917 03f8 1296      		adiw r26,2
 2918 03fa ED90      		ld r14,X+
 2919 03fc FD90      		ld r15,X+
 2920 03fe 0D91      		ld r16,X+
 2921 0400 1C91      		ld r17,X
 2922 0402 1597      		sbiw r26,2+3
 2923 0404 62E0      		ldi r22,lo8(-2098195710)
 2924 0406 73E1      		ldi r23,hi8(-2098195710)
 2925 0408 80EF      		ldi r24,hlo8(-2098195710)
 2926 040a 92E8      		ldi r25,hhi8(-2098195710)
 2927 040c 0E94 0000 		call htonl
 2928 0410 E616      		cp r14,r22
 2929 0412 F706      		cpc r15,r23
 2930 0414 0807      		cpc r16,r24
 2931 0416 1907      		cpc r17,r25
 2932 0418 01F4      		brne .+2
 2933 041a 00C0      		rjmp .L313
 2934               	.L236:
 2935               	.LSM335:
 2936 041c B2E0      		ldi r27,lo8(2)
 2937 041e 7B16      		cp r7,r27
 2938 0420 01F4      		brne .L239
 2939               	.LSM336:
 2940 0422 2097      		sbiw r28,0
 2941 0424 01F0      		breq .L240
 2942               	.LSM337:
 2943 0426 CE01      		movw r24,r28
 2944 0428 0E94 0000 		call pbuf_free
 2945               	.L240:
 2946               	.LSM338:
 2947 042c F501      		movw r30,r10
 2948 042e 6181      		ldd r22,Z+1
 2949 0430 83E0      		ldi r24,lo8(3)
 2950 0432 70E0      		ldi r23,lo8(0)
 2951 0434 40E0      		ldi r20,lo8(0)
 2952 0436 0E94 0000 		call pbuf_alloc
 2953 043a EC01      		movw r28,r24
 2954               	.LSM339:
 2955 043c AA81      		ldd r26,Y+2
 2956 043e BB81      		ldd r27,Y+3
 2957 0440 F401      		movw r30,r8
 2958 0442 8281      		ldd r24,Z+2
 2959 0444 9381      		ldd r25,Z+3
 2960 0446 FC01      		movw r30,r24
 2961 0448 8081      		ld r24,Z
 2962 044a 9181      		ldd r25,Z+1
 2963 044c 8D93      		st X+,r24
 2964 044e 9C93      		st X,r25
 2965               	.LSM340:
 2966 0450 0A81      		ldd r16,Y+2
 2967 0452 1B81      		ldd r17,Y+3
 2968               	.LVL251:
 2969 0454 62E0      		ldi r22,lo8(-2098195710)
 2970 0456 73E1      		ldi r23,hi8(-2098195710)
 2971 0458 80EF      		ldi r24,hlo8(-2098195710)
 2972 045a 92E8      		ldi r25,hhi8(-2098195710)
 2973 045c 00C0      		rjmp .L287
 2974               	.LVL252:
 2975               	.L239:
 2976               	.LSM341:
 2977 045e B3E0      		ldi r27,lo8(3)
 2978 0460 7B16      		cp r7,r27
 2979 0462 01F0      		breq .+2
 2980 0464 00C0      		rjmp .L217
 2981               	.LSM342:
 2982 0466 F501      		movw r30,r10
 2983 0468 6181      		ldd r22,Z+1
 2984 046a 83E0      		ldi r24,lo8(3)
 2985 046c 70E0      		ldi r23,lo8(0)
 2986 046e 40E0      		ldi r20,lo8(0)
 2987 0470 0E94 0000 		call pbuf_alloc
 2988 0474 7C01      		movw r14,r24
 2989               	.LVL253:
 2990               	.LSM343:
 2991 0476 FC01      		movw r30,r24
 2992 0478 A281      		ldd r26,Z+2
 2993 047a B381      		ldd r27,Z+3
 2994 047c F401      		movw r30,r8
 2995 047e 8281      		ldd r24,Z+2
 2996 0480 9381      		ldd r25,Z+3
 2997 0482 FC01      		movw r30,r24
 2998 0484 8081      		ld r24,Z
 2999 0486 9181      		ldd r25,Z+1
 3000 0488 8D93      		st X+,r24
 3001 048a 9C93      		st X,r25
 3002               	.LSM344:
 3003 048c D701      		movw r26,r14
 3004 048e 1296      		adiw r26,2
 3005 0490 0D91      		ld r16,X+
 3006 0492 1C91      		ld r17,X
 3007 0494 1397      		sbiw r26,2+1
 3008 0496 62E0      		ldi r22,lo8(-2098195710)
 3009 0498 73E1      		ldi r23,hi8(-2098195710)
 3010 049a 80EF      		ldi r24,hlo8(-2098195710)
 3011 049c 92E8      		ldi r25,hhi8(-2098195710)
 3012 049e 00C0      		rjmp .L300
 3013               	.LVL254:
 3014               	.L319:
 3015               	.LSM345:
 3016 04a0 D501      		movw r26,r10
 3017 04a2 1296      		adiw r26,2
 3018 04a4 ED90      		ld r14,X+
 3019 04a6 FD90      		ld r15,X+
 3020 04a8 0D91      		ld r16,X+
 3021 04aa 1C91      		ld r17,X
 3022 04ac 1597      		sbiw r26,2+3
 3023 04ae 6FE5      		ldi r22,lo8(-2098189729)
 3024 04b0 7AE2      		ldi r23,hi8(-2098189729)
 3025 04b2 80EF      		ldi r24,hlo8(-2098189729)
 3026 04b4 92E8      		ldi r25,hhi8(-2098189729)
 3027 04b6 0E94 0000 		call htonl
 3028 04ba E616      		cp r14,r22
 3029 04bc F706      		cpc r15,r23
 3030 04be 0807      		cpc r16,r24
 3031 04c0 1907      		cpc r17,r25
 3032 04c2 01F4      		brne .L242
 3033               	.L313:
 3034               	.LSM346:
 3035 04c4 B2E0      		ldi r27,lo8(2)
 3036 04c6 7B16      		cp r7,r27
 3037 04c8 01F0      		breq .+2
 3038 04ca 00C0      		rjmp .L217
 3039               	.LSM347:
 3040 04cc F501      		movw r30,r10
 3041 04ce 6181      		ldd r22,Z+1
 3042 04d0 83E0      		ldi r24,lo8(3)
 3043 04d2 70E0      		ldi r23,lo8(0)
 3044 04d4 40E0      		ldi r20,lo8(0)
 3045 04d6 0E94 0000 		call pbuf_alloc
 3046 04da 8C01      		movw r16,r24
 3047               	.LVL255:
 3048               	.LSM348:
 3049 04dc D501      		movw r26,r10
 3050 04de 1196      		adiw r26,1
 3051 04e0 4C91      		ld r20,X
 3052 04e2 F401      		movw r30,r8
 3053 04e4 6281      		ldd r22,Z+2
 3054 04e6 7381      		ldd r23,Z+3
 3055 04e8 DC01      		movw r26,r24
 3056 04ea 1296      		adiw r26,2
 3057 04ec 8C91      		ld r24,X
 3058 04ee 1297      		sbiw r26,2
 3059 04f0 1396      		adiw r26,3
 3060 04f2 9C91      		ld r25,X
 3061 04f4 00C0      		rjmp .L304
 3062               	.L242:
 3063               	.LSM349:
 3064 04f6 B2E0      		ldi r27,lo8(2)
 3065 04f8 7B16      		cp r7,r27
 3066 04fa 01F4      		brne .L245
 3067               	.LSM350:
 3068 04fc 2097      		sbiw r28,0
 3069 04fe 01F0      		breq .L246
 3070               	.LSM351:
 3071 0500 CE01      		movw r24,r28
 3072 0502 0E94 0000 		call pbuf_free
 3073               	.L246:
 3074               	.LSM352:
 3075 0506 F501      		movw r30,r10
 3076 0508 6181      		ldd r22,Z+1
 3077 050a 83E0      		ldi r24,lo8(3)
 3078 050c 70E0      		ldi r23,lo8(0)
 3079 050e 40E0      		ldi r20,lo8(0)
 3080 0510 0E94 0000 		call pbuf_alloc
 3081 0514 EC01      		movw r28,r24
 3082               	.LSM353:
 3083 0516 AA81      		ldd r26,Y+2
 3084 0518 BB81      		ldd r27,Y+3
 3085 051a F401      		movw r30,r8
 3086 051c 8281      		ldd r24,Z+2
 3087 051e 9381      		ldd r25,Z+3
 3088 0520 FC01      		movw r30,r24
 3089 0522 8081      		ld r24,Z
 3090 0524 9181      		ldd r25,Z+1
 3091 0526 8D93      		st X+,r24
 3092 0528 9C93      		st X,r25
 3093               	.LSM354:
 3094 052a 0A81      		ldd r16,Y+2
 3095 052c 1B81      		ldd r17,Y+3
 3096               	.LVL256:
 3097 052e 6FE5      		ldi r22,lo8(-2098189729)
 3098 0530 7AE2      		ldi r23,hi8(-2098189729)
 3099 0532 80EF      		ldi r24,hlo8(-2098189729)
 3100 0534 92E8      		ldi r25,hhi8(-2098189729)
 3101               	.L287:
 3102 0536 0E94 0000 		call htonl
 3103 053a D801      		movw r26,r16
 3104 053c 1296      		adiw r26,2
 3105 053e 6D93      		st X+,r22
 3106 0540 7D93      		st X+,r23
 3107 0542 8D93      		st X+,r24
 3108 0544 9C93      		st X,r25
 3109 0546 1597      		sbiw r26,2+3
 3110 0548 B3E0      		ldi r27,lo8(3)
 3111 054a 7B2E      		mov r7,r27
 3112 054c 00C0      		rjmp .L217
 3113               	.LVL257:
 3114               	.L245:
 3115               	.LSM355:
 3116 054e B3E0      		ldi r27,lo8(3)
 3117 0550 7B16      		cp r7,r27
 3118 0552 01F0      		breq .+2
 3119 0554 00C0      		rjmp .L217
 3120               	.LSM356:
 3121 0556 F501      		movw r30,r10
 3122 0558 6181      		ldd r22,Z+1
 3123 055a 83E0      		ldi r24,lo8(3)
 3124 055c 70E0      		ldi r23,lo8(0)
 3125 055e 40E0      		ldi r20,lo8(0)
 3126 0560 0E94 0000 		call pbuf_alloc
 3127 0564 7C01      		movw r14,r24
 3128               	.LVL258:
 3129               	.LSM357:
 3130 0566 FC01      		movw r30,r24
 3131 0568 A281      		ldd r26,Z+2
 3132 056a B381      		ldd r27,Z+3
 3133 056c F401      		movw r30,r8
 3134 056e 8281      		ldd r24,Z+2
 3135 0570 9381      		ldd r25,Z+3
 3136 0572 FC01      		movw r30,r24
 3137 0574 8081      		ld r24,Z
 3138 0576 9181      		ldd r25,Z+1
 3139 0578 8D93      		st X+,r24
 3140 057a 9C93      		st X,r25
 3141               	.LSM358:
 3142 057c D701      		movw r26,r14
 3143 057e 1296      		adiw r26,2
 3144 0580 0D91      		ld r16,X+
 3145 0582 1C91      		ld r17,X
 3146 0584 1397      		sbiw r26,2+1
 3147 0586 6FE5      		ldi r22,lo8(-2098189729)
 3148 0588 7AE2      		ldi r23,hi8(-2098189729)
 3149 058a 80EF      		ldi r24,hlo8(-2098189729)
 3150 058c 92E8      		ldi r25,hhi8(-2098189729)
 3151               	.L300:
 3152 058e 0E94 0000 		call htonl
 3153 0592 F801      		movw r30,r16
 3154 0594 6283      		std Z+2,r22
 3155 0596 7383      		std Z+3,r23
 3156 0598 8483      		std Z+4,r24
 3157 059a 9583      		std Z+5,r25
 3158               	.LSM359:
 3159 059c 2097      		sbiw r28,0
 3160 059e 01F4      		brne .L247
 3161 05a0 E701      		movw r28,r14
 3162 05a2 00C0      		rjmp .L217
 3163               	.L247:
 3164               	.LSM360:
 3165 05a4 CE01      		movw r24,r28
 3166 05a6 B701      		movw r22,r14
 3167 05a8 0E94 0000 		call pbuf_chain
 3168               	.LSM361:
 3169 05ac C701      		movw r24,r14
 3170 05ae 00C0      		rjmp .L286
 3171               	.LVL259:
 3172               	.L206:
 3173               	.LSM362:
 3174 05b0 F4E0      		ldi r31,lo8(4)
 3175 05b2 7F16      		cp r7,r31
 3176 05b4 01F0      		breq .L248
 3177               	.LSM363:
 3178 05b6 2097      		sbiw r28,0
 3179 05b8 01F0      		breq .L284
 3180               	.L249:
 3181               	.LSM364:
 3182 05ba CE01      		movw r24,r28
 3183 05bc 0E94 0000 		call pbuf_free
 3184 05c0 C0E0      		ldi r28,lo8(0)
 3185 05c2 D0E0      		ldi r29,hi8(0)
 3186               	.L284:
 3187 05c4 A4E0      		ldi r26,lo8(4)
 3188 05c6 7A2E      		mov r7,r26
 3189               	.L248:
 3190               	.LSM365:
 3191 05c8 D501      		movw r26,r10
 3192 05ca 1196      		adiw r26,1
 3193 05cc 6C91      		ld r22,X
 3194 05ce 83E0      		ldi r24,lo8(3)
 3195 05d0 70E0      		ldi r23,lo8(0)
 3196 05d2 40E0      		ldi r20,lo8(0)
 3197 05d4 0E94 0000 		call pbuf_alloc
 3198 05d8 8C01      		movw r16,r24
 3199               	.LVL260:
 3200               	.LSM366:
 3201 05da F501      		movw r30,r10
 3202 05dc 4181      		ldd r20,Z+1
 3203 05de D401      		movw r26,r8
 3204 05e0 1296      		adiw r26,2
 3205 05e2 6C91      		ld r22,X
 3206 05e4 1297      		sbiw r26,2
 3207 05e6 1396      		adiw r26,3
 3208 05e8 7C91      		ld r23,X
 3209 05ea FC01      		movw r30,r24
 3210 05ec 8281      		ldd r24,Z+2
 3211 05ee 9381      		ldd r25,Z+3
 3212               	.L304:
 3213 05f0 50E0      		ldi r21,lo8(0)
 3214 05f2 0E94 0000 		call memcpy
 3215               	.LSM367:
 3216 05f6 2097      		sbiw r28,0
 3217 05f8 01F4      		brne .L251
 3218 05fa E801      		movw r28,r16
 3219 05fc 00C0      		rjmp .L217
 3220               	.L251:
 3221               	.LSM368:
 3222 05fe CE01      		movw r24,r28
 3223 0600 B801      		movw r22,r16
 3224 0602 0E94 0000 		call pbuf_chain
 3225               	.LSM369:
 3226 0606 C801      		movw r24,r16
 3227               	.LVL261:
 3228               	.L286:
 3229 0608 0E94 0000 		call pbuf_free
 3230 060c 00C0      		rjmp .L217
 3231               	.L214:
 3232 060e 6624      		clr r6
 3233 0610 6394      		inc r6
 3234               	.L217:
 3235               	.LSM370:
 3236 0612 D501      		movw r26,r10
 3237 0614 1196      		adiw r26,1
 3238 0616 6C91      		ld r22,X
 3239 0618 70E0      		ldi r23,lo8(0)
 3240 061a 7095      		com r23
 3241 061c 6195      		neg r22
 3242 061e 7F4F      		sbci r23,lo8(-1)
 3243 0620 C401      		movw r24,r8
 3244 0622 0E94 0000 		call pbuf_header
 3245               	.LSM371:
 3246 0626 F501      		movw r30,r10
 3247 0628 8181      		ldd r24,Z+1
 3248 062a 481A      		sub r4,r24
 3249 062c 5108      		sbc r5,__zero_reg__
 3250               	.L205:
 3251               	.LSM372:
 3252 062e 4114      		cp r4,__zero_reg__
 3253 0630 5104      		cpc r5,__zero_reg__
 3254 0632 01F0      		breq .+2
 3255 0634 00C0      		rjmp .L252
 3256 0636 F72C      		mov r15,r7
 3257               	.LSM373:
 3258 0638 6620      		tst r6
 3259 063a 01F0      		breq .+2
 3260 063c 00C0      		rjmp .L253
 3261               	.LVL262:
 3262 063e D601      		movw r26,r12
 3263 0640 5696      		adiw r26,22
 3264 0642 8C91      		ld r24,X
 3265 0644 80FD      		sbrc r24,0
 3266 0646 00C0      		rjmp .L253
 3267               	.LSM374:
 3268 0648 B2E0      		ldi r27,lo8(2)
 3269 064a 7B16      		cp r7,r27
 3270 064c 01F4      		brne .L254
 3271               	.LVL263:
 3272               	.LSM375:
 3273 064e 2097      		sbiw r28,0
 3274 0650 01F0      		breq .L255
 3275               	.LSM376:
 3276 0652 CE01      		movw r24,r28
 3277 0654 0E94 0000 		call pbuf_free
 3278               	.L255:
 3279               	.LSM377:
 3280 0658 83E0      		ldi r24,lo8(3)
 3281 065a 66E0      		ldi r22,lo8(6)
 3282 065c 70E0      		ldi r23,hi8(6)
 3283 065e 40E0      		ldi r20,lo8(0)
 3284 0660 0E94 0000 		call pbuf_alloc
 3285 0664 EC01      		movw r28,r24
 3286               	.LSM378:
 3287 0666 EA81      		ldd r30,Y+2
 3288 0668 FB81      		ldd r31,Y+3
 3289               	.LVL264:
 3290               	.LSM379:
 3291 066a 83E0      		ldi r24,lo8(3)
 3292 066c 8083      		st Z,r24
 3293               	.LSM380:
 3294 066e 86E0      		ldi r24,lo8(6)
 3295 0670 8183      		std Z+1,r24
 3296               	.LSM381:
 3297 0672 2A81      		ldd r18,Y+2
 3298 0674 3B81      		ldd r19,Y+3
 3299 0676 D601      		movw r26,r12
 3300 0678 5C96      		adiw r26,28
 3301 067a ED91      		ld r30,X+
 3302 067c FC91      		ld r31,X
 3303 067e 5D97      		sbiw r26,28+1
 3304               	.LVL265:
 3305 0680 8285      		ldd r24,Z+10
 3306 0682 9385      		ldd r25,Z+11
 3307 0684 A485      		ldd r26,Z+12
 3308 0686 B585      		ldd r27,Z+13
 3309 0688 F901      		movw r30,r18
 3310 068a 8283      		std Z+2,r24
 3311 068c 9383      		std Z+3,r25
 3312 068e A483      		std Z+4,r26
 3313 0690 B583      		std Z+5,r27
 3314 0692 F3E0      		ldi r31,lo8(3)
 3315 0694 FF2E      		mov r15,r31
 3316               	.LVL266:
 3317 0696 00C0      		rjmp .L256
 3318               	.LVL267:
 3319               	.L254:
 3320               	.LSM382:
 3321 0698 F3E0      		ldi r31,lo8(3)
 3322 069a 7F16      		cp r7,r31
 3323 069c 01F4      		brne .L253
 3324               	.LSM383:
 3325 069e 83E0      		ldi r24,lo8(3)
 3326 06a0 66E0      		ldi r22,lo8(6)
 3327 06a2 70E0      		ldi r23,hi8(6)
 3328 06a4 40E0      		ldi r20,lo8(0)
 3329 06a6 0E94 0000 		call pbuf_alloc
 3330 06aa 8C01      		movw r16,r24
 3331               	.LVL268:
 3332               	.LSM384:
 3333 06ac DC01      		movw r26,r24
 3334 06ae 1296      		adiw r26,2
 3335 06b0 ED91      		ld r30,X+
 3336 06b2 FC91      		ld r31,X
 3337 06b4 1397      		sbiw r26,2+1
 3338               	.LVL269:
 3339               	.LSM385:
 3340 06b6 7082      		st Z,r7
 3341               	.LSM386:
 3342 06b8 86E0      		ldi r24,lo8(6)
 3343 06ba 8183      		std Z+1,r24
 3344               	.LSM387:
 3345 06bc 1296      		adiw r26,2
 3346 06be 2D91      		ld r18,X+
 3347 06c0 3C91      		ld r19,X
 3348 06c2 1397      		sbiw r26,2+1
 3349 06c4 D601      		movw r26,r12
 3350 06c6 5C96      		adiw r26,28
 3351 06c8 ED91      		ld r30,X+
 3352 06ca FC91      		ld r31,X
 3353 06cc 5D97      		sbiw r26,28+1
 3354               	.LVL270:
 3355 06ce 8285      		ldd r24,Z+10
 3356 06d0 9385      		ldd r25,Z+11
 3357 06d2 A485      		ldd r26,Z+12
 3358 06d4 B585      		ldd r27,Z+13
 3359 06d6 F901      		movw r30,r18
 3360 06d8 8283      		std Z+2,r24
 3361 06da 9383      		std Z+3,r25
 3362 06dc A483      		std Z+4,r26
 3363 06de B583      		std Z+5,r27
 3364               	.LSM388:
 3365 06e0 2097      		sbiw r28,0
 3366 06e2 01F4      		brne .L257
 3367 06e4 E801      		movw r28,r16
 3368 06e6 00C0      		rjmp .L256
 3369               	.L257:
 3370               	.LSM389:
 3371 06e8 CE01      		movw r24,r28
 3372 06ea B801      		movw r22,r16
 3373 06ec 0E94 0000 		call pbuf_chain
 3374               	.LSM390:
 3375 06f0 C801      		movw r24,r16
 3376 06f2 0E94 0000 		call pbuf_free
 3377 06f6 00C0      		rjmp .L256
 3378               	.LVL271:
 3379               	.L253:
 3380 06f8 F72C      		mov r15,r7
 3381               	.L256:
 3382               	.LSM391:
 3383 06fa D601      		movw r26,r12
 3384 06fc 5696      		adiw r26,22
 3385 06fe 8C91      		ld r24,X
 3386 0700 5697      		sbiw r26,22
 3387 0702 80FD      		sbrc r24,0
 3388 0704 00C0      		rjmp .L258
 3389 0706 5B96      		adiw r26,27
 3390 0708 8C91      		ld r24,X
 3391 070a 84FD      		sbrc r24,4
 3392 070c 00C0      		rjmp .L258
 3393               	.LSM392:
 3394 070e C601      		movw r24,r12
 3395 0710 0E94 0000 		call ipcp_cfg_req
 3396               	.LSM393:
 3397 0714 F601      		movw r30,r12
 3398 0716 838D      		ldd r24,Z+27
 3399 0718 8061      		ori r24,lo8(16)
 3400 071a 838F      		std Z+27,r24
 3401               	.L258:
 3402               	.LSM394:
 3403 071c C601      		movw r24,r12
 3404 071e 61E2      		ldi r22,lo8(-32735)
 3405 0720 70E8      		ldi r23,hi8(-32735)
 3406 0722 4F2D      		mov r20,r15
 3407 0724 D101      		movw r26,r2
 3408 0726 1196      		adiw r26,1
 3409 0728 2C91      		ld r18,X
 3410 072a 8E01      		movw r16,r28
 3411               	.LVL272:
 3412 072c 0E94 0000 		call ppp_cp_output
 3413               	.LSM395:
 3414 0730 B2E0      		ldi r27,lo8(2)
 3415 0732 FB16      		cp r15,r27
 3416 0734 01F0      		breq .+2
 3417 0736 00C0      		rjmp .L281
 3418               	.LSM396:
 3419 0738 F601      		movw r30,r12
 3420 073a 838D      		ldd r24,Z+27
 3421 073c 8260      		ori r24,lo8(2)
 3422 073e 838F      		std Z+27,r24
 3423               	.LSM397:
 3424 0740 80FF      		sbrs r24,0
 3425 0742 00C0      		rjmp .L281
 3426               	.LSM398:
 3427 0744 85E0      		ldi r24,lo8(5)
 3428 0746 8483      		std Z+4,r24
 3429               	.LSM399:
 3430 0748 00A0      		ldd __tmp_reg__,Z+32
 3431 074a F1A1      		ldd r31,Z+33
 3432 074c E02D      		mov r30,__tmp_reg__
 3433 074e 3097      		sbiw r30,0
 3434 0750 01F4      		brne .+2
 3435 0752 00C0      		rjmp .L281
 3436 0754 D601      		movw r26,r12
 3437 0756 00C0      		rjmp .L290
 3438               	.LVL273:
 3439               	.L195:
 3440               	.LSM400:
 3441 0758 F601      		movw r30,r12
 3442 075a 8481      		ldd r24,Z+4
 3443 075c 8330      		cpi r24,lo8(3)
 3444 075e 00F4      		brsh .+2
 3445 0760 00C0      		rjmp .L276
 3446 0762 8630      		cpi r24,lo8(6)
 3447 0764 01F4      		brne .+2
 3448 0766 00C0      		rjmp .L276
 3449               	.L260:
 3450               	.LSM401:
 3451 0768 D601      		movw r26,r12
 3452 076a 5B96      		adiw r26,27
 3453 076c 8C91      		ld r24,X
 3454 076e 5B97      		sbiw r26,27
 3455 0770 8160      		ori r24,lo8(1)
 3456 0772 5B96      		adiw r26,27
 3457 0774 8C93      		st X,r24
 3458 0776 5B97      		sbiw r26,27
 3459               	.LSM402:
 3460 0778 1F96      		adiw r26,15
 3461 077a 1C92      		st X,__zero_reg__
 3462 077c 00C0      		rjmp .L261
 3463               	.LVL274:
 3464               	.L262:
 3465               	.LSM403:
 3466 077e F401      		movw r30,r8
 3467 0780 0281      		ldd r16,Z+2
 3468 0782 1381      		ldd r17,Z+3
 3469               	.LSM404:
 3470 0784 D801      		movw r26,r16
 3471 0786 1196      		adiw r26,1
 3472 0788 6C91      		ld r22,X
 3473 078a 70E0      		ldi r23,lo8(0)
 3474 078c 7095      		com r23
 3475 078e 6195      		neg r22
 3476 0790 7F4F      		sbci r23,lo8(-1)
 3477 0792 C401      		movw r24,r8
 3478 0794 0E94 0000 		call pbuf_header
 3479               	.LSM405:
 3480 0798 F801      		movw r30,r16
 3481 079a 8181      		ldd r24,Z+1
 3482 079c 481A      		sub r4,r24
 3483 079e 5108      		sbc r5,__zero_reg__
 3484               	.L261:
 3485               	.LSM406:
 3486 07a0 4114      		cp r4,__zero_reg__
 3487 07a2 5104      		cpc r5,__zero_reg__
 3488 07a4 01F4      		brne .L262
 3489               	.LSM407:
 3490 07a6 D601      		movw r26,r12
 3491 07a8 5B96      		adiw r26,27
 3492 07aa 8C91      		ld r24,X
 3493 07ac 5B97      		sbiw r26,27
 3494 07ae 81FF      		sbrs r24,1
 3495 07b0 00C0      		rjmp .L281
 3496               	.LSM408:
 3497 07b2 85E0      		ldi r24,lo8(5)
 3498 07b4 1496      		adiw r26,4
 3499 07b6 8C93      		st X,r24
 3500 07b8 1497      		sbiw r26,4
 3501               	.LSM409:
 3502 07ba 9096      		adiw r26,32
 3503 07bc ED91      		ld r30,X+
 3504 07be FC91      		ld r31,X
 3505 07c0 9197      		sbiw r26,32+1
 3506 07c2 3097      		sbiw r30,0
 3507 07c4 01F4      		brne .+2
 3508 07c6 00C0      		rjmp .L281
 3509               	.LVL275:
 3510               	.L290:
 3511 07c8 5E96      		adiw r26,30
 3512 07ca 8D91      		ld r24,X+
 3513 07cc 9C91      		ld r25,X
 3514 07ce 5F97      		sbiw r26,30+1
 3515 07d0 B601      		movw r22,r12
 3516 07d2 40E0      		ldi r20,lo8(0)
 3517 07d4 00C0      		rjmp .L291
 3518               	.LVL276:
 3519               	.L196:
 3520               	.LSM410:
 3521 07d6 F601      		movw r30,r12
 3522 07d8 8481      		ldd r24,Z+4
 3523 07da 8330      		cpi r24,lo8(3)
 3524 07dc 00F4      		brsh .+2
 3525 07de 00C0      		rjmp .L276
 3526 07e0 8630      		cpi r24,lo8(6)
 3527 07e2 01F4      		brne .+2
 3528 07e4 00C0      		rjmp .L276
 3529               	.L264:
 3530               	.LSM411:
 3531 07e6 D601      		movw r26,r12
 3532 07e8 1F96      		adiw r26,15
 3533 07ea 8C91      		ld r24,X
 3534 07ec 1F97      		sbiw r26,15
 3535 07ee 8F5F      		subi r24,lo8(-(1))
 3536 07f0 1F96      		adiw r26,15
 3537 07f2 8C93      		st X,r24
 3538               	.LSM412:
 3539 07f4 8530      		cpi r24,lo8(5)
 3540 07f6 01F4      		brne .L282
 3541               	.LSM413:
 3542 07f8 C601      		movw r24,r12
 3543 07fa 0E94 0000 		call ppp_disconnect
 3544               	.LSM414:
 3545 07fe D601      		movw r26,r12
 3546 0800 9096      		adiw r26,32
 3547 0802 ED91      		ld r30,X+
 3548 0804 FC91      		ld r31,X
 3549 0806 9197      		sbiw r26,32+1
 3550 0808 3097      		sbiw r30,0
 3551 080a 01F4      		brne .+2
 3552 080c 00C0      		rjmp .L281
 3553 080e 5E96      		adiw r26,30
 3554 0810 8D91      		ld r24,X+
 3555 0812 9C91      		ld r25,X
 3556 0814 5F97      		sbiw r26,30+1
 3557 0816 B601      		movw r22,r12
 3558 0818 49EF      		ldi r20,lo8(-7)
 3559 081a 00C0      		rjmp .L291
 3560               	.LVL277:
 3561               	.L268:
 3562               	.LSM415:
 3563 081c F401      		movw r30,r8
 3564 081e C281      		ldd r28,Z+2
 3565 0820 D381      		ldd r29,Z+3
 3566               	.LVL278:
 3567               	.LSM416:
 3568 0822 8881      		ld r24,Y
 3569 0824 8330      		cpi r24,lo8(3)
 3570 0826 01F4      		brne .L266
 3571               	.LSM417:
 3572 0828 D601      		movw r26,r12
 3573 082a 5C96      		adiw r26,28
 3574 082c ED91      		ld r30,X+
 3575 082e FC91      		ld r31,X
 3576 0830 5D97      		sbiw r26,28+1
 3577 0832 8A81      		ldd r24,Y+2
 3578 0834 9B81      		ldd r25,Y+3
 3579 0836 AC81      		ldd r26,Y+4
 3580 0838 BD81      		ldd r27,Y+5
 3581 083a 8283      		std Z+2,r24
 3582 083c 9383      		std Z+3,r25
 3583 083e A483      		std Z+4,r26
 3584 0840 B583      		std Z+5,r27
 3585               	.L266:
 3586               	.LSM418:
 3587 0842 6981      		ldd r22,Y+1
 3588 0844 70E0      		ldi r23,lo8(0)
 3589 0846 7095      		com r23
 3590 0848 6195      		neg r22
 3591 084a 7F4F      		sbci r23,lo8(-1)
 3592 084c C401      		movw r24,r8
 3593 084e 0E94 0000 		call pbuf_header
 3594               	.LSM419:
 3595 0852 8981      		ldd r24,Y+1
 3596 0854 481A      		sub r4,r24
 3597 0856 5108      		sbc r5,__zero_reg__
 3598               	.LVL279:
 3599               	.L282:
 3600               	.LSM420:
 3601 0858 4114      		cp r4,__zero_reg__
 3602 085a 5104      		cpc r5,__zero_reg__
 3603 085c 01F4      		brne .L268
 3604 085e 00C0      		rjmp .L293
 3605               	.LVL280:
 3606               	.L197:
 3607               	.LSM421:
 3608 0860 F601      		movw r30,r12
 3609 0862 8481      		ldd r24,Z+4
 3610 0864 8330      		cpi r24,lo8(3)
 3611 0866 00F4      		brsh .+2
 3612 0868 00C0      		rjmp .L276
 3613 086a 8630      		cpi r24,lo8(6)
 3614 086c 01F4      		brne .L283
 3615 086e 00C0      		rjmp .L276
 3616               	.LVL281:
 3617               	.L273:
 3618               	.LSM422:
 3619 0870 D401      		movw r26,r8
 3620 0872 1296      		adiw r26,2
 3621 0874 CD91      		ld r28,X+
 3622 0876 DC91      		ld r29,X
 3623 0878 1397      		sbiw r26,2+1
 3624               	.LVL282:
 3625               	.LSM423:
 3626 087a 8881      		ld r24,Y
 3627 087c 8330      		cpi r24,lo8(3)
 3628 087e 01F4      		brne .L271
 3629               	.LSM424:
 3630 0880 F601      		movw r30,r12
 3631 0882 828D      		ldd r24,Z+26
 3632 0884 8D7F      		andi r24,lo8(-3)
 3633 0886 828F      		std Z+26,r24
 3634               	.L271:
 3635               	.LSM425:
 3636 0888 6981      		ldd r22,Y+1
 3637 088a 70E0      		ldi r23,lo8(0)
 3638 088c 7095      		com r23
 3639 088e 6195      		neg r22
 3640 0890 7F4F      		sbci r23,lo8(-1)
 3641 0892 C401      		movw r24,r8
 3642 0894 0E94 0000 		call pbuf_header
 3643               	.LSM426:
 3644 0898 8981      		ldd r24,Y+1
 3645 089a 481A      		sub r4,r24
 3646 089c 5108      		sbc r5,__zero_reg__
 3647               	.LVL283:
 3648               	.L283:
 3649               	.LSM427:
 3650 089e 4114      		cp r4,__zero_reg__
 3651 08a0 5104      		cpc r5,__zero_reg__
 3652 08a2 01F4      		brne .L273
 3653               	.L293:
 3654               	.LSM428:
 3655 08a4 C601      		movw r24,r12
 3656 08a6 0E94 0000 		call ipcp_cfg_req
 3657 08aa 00C0      		rjmp .L281
 3658               	.LVL284:
 3659               	.L198:
 3660               	.LSM429:
 3661 08ac C401      		movw r24,r8
 3662 08ae 0E94 0000 		call ppp_pbuf_ref_chain
 3663               	.LSM430:
 3664 08b2 C601      		movw r24,r12
 3665 08b4 61E2      		ldi r22,lo8(-32735)
 3666 08b6 70E8      		ldi r23,hi8(-32735)
 3667 08b8 46E0      		ldi r20,lo8(6)
 3668 08ba D101      		movw r26,r2
 3669 08bc 1196      		adiw r26,1
 3670 08be 2C91      		ld r18,X
 3671 08c0 8401      		movw r16,r8
 3672 08c2 0E94 0000 		call ppp_cp_output
 3673               	.LSM431:
 3674 08c6 F601      		movw r30,r12
 3675 08c8 8481      		ldd r24,Z+4
 3676 08ca 8330      		cpi r24,lo8(3)
 3677 08cc 00F4      		brsh .+2
 3678 08ce 00C0      		rjmp .L281
 3679 08d0 8630      		cpi r24,lo8(6)
 3680 08d2 01F4      		brne .+2
 3681 08d4 00C0      		rjmp .L281
 3682               	.LSM432:
 3683 08d6 83E0      		ldi r24,lo8(3)
 3684 08d8 8483      		std Z+4,r24
 3685               	.LSM433:
 3686 08da 02A0      		ldd __tmp_reg__,Z+34
 3687 08dc F3A1      		ldd r31,Z+35
 3688 08de E02D      		mov r30,__tmp_reg__
 3689 08e0 3097      		sbiw r30,0
 3690 08e2 01F4      		brne .+2
 3691 08e4 00C0      		rjmp .L280
 3692 08e6 D601      		movw r26,r12
 3693 08e8 00C0      		rjmp .L295
 3694               	.L199:
 3695               	.LSM434:
 3696 08ea D601      		movw r26,r12
 3697 08ec 1496      		adiw r26,4
 3698 08ee 8C91      		ld r24,X
 3699 08f0 1497      		sbiw r26,4
 3700 08f2 8330      		cpi r24,lo8(3)
 3701 08f4 00F4      		brsh .+2
 3702 08f6 00C0      		rjmp .L281
 3703 08f8 8630      		cpi r24,lo8(6)
 3704 08fa 01F4      		brne .+2
 3705 08fc 00C0      		rjmp .L281
 3706               	.LSM435:
 3707 08fe 83E0      		ldi r24,lo8(3)
 3708 0900 1496      		adiw r26,4
 3709 0902 8C93      		st X,r24
 3710 0904 1497      		sbiw r26,4
 3711               	.LSM436:
 3712 0906 9296      		adiw r26,34
 3713 0908 ED91      		ld r30,X+
 3714 090a FC91      		ld r31,X
 3715 090c 9397      		sbiw r26,34+1
 3716 090e 3097      		sbiw r30,0
 3717 0910 01F4      		brne .+2
 3718 0912 00C0      		rjmp .L280
 3719               	.L295:
 3720 0914 5E96      		adiw r26,30
 3721 0916 8D91      		ld r24,X+
 3722 0918 9C91      		ld r25,X
 3723 091a 5F97      		sbiw r26,30+1
 3724 091c B601      		movw r22,r12
 3725 091e 41E2      		ldi r20,lo8(-32735)
 3726 0920 50E8      		ldi r21,hi8(-32735)
 3727 0922 20E0      		ldi r18,lo8(0)
 3728 0924 00C0      		rjmp .L292
 3729               	.L317:
 3730               	.LSM437:
 3731 0926 D601      		movw r26,r12
 3732 0928 1496      		adiw r26,4
 3733 092a 8C91      		ld r24,X
 3734 092c 8330      		cpi r24,lo8(3)
 3735 092e 00F0      		brlo .L276
 3736 0930 8630      		cpi r24,lo8(6)
 3737 0932 01F4      		brne .L277
 3738               	.L276:
 3739               	.LSM438:
 3740 0934 0E94 0000 		call ppp_next_id
 3741 0938 282F      		mov r18,r24
 3742 093a C601      		movw r24,r12
 3743 093c 61E2      		ldi r22,lo8(-32735)
 3744 093e 70E8      		ldi r23,hi8(-32735)
 3745 0940 46E0      		ldi r20,lo8(6)
 3746 0942 00E0      		ldi r16,lo8(0)
 3747 0944 10E0      		ldi r17,hi8(0)
 3748 0946 00C0      		rjmp .L289
 3749               	.L277:
 3750               	.LSM439:
 3751 0948 D401      		movw r26,r8
 3752 094a 1296      		adiw r26,2
 3753 094c ED91      		ld r30,X+
 3754 094e FC91      		ld r31,X
 3755 0950 1397      		sbiw r26,2+1
 3756 0952 0081      		ld r16,Z
 3757 0954 0130      		cpi r16,lo8(1)
 3758 0956 00F4      		brsh .+2
 3759 0958 00C0      		rjmp .L281
 3760 095a 0530      		cpi r16,lo8(5)
 3761 095c 00F0      		brlo .L278
 3762 095e 0530      		cpi r16,lo8(5)
 3763 0960 01F0      		breq .+2
 3764 0962 00C0      		rjmp .L281
 3765 0964 00C0      		rjmp .L320
 3766               	.L278:
 3767               	.LSM440:
 3768 0966 83E0      		ldi r24,lo8(3)
 3769 0968 F601      		movw r30,r12
 3770 096a 8483      		std Z+4,r24
 3771               	.LSM441:
 3772 096c 00A0      		ldd __tmp_reg__,Z+32
 3773 096e F1A1      		ldd r31,Z+33
 3774 0970 E02D      		mov r30,__tmp_reg__
 3775 0972 3097      		sbiw r30,0
 3776 0974 01F0      		breq .L281
 3777 0976 D601      		movw r26,r12
 3778 0978 5E96      		adiw r26,30
 3779 097a 8D91      		ld r24,X+
 3780 097c 9C91      		ld r25,X
 3781 097e 5F97      		sbiw r26,30+1
 3782 0980 B601      		movw r22,r12
 3783 0982 48EF      		ldi r20,lo8(-8)
 3784               	.LVL285:
 3785               	.L291:
 3786 0984 0995      		icall
 3787 0986 00C0      		rjmp .L281
 3788               	.LVL286:
 3789               	.L320:
 3790               	.LSM442:
 3791 0988 83E0      		ldi r24,lo8(3)
 3792 098a F601      		movw r30,r12
 3793 098c 8483      		std Z+4,r24
 3794               	.LSM443:
 3795 098e 02A0      		ldd __tmp_reg__,Z+34
 3796 0990 F3A1      		ldd r31,Z+35
 3797 0992 E02D      		mov r30,__tmp_reg__
 3798 0994 3097      		sbiw r30,0
 3799 0996 01F0      		breq .L280
 3800 0998 D601      		movw r26,r12
 3801 099a 5E96      		adiw r26,30
 3802 099c 8D91      		ld r24,X+
 3803 099e 9C91      		ld r25,X
 3804 09a0 5F97      		sbiw r26,30+1
 3805 09a2 B601      		movw r22,r12
 3806 09a4 41E2      		ldi r20,lo8(-32735)
 3807 09a6 50E8      		ldi r21,hi8(-32735)
 3808 09a8 28EF      		ldi r18,lo8(-8)
 3809               	.L292:
 3810 09aa 0995      		icall
 3811 09ac 00C0      		rjmp .L281
 3812               	.L280:
 3813 09ae F601      		movw r30,r12
 3814 09b0 848D      		ldd r24,Z+28
 3815 09b2 958D      		ldd r25,Z+29
 3816 09b4 0E94 0000 		call netif_remove
 3817 09b8 C601      		movw r24,r12
 3818 09ba 0E94 0000 		call ppp_close
 3819 09be 00C0      		rjmp .L281
 3820               	.L193:
 3821               	.LSM444:
 3822 09c0 C401      		movw r24,r8
 3823 09c2 64E0      		ldi r22,lo8(4)
 3824 09c4 70E0      		ldi r23,hi8(4)
 3825 09c6 0E94 0000 		call pbuf_header
 3826               	.LSM445:
 3827 09ca C401      		movw r24,r8
 3828 09cc 0E94 0000 		call ppp_pbuf_ref_chain
 3829               	.LSM446:
 3830 09d0 C601      		movw r24,r12
 3831 09d2 61E2      		ldi r22,lo8(-32735)
 3832 09d4 70E8      		ldi r23,hi8(-32735)
 3833 09d6 47E0      		ldi r20,lo8(7)
 3834 09d8 D101      		movw r26,r2
 3835 09da 1196      		adiw r26,1
 3836 09dc 2C91      		ld r18,X
 3837 09de 8401      		movw r16,r8
 3838               	.L289:
 3839 09e0 0E94 0000 		call ppp_cp_output
 3840               	.LVL287:
 3841               	.L281:
 3842               	/* epilogue start */
 3843               	.LSM447:
 3844 09e4 DF91      		pop r29
 3845 09e6 CF91      		pop r28
 3846               	.LVL288:
 3847 09e8 1F91      		pop r17
 3848 09ea 0F91      		pop r16
 3849               	.LVL289:
 3850 09ec FF90      		pop r15
 3851               	.LVL290:
 3852 09ee EF90      		pop r14
 3853               	.LVL291:
 3854 09f0 DF90      		pop r13
 3855 09f2 CF90      		pop r12
 3856               	.LVL292:
 3857 09f4 BF90      		pop r11
 3858 09f6 AF90      		pop r10
 3859               	.LVL293:
 3860 09f8 9F90      		pop r9
 3861 09fa 8F90      		pop r8
 3862               	.LVL294:
 3863 09fc 7F90      		pop r7
 3864               	.LVL295:
 3865 09fe 6F90      		pop r6
 3866               	.LVL296:
 3867 0a00 5F90      		pop r5
 3868 0a02 4F90      		pop r4
 3869               	.LVL297:
 3870 0a04 3F90      		pop r3
 3871 0a06 2F90      		pop r2
 3872               	.LVL298:
 3873 0a08 0895      		ret
 3874               	.LFE7:
 3876               		.section	.text.ppp_process_lcp,"ax",@progbits
 3877               	.global	ppp_process_lcp
 3879               	ppp_process_lcp:
 3880               	.LFB6:
 3881               	.LSM448:
 3882               	.LVL299:
 3883 0000 4F92      		push r4
 3884 0002 5F92      		push r5
 3885 0004 6F92      		push r6
 3886 0006 7F92      		push r7
 3887 0008 9F92      		push r9
 3888 000a AF92      		push r10
 3889 000c BF92      		push r11
 3890 000e CF92      		push r12
 3891 0010 DF92      		push r13
 3892 0012 EF92      		push r14
 3893 0014 FF92      		push r15
 3894 0016 0F93      		push r16
 3895 0018 1F93      		push r17
 3896 001a CF93      		push r28
 3897 001c DF93      		push r29
 3898               	/* prologue: function */
 3899               	/* frame size = 0 */
 3900 001e EC01      		movw r28,r24
 3901 0020 5B01      		movw r10,r22
 3902               	.LSM449:
 3903 0022 DB01      		movw r26,r22
 3904 0024 1296      		adiw r26,2
 3905 0026 4D90      		ld r4,X+
 3906 0028 5C90      		ld r5,X
 3907 002a 1397      		sbiw r26,2+1
 3908               	.LVL300:
 3909               	.LSM450:
 3910 002c CB01      		movw r24,r22
 3911               	.LVL301:
 3912 002e 6CEF      		ldi r22,lo8(-4)
 3913 0030 7FEF      		ldi r23,hi8(-4)
 3914               	.LVL302:
 3915 0032 0E94 0000 		call pbuf_header
 3916               	.LSM451:
 3917 0036 F201      		movw r30,r4
 3918 0038 8281      		ldd r24,Z+2
 3919 003a 9381      		ldd r25,Z+3
 3920 003c 0E94 0000 		call ntohs
 3921 0040 D201      		movw r26,r4
 3922 0042 1396      		adiw r26,2+1
 3923 0044 9C93      		st X,r25
 3924 0046 8E93      		st -X,r24
 3925 0048 1297      		sbiw r26,2
 3926               	.LSM452:
 3927 004a 6CEF      		ldi r22,lo8(-4)
 3928 004c 662E      		mov r6,r22
 3929 004e 6FEF      		ldi r22,hi8(-4)
 3930 0050 762E      		mov r7,r22
 3931               	.LVL303:
 3932 0052 680E      		add r6,r24
 3933 0054 791E      		adc r7,r25
 3934               	.LSM453:
 3935 0056 9C91      		ld r25,X
 3936 0058 892F      		mov r24,r25
 3937 005a 8250      		subi r24,lo8(-(-2))
 3938 005c 8330      		cpi r24,lo8(3)
 3939 005e 00F0      		brlo .L322
 3940 0060 9730      		cpi r25,lo8(7)
 3941 0062 01F0      		breq .L322
 3942 0064 9630      		cpi r25,lo8(6)
 3943 0066 01F4      		brne .L323
 3944               	.L322:
 3945               	.LSM454:
 3946 0068 0D85      		ldd r16,Y+13
 3947 006a 1E85      		ldd r17,Y+14
 3948               	.LVL304:
 3949 006c 00C0      		rjmp .L324
 3950               	.L331:
 3951               	.LSM455:
 3952 006e F201      		movw r30,r4
 3953 0070 9181      		ldd r25,Z+1
 3954 0072 D801      		movw r26,r16
 3955 0074 1496      		adiw r26,4
 3956 0076 8C91      		ld r24,X
 3957 0078 1497      		sbiw r26,4
 3958 007a 9817      		cp r25,r24
 3959 007c 01F4      		brne .L325
 3960               	.LSM456:
 3961 007e 8D85      		ldd r24,Y+13
 3962 0080 9E85      		ldd r25,Y+14
 3963 0082 8017      		cp r24,r16
 3964 0084 9107      		cpc r25,r17
 3965 0086 01F4      		brne .L329
 3966 0088 8D91      		ld r24,X+
 3967 008a 9C91      		ld r25,X
 3968 008c 9E87      		std Y+14,r25
 3969 008e 8D87      		std Y+13,r24
 3970 0090 00C0      		rjmp .L327
 3971               	.L330:
 3972 0092 8081      		ld r24,Z
 3973 0094 9181      		ldd r25,Z+1
 3974 0096 0097      		sbiw r24,0
 3975 0098 01F0      		breq .L329
 3976 009a 8017      		cp r24,r16
 3977 009c 9107      		cpc r25,r17
 3978 009e 01F4      		brne .L329
 3979 00a0 D801      		movw r26,r16
 3980 00a2 8D91      		ld r24,X+
 3981 00a4 9C91      		ld r25,X
 3982 00a6 9183      		std Z+1,r25
 3983 00a8 8083      		st Z,r24
 3984 00aa 00C0      		rjmp .L327
 3985               	.L329:
 3986 00ac 9093 0000 		sts (ppp_tmp_req)+1,r25
 3987 00b0 8093 0000 		sts ppp_tmp_req,r24
 3988 00b4 E091 0000 		lds r30,ppp_tmp_req
 3989 00b8 F091 0000 		lds r31,(ppp_tmp_req)+1
 3990 00bc 3097      		sbiw r30,0
 3991 00be 01F4      		brne .L330
 3992               	.L327:
 3993 00c0 F801      		movw r30,r16
 3994 00c2 1182      		std Z+1,__zero_reg__
 3995 00c4 1082      		st Z,__zero_reg__
 3996               	.LSM457:
 3997 00c6 8281      		ldd r24,Z+2
 3998 00c8 9381      		ldd r25,Z+3
 3999 00ca 0E94 0000 		call pbuf_free
 4000               	.LSM458:
 4001 00ce 8CE0      		ldi r24,lo8(12)
 4002 00d0 B801      		movw r22,r16
 4003 00d2 0E94 0000 		call lwbt_memp_free
 4004               	.L325:
 4005               	.LSM459:
 4006 00d6 D801      		movw r26,r16
 4007 00d8 0D91      		ld r16,X+
 4008 00da 1C91      		ld r17,X
 4009               	.L324:
 4010 00dc 0115      		cp r16,__zero_reg__
 4011 00de 1105      		cpc r17,__zero_reg__
 4012 00e0 01F4      		brne .L331
 4013               	.L323:
 4014               	.LSM460:
 4015 00e2 F201      		movw r30,r4
 4016 00e4 8081      		ld r24,Z
 4017 00e6 8630      		cpi r24,lo8(6)
 4018 00e8 01F4      		brne .+2
 4019 00ea 00C0      		rjmp .L338
 4020 00ec 8730      		cpi r24,lo8(7)
 4021 00ee 00F4      		brsh .L344
 4022 00f0 8330      		cpi r24,lo8(3)
 4023 00f2 01F4      		brne .+2
 4024 00f4 00C0      		rjmp .L335
 4025 00f6 8430      		cpi r24,lo8(4)
 4026 00f8 00F4      		brsh .L345
 4027 00fa 8130      		cpi r24,lo8(1)
 4028 00fc 01F0      		breq .L333
 4029 00fe 8230      		cpi r24,lo8(2)
 4030 0100 01F0      		breq .+2
 4031 0102 00C0      		rjmp .L332
 4032 0104 00C0      		rjmp .L447
 4033               	.L345:
 4034 0106 8430      		cpi r24,lo8(4)
 4035 0108 01F4      		brne .+2
 4036 010a 00C0      		rjmp .L336
 4037 010c 8530      		cpi r24,lo8(5)
 4038 010e 01F0      		breq .+2
 4039 0110 00C0      		rjmp .L332
 4040 0112 00C0      		rjmp .L448
 4041               	.L344:
 4042 0114 8930      		cpi r24,lo8(9)
 4043 0116 01F4      		brne .+2
 4044 0118 00C0      		rjmp .L341
 4045 011a 8A30      		cpi r24,lo8(10)
 4046 011c 00F4      		brsh .L346
 4047 011e 8730      		cpi r24,lo8(7)
 4048 0120 01F4      		brne .+2
 4049 0122 00C0      		rjmp .L339
 4050 0124 8830      		cpi r24,lo8(8)
 4051 0126 01F0      		breq .+2
 4052 0128 00C0      		rjmp .L332
 4053 012a 00C0      		rjmp .L340
 4054               	.L346:
 4055 012c 8A30      		cpi r24,lo8(10)
 4056 012e 01F4      		brne .+2
 4057 0130 00C0      		rjmp .L342
 4058 0132 8B30      		cpi r24,lo8(11)
 4059 0134 01F0      		breq .+2
 4060 0136 00C0      		rjmp .L332
 4061 0138 00C0      		rjmp .L414
 4062               	.L333:
 4063               	.LSM461:
 4064 013a 8C81      		ldd r24,Y+4
 4065 013c 8823      		tst r24
 4066 013e 01F4      		brne .+2
 4067 0140 00C0      		rjmp .L440
 4068               	.L347:
 4069               	.LSM462:
 4070 0142 8130      		cpi r24,lo8(1)
 4071 0144 01F4      		brne .L348
 4072               	.LSM463:
 4073 0146 8091 0000 		lds r24,ppp_listen_pcbs
 4074 014a 9091 0000 		lds r25,(ppp_listen_pcbs)+1
 4075 014e 8C17      		cp r24,r28
 4076 0150 9D07      		cpc r25,r29
 4077 0152 01F4      		brne .L352
 4078 0154 8881      		ld r24,Y
 4079 0156 9981      		ldd r25,Y+1
 4080 0158 9093 0000 		sts (ppp_listen_pcbs)+1,r25
 4081 015c 8093 0000 		sts ppp_listen_pcbs,r24
 4082 0160 00C0      		rjmp .L350
 4083               	.L353:
 4084 0162 8081      		ld r24,Z
 4085 0164 9181      		ldd r25,Z+1
 4086 0166 0097      		sbiw r24,0
 4087 0168 01F0      		breq .L352
 4088 016a 8C17      		cp r24,r28
 4089 016c 9D07      		cpc r25,r29
 4090 016e 01F4      		brne .L352
 4091 0170 8881      		ld r24,Y
 4092 0172 9981      		ldd r25,Y+1
 4093 0174 9183      		std Z+1,r25
 4094 0176 8083      		st Z,r24
 4095 0178 00C0      		rjmp .L350
 4096               	.L352:
 4097 017a 9093 0000 		sts (ppp_tmp_pcb)+1,r25
 4098 017e 8093 0000 		sts ppp_tmp_pcb,r24
 4099 0182 E091 0000 		lds r30,ppp_tmp_pcb
 4100 0186 F091 0000 		lds r31,(ppp_tmp_pcb)+1
 4101 018a 3097      		sbiw r30,0
 4102 018c 01F4      		brne .L353
 4103               	.L350:
 4104               	.LSM464:
 4105 018e 8091 0000 		lds r24,ppp_active_pcbs
 4106 0192 9091 0000 		lds r25,(ppp_active_pcbs)+1
 4107 0196 9983      		std Y+1,r25
 4108 0198 8883      		st Y,r24
 4109 019a D093 0000 		sts (ppp_active_pcbs)+1,r29
 4110 019e C093 0000 		sts ppp_active_pcbs,r28
 4111               	.L348:
 4112               	.LSM465:
 4113 01a2 82E0      		ldi r24,lo8(2)
 4114 01a4 8C83      		std Y+4,r24
 4115 01a6 EE24      		clr r14
 4116 01a8 FF24      		clr r15
 4117               	.LVL305:
 4118 01aa 52E0      		ldi r21,lo8(2)
 4119 01ac 952E      		mov r9,r21
 4120               	.LVL306:
 4121 01ae 00C0      		rjmp .L354
 4122               	.LVL307:
 4123               	.L375:
 4124               	.LSM466:
 4125 01b0 D501      		movw r26,r10
 4126 01b2 1296      		adiw r26,2
 4127 01b4 CD90      		ld r12,X+
 4128 01b6 DC90      		ld r13,X
 4129 01b8 1397      		sbiw r26,2+1
 4130               	.LSM467:
 4131 01ba F601      		movw r30,r12
 4132 01bc 8081      		ld r24,Z
 4133 01be 8230      		cpi r24,lo8(2)
 4134 01c0 01F0      		breq .L357
 4135 01c2 8330      		cpi r24,lo8(3)
 4136 01c4 00F4      		brsh .L360
 4137 01c6 8130      		cpi r24,lo8(1)
 4138 01c8 01F0      		breq .+2
 4139 01ca 00C0      		rjmp .L355
 4140 01cc 00C0      		rjmp .L449
 4141               	.L360:
 4142 01ce 8730      		cpi r24,lo8(7)
 4143 01d0 01F4      		brne .+2
 4144 01d2 00C0      		rjmp .L358
 4145 01d4 8830      		cpi r24,lo8(8)
 4146 01d6 01F0      		breq .+2
 4147 01d8 00C0      		rjmp .L355
 4148 01da 00C0      		rjmp .L450
 4149               	.L449:
 4150               	.LSM468:
 4151 01dc D601      		movw r26,r12
 4152 01de 1296      		adiw r26,2
 4153 01e0 8D91      		ld r24,X+
 4154 01e2 9C91      		ld r25,X
 4155 01e4 1397      		sbiw r26,2+1
 4156 01e6 0E94 0000 		call ntohs
 4157 01ea 998B      		std Y+17,r25
 4158 01ec 888B      		std Y+16,r24
 4159               	.LSM469:
 4160 01ee B2E0      		ldi r27,lo8(2)
 4161 01f0 9B16      		cp r9,r27
 4162 01f2 01F0      		breq .+2
 4163 01f4 00C0      		rjmp .L361
 4164               	.LSM470:
 4165 01f6 F601      		movw r30,r12
 4166 01f8 6181      		ldd r22,Z+1
 4167 01fa 83E0      		ldi r24,lo8(3)
 4168 01fc 70E0      		ldi r23,lo8(0)
 4169 01fe 40E0      		ldi r20,lo8(0)
 4170 0200 0E94 0000 		call pbuf_alloc
 4171 0204 8C01      		movw r16,r24
 4172               	.LVL308:
 4173               	.LSM471:
 4174 0206 D601      		movw r26,r12
 4175 0208 1196      		adiw r26,1
 4176 020a 4C91      		ld r20,X
 4177 020c F501      		movw r30,r10
 4178 020e 6281      		ldd r22,Z+2
 4179 0210 7381      		ldd r23,Z+3
 4180 0212 DC01      		movw r26,r24
 4181 0214 1296      		adiw r26,2
 4182 0216 8C91      		ld r24,X
 4183 0218 1297      		sbiw r26,2
 4184 021a 1396      		adiw r26,3
 4185 021c 9C91      		ld r25,X
 4186 021e 50E0      		ldi r21,lo8(0)
 4187 0220 0E94 0000 		call memcpy
 4188               	.LSM472:
 4189 0224 E114      		cp r14,__zero_reg__
 4190 0226 F104      		cpc r15,__zero_reg__
 4191 0228 01F4      		brne .+2
 4192 022a 00C0      		rjmp .L363
 4193               	.LSM473:
 4194 022c C701      		movw r24,r14
 4195 022e B801      		movw r22,r16
 4196 0230 0E94 0000 		call pbuf_chain
 4197               	.LSM474:
 4198 0234 C801      		movw r24,r16
 4199 0236 0E94 0000 		call pbuf_free
 4200 023a 00C0      		rjmp .L364
 4201               	.LVL309:
 4202               	.L357:
 4203               	.LSM475:
 4204 023c B2E0      		ldi r27,lo8(2)
 4205 023e 9B16      		cp r9,r27
 4206 0240 01F0      		breq .+2
 4207 0242 00C0      		rjmp .L361
 4208               	.L364:
 4209               	.LSM476:
 4210 0244 F601      		movw r30,r12
 4211 0246 6181      		ldd r22,Z+1
 4212 0248 83E0      		ldi r24,lo8(3)
 4213 024a 70E0      		ldi r23,lo8(0)
 4214 024c 40E0      		ldi r20,lo8(0)
 4215 024e 0E94 0000 		call pbuf_alloc
 4216 0252 8C01      		movw r16,r24
 4217               	.LVL310:
 4218               	.LSM477:
 4219 0254 D601      		movw r26,r12
 4220 0256 1196      		adiw r26,1
 4221 0258 4C91      		ld r20,X
 4222 025a F501      		movw r30,r10
 4223 025c 6281      		ldd r22,Z+2
 4224 025e 7381      		ldd r23,Z+3
 4225 0260 DC01      		movw r26,r24
 4226 0262 1296      		adiw r26,2
 4227 0264 8C91      		ld r24,X
 4228 0266 1297      		sbiw r26,2
 4229 0268 1396      		adiw r26,3
 4230 026a 9C91      		ld r25,X
 4231 026c 50E0      		ldi r21,lo8(0)
 4232 026e 0E94 0000 		call memcpy
 4233               	.LSM478:
 4234 0272 E114      		cp r14,__zero_reg__
 4235 0274 F104      		cpc r15,__zero_reg__
 4236 0276 01F4      		brne .L366
 4237 0278 7801      		movw r14,r16
 4238 027a 00C0      		rjmp .L420
 4239               	.L366:
 4240               	.LSM479:
 4241 027c C701      		movw r24,r14
 4242 027e B801      		movw r22,r16
 4243 0280 0E94 0000 		call pbuf_chain
 4244               	.LSM480:
 4245 0284 C801      		movw r24,r16
 4246 0286 0E94 0000 		call pbuf_free
 4247               	.L420:
 4248 028a 42E0      		ldi r20,lo8(2)
 4249 028c 942E      		mov r9,r20
 4250 028e 00C0      		rjmp .L361
 4251               	.LVL311:
 4252               	.L358:
 4253               	.LSM481:
 4254 0290 888D      		ldd r24,Y+24
 4255 0292 8061      		ori r24,lo8(16)
 4256 0294 00C0      		rjmp .L443
 4257               	.L450:
 4258               	.LSM482:
 4259 0296 888D      		ldd r24,Y+24
 4260 0298 8064      		ori r24,lo8(64)
 4261               	.L443:
 4262 029a 888F      		std Y+24,r24
 4263               	.LSM483:
 4264 029c B2E0      		ldi r27,lo8(2)
 4265 029e 9B16      		cp r9,r27
 4266 02a0 01F4      		brne .L361
 4267 02a2 00C0      		rjmp .L371
 4268               	.L355:
 4269               	.LSM484:
 4270 02a4 B4E0      		ldi r27,lo8(4)
 4271 02a6 9B16      		cp r9,r27
 4272 02a8 01F0      		breq .L371
 4273               	.LSM485:
 4274 02aa E114      		cp r14,__zero_reg__
 4275 02ac F104      		cpc r15,__zero_reg__
 4276 02ae 01F0      		breq .L418
 4277               	.L372:
 4278               	.LSM486:
 4279 02b0 C701      		movw r24,r14
 4280 02b2 0E94 0000 		call pbuf_free
 4281 02b6 EE24      		clr r14
 4282 02b8 FF24      		clr r15
 4283               	.L418:
 4284 02ba 34E0      		ldi r19,lo8(4)
 4285 02bc 932E      		mov r9,r19
 4286               	.L371:
 4287               	.LSM487:
 4288 02be F601      		movw r30,r12
 4289 02c0 6181      		ldd r22,Z+1
 4290 02c2 83E0      		ldi r24,lo8(3)
 4291 02c4 70E0      		ldi r23,lo8(0)
 4292 02c6 40E0      		ldi r20,lo8(0)
 4293 02c8 0E94 0000 		call pbuf_alloc
 4294 02cc 8C01      		movw r16,r24
 4295               	.LVL312:
 4296               	.LSM488:
 4297 02ce D601      		movw r26,r12
 4298 02d0 1196      		adiw r26,1
 4299 02d2 4C91      		ld r20,X
 4300 02d4 F501      		movw r30,r10
 4301 02d6 6281      		ldd r22,Z+2
 4302 02d8 7381      		ldd r23,Z+3
 4303 02da DC01      		movw r26,r24
 4304 02dc 1296      		adiw r26,2
 4305 02de 8C91      		ld r24,X
 4306 02e0 1297      		sbiw r26,2
 4307 02e2 1396      		adiw r26,3
 4308 02e4 9C91      		ld r25,X
 4309 02e6 50E0      		ldi r21,lo8(0)
 4310 02e8 0E94 0000 		call memcpy
 4311               	.LSM489:
 4312 02ec E114      		cp r14,__zero_reg__
 4313 02ee F104      		cpc r15,__zero_reg__
 4314 02f0 01F4      		brne .L374
 4315 02f2 7801      		movw r14,r16
 4316 02f4 00C0      		rjmp .L361
 4317               	.L374:
 4318               	.LSM490:
 4319 02f6 C701      		movw r24,r14
 4320 02f8 B801      		movw r22,r16
 4321 02fa 0E94 0000 		call pbuf_chain
 4322               	.LSM491:
 4323 02fe C801      		movw r24,r16
 4324 0300 0E94 0000 		call pbuf_free
 4325               	.LVL313:
 4326               	.L361:
 4327               	.LSM492:
 4328 0304 F601      		movw r30,r12
 4329 0306 6181      		ldd r22,Z+1
 4330 0308 70E0      		ldi r23,lo8(0)
 4331 030a 7095      		com r23
 4332 030c 6195      		neg r22
 4333 030e 7F4F      		sbci r23,lo8(-1)
 4334 0310 C501      		movw r24,r10
 4335 0312 0E94 0000 		call pbuf_header
 4336               	.LSM493:
 4337 0316 D601      		movw r26,r12
 4338 0318 1196      		adiw r26,1
 4339 031a 8C91      		ld r24,X
 4340 031c 681A      		sub r6,r24
 4341 031e 7108      		sbc r7,__zero_reg__
 4342               	.L354:
 4343               	.LSM494:
 4344 0320 6114      		cp r6,__zero_reg__
 4345 0322 7104      		cpc r7,__zero_reg__
 4346 0324 01F0      		breq .+2
 4347 0326 00C0      		rjmp .L375
 4348               	.LSM495:
 4349 0328 8E89      		ldd r24,Y+22
 4350 032a 80FD      		sbrc r24,0
 4351 032c 00C0      		rjmp .L376
 4352 032e 898D      		ldd r24,Y+25
 4353 0330 80FD      		sbrc r24,0
 4354 0332 00C0      		rjmp .L376
 4355               	.LSM496:
 4356 0334 CE01      		movw r24,r28
 4357 0336 60E0      		ldi r22,lo8(0)
 4358 0338 70E0      		ldi r23,hi8(0)
 4359 033a 0E94 0000 		call lcp_cfg_req
 4360 033e 8C01      		movw r16,r24
 4361               	.LVL314:
 4362               	.LSM497:
 4363 0340 0E94 0000 		call ppp_next_id
 4364 0344 282F      		mov r18,r24
 4365 0346 CE01      		movw r24,r28
 4366 0348 61E2      		ldi r22,lo8(-16351)
 4367 034a 70EC      		ldi r23,hi8(-16351)
 4368 034c 41E0      		ldi r20,lo8(1)
 4369 034e 0E94 0000 		call ppp_cp_output
 4370               	.LSM498:
 4371 0352 898D      		ldd r24,Y+25
 4372 0354 8160      		ori r24,lo8(1)
 4373 0356 898F      		std Y+25,r24
 4374               	.LVL315:
 4375               	.L376:
 4376               	.LSM499:
 4377 0358 CE01      		movw r24,r28
 4378 035a 61E2      		ldi r22,lo8(-16351)
 4379 035c 70EC      		ldi r23,hi8(-16351)
 4380 035e 492D      		mov r20,r9
 4381 0360 F201      		movw r30,r4
 4382 0362 2181      		ldd r18,Z+1
 4383 0364 8701      		movw r16,r14
 4384               	.LVL316:
 4385 0366 0E94 0000 		call ppp_cp_output
 4386               	.LSM500:
 4387 036a F2E0      		ldi r31,lo8(2)
 4388 036c 9F16      		cp r9,r31
 4389 036e 01F0      		breq .+2
 4390 0370 00C0      		rjmp .L414
 4391               	.LSM501:
 4392 0372 888D      		ldd r24,Y+24
 4393 0374 8260      		ori r24,lo8(2)
 4394 0376 888F      		std Y+24,r24
 4395               	.LSM502:
 4396 0378 80FF      		sbrs r24,0
 4397 037a 00C0      		rjmp .L414
 4398               	.LSM503:
 4399 037c 82FF      		sbrs r24,2
 4400 037e 00C0      		rjmp .L445
 4401 0380 8E89      		ldd r24,Y+22
 4402 0382 80FF      		sbrs r24,0
 4403 0384 00C0      		rjmp .L445
 4404 0386 00C0      		rjmp .L414
 4405               	.LVL317:
 4406               	.L447:
 4407               	.LSM504:
 4408 0388 8C81      		ldd r24,Y+4
 4409 038a 8230      		cpi r24,lo8(2)
 4410 038c 00F4      		brsh .+2
 4411 038e 00C0      		rjmp .L440
 4412               	.L378:
 4413               	.LSM505:
 4414 0390 888D      		ldd r24,Y+24
 4415 0392 8160      		ori r24,lo8(1)
 4416 0394 888F      		std Y+24,r24
 4417               	.LSM506:
 4418 0396 1F86      		std Y+15,__zero_reg__
 4419 0398 00C0      		rjmp .L379
 4420               	.LVL318:
 4421               	.L384:
 4422               	.LSM507:
 4423 039a D501      		movw r26,r10
 4424 039c 1296      		adiw r26,2
 4425 039e 0D91      		ld r16,X+
 4426 03a0 1C91      		ld r17,X
 4427 03a2 1397      		sbiw r26,2+1
 4428               	.LVL319:
 4429               	.LSM508:
 4430 03a4 F801      		movw r30,r16
 4431 03a6 8081      		ld r24,Z
 4432 03a8 8730      		cpi r24,lo8(7)
 4433 03aa 01F0      		breq .L382
 4434 03ac 8830      		cpi r24,lo8(8)
 4435 03ae 01F0      		breq .L383
 4436 03b0 8230      		cpi r24,lo8(2)
 4437 03b2 01F4      		brne .L380
 4438               	.LSM509:
 4439 03b4 D801      		movw r26,r16
 4440 03b6 1296      		adiw r26,2
 4441 03b8 6D91      		ld r22,X+
 4442 03ba 7D91      		ld r23,X+
 4443 03bc 8D91      		ld r24,X+
 4444 03be 9C91      		ld r25,X
 4445 03c0 1597      		sbiw r26,2+3
 4446 03c2 0E94 0000 		call ntohl
 4447 03c6 6A8B      		std Y+18,r22
 4448 03c8 7B8B      		std Y+19,r23
 4449 03ca 8C8B      		std Y+20,r24
 4450 03cc 9D8B      		std Y+21,r25
 4451 03ce 00C0      		rjmp .L380
 4452               	.L382:
 4453               	.LSM510:
 4454 03d0 888D      		ldd r24,Y+24
 4455 03d2 8860      		ori r24,lo8(8)
 4456 03d4 00C0      		rjmp .L421
 4457               	.L383:
 4458               	.LSM511:
 4459 03d6 888D      		ldd r24,Y+24
 4460 03d8 8062      		ori r24,lo8(32)
 4461               	.L421:
 4462 03da 888F      		std Y+24,r24
 4463               	.L380:
 4464               	.LSM512:
 4465 03dc F801      		movw r30,r16
 4466 03de 6181      		ldd r22,Z+1
 4467 03e0 70E0      		ldi r23,lo8(0)
 4468 03e2 7095      		com r23
 4469 03e4 6195      		neg r22
 4470 03e6 7F4F      		sbci r23,lo8(-1)
 4471 03e8 C501      		movw r24,r10
 4472 03ea 0E94 0000 		call pbuf_header
 4473               	.LSM513:
 4474 03ee D801      		movw r26,r16
 4475 03f0 1196      		adiw r26,1
 4476 03f2 8C91      		ld r24,X
 4477 03f4 681A      		sub r6,r24
 4478 03f6 7108      		sbc r7,__zero_reg__
 4479               	.LVL320:
 4480               	.L379:
 4481               	.LSM514:
 4482 03f8 6114      		cp r6,__zero_reg__
 4483 03fa 7104      		cpc r7,__zero_reg__
 4484 03fc 01F4      		brne .L384
 4485               	.LSM515:
 4486 03fe 888D      		ldd r24,Y+24
 4487 0400 81FF      		sbrs r24,1
 4488 0402 00C0      		rjmp .L414
 4489               	.LVL321:
 4490               	.L445:
 4491               	.LSM516:
 4492 0404 84E0      		ldi r24,lo8(4)
 4493 0406 8C83      		std Y+4,r24
 4494               	.LSM517:
 4495 0408 8E89      		ldd r24,Y+22
 4496 040a 80FF      		sbrs r24,0
 4497 040c 00C0      		rjmp .L414
 4498               	.LSM518:
 4499 040e CE01      		movw r24,r28
 4500 0410 0E94 0000 		call ipcp_cfg_req
 4501 0414 8823      		tst r24
 4502 0416 01F4      		brne .+2
 4503 0418 00C0      		rjmp .L414
 4504 041a 00C0      		rjmp .L394
 4505               	.LVL322:
 4506               	.L335:
 4507               	.LSM519:
 4508 041c 8C81      		ldd r24,Y+4
 4509 041e 8230      		cpi r24,lo8(2)
 4510 0420 00F4      		brsh .+2
 4511 0422 00C0      		rjmp .L440
 4512               	.L385:
 4513               	.LSM520:
 4514 0424 8F85      		ldd r24,Y+15
 4515 0426 8F5F      		subi r24,lo8(-(1))
 4516 0428 8F87      		std Y+15,r24
 4517               	.LSM521:
 4518 042a 8530      		cpi r24,lo8(5)
 4519 042c 01F0      		breq .+2
 4520 042e 00C0      		rjmp .L415
 4521               	.LSM522:
 4522 0430 1C82      		std Y+4,__zero_reg__
 4523               	.LSM523:
 4524 0432 E8A1      		ldd r30,Y+32
 4525 0434 F9A1      		ldd r31,Y+33
 4526 0436 3097      		sbiw r30,0
 4527 0438 01F4      		brne .+2
 4528 043a 00C0      		rjmp .L414
 4529 043c 8E8D      		ldd r24,Y+30
 4530 043e 9F8D      		ldd r25,Y+31
 4531 0440 BE01      		movw r22,r28
 4532 0442 49EF      		ldi r20,lo8(-7)
 4533 0444 00C0      		rjmp .L428
 4534               	.LVL323:
 4535               	.L395:
 4536               	.LSM524:
 4537 0446 F501      		movw r30,r10
 4538 0448 0281      		ldd r16,Z+2
 4539 044a 1381      		ldd r17,Z+3
 4540               	.LVL324:
 4541               	.LSM525:
 4542 044c D801      		movw r26,r16
 4543 044e 8C91      		ld r24,X
 4544 0450 8330      		cpi r24,lo8(3)
 4545 0452 01F0      		breq .L390
 4546 0454 8430      		cpi r24,lo8(4)
 4547 0456 00F4      		brsh .L393
 4548 0458 8130      		cpi r24,lo8(1)
 4549 045a 01F0      		breq .L388
 4550 045c 8230      		cpi r24,lo8(2)
 4551 045e 01F4      		brne .L387
 4552 0460 00C0      		rjmp .L451
 4553               	.L393:
 4554 0462 8730      		cpi r24,lo8(7)
 4555 0464 01F0      		breq .L391
 4556 0466 8830      		cpi r24,lo8(8)
 4557 0468 01F4      		brne .L387
 4558 046a 00C0      		rjmp .L452
 4559               	.L388:
 4560               	.LSM526:
 4561 046c F801      		movw r30,r16
 4562 046e 8281      		ldd r24,Z+2
 4563 0470 9381      		ldd r25,Z+3
 4564 0472 0E94 0000 		call ntohs
 4565 0476 8054      		subi r24,lo8(576)
 4566 0478 9240      		sbci r25,hi8(576)
 4567 047a 00F4      		brsh .L394
 4568               	.LSM527:
 4569 047c D501      		movw r26,r10
 4570 047e 1296      		adiw r26,2
 4571 0480 ED91      		ld r30,X+
 4572 0482 FC91      		ld r31,X
 4573 0484 1397      		sbiw r26,2+1
 4574 0486 8281      		ldd r24,Z+2
 4575 0488 9381      		ldd r25,Z+3
 4576 048a 0E94 0000 		call ntohs
 4577 048e 998B      		std Y+17,r25
 4578 0490 888B      		std Y+16,r24
 4579 0492 00C0      		rjmp .L387
 4580               	.LVL325:
 4581               	.L394:
 4582               	.LSM528:
 4583 0494 CE01      		movw r24,r28
 4584 0496 0E94 0000 		call ppp_disconnect
 4585 049a 00C0      		rjmp .L414
 4586               	.LVL326:
 4587               	.L451:
 4588               	.LSM529:
 4589 049c F801      		movw r30,r16
 4590 049e 6281      		ldd r22,Z+2
 4591 04a0 7381      		ldd r23,Z+3
 4592 04a2 8481      		ldd r24,Z+4
 4593 04a4 9581      		ldd r25,Z+5
 4594 04a6 0E94 0000 		call ntohl
 4595 04aa 6A8B      		std Y+18,r22
 4596 04ac 7B8B      		std Y+19,r23
 4597 04ae 8C8B      		std Y+20,r24
 4598 04b0 9D8B      		std Y+21,r25
 4599 04b2 00C0      		rjmp .L387
 4600               	.L390:
 4601               	.LSM530:
 4602 04b4 8F89      		ldd r24,Y+23
 4603 04b6 81FD      		sbrc r24,1
 4604 04b8 00C0      		rjmp .L387
 4605               	.LSM531:
 4606 04ba 8260      		ori r24,lo8(2)
 4607 04bc 00C0      		rjmp .L422
 4608               	.L391:
 4609               	.LSM532:
 4610 04be 8F89      		ldd r24,Y+23
 4611 04c0 8B7F      		andi r24,lo8(-5)
 4612 04c2 00C0      		rjmp .L422
 4613               	.L452:
 4614               	.LSM533:
 4615 04c4 8F89      		ldd r24,Y+23
 4616 04c6 877F      		andi r24,lo8(-9)
 4617               	.L422:
 4618 04c8 8F8B      		std Y+23,r24
 4619               	.L387:
 4620               	.LSM534:
 4621 04ca D801      		movw r26,r16
 4622 04cc 1196      		adiw r26,1
 4623 04ce 6C91      		ld r22,X
 4624 04d0 70E0      		ldi r23,lo8(0)
 4625 04d2 7095      		com r23
 4626 04d4 6195      		neg r22
 4627 04d6 7F4F      		sbci r23,lo8(-1)
 4628 04d8 C501      		movw r24,r10
 4629 04da 0E94 0000 		call pbuf_header
 4630               	.LSM535:
 4631 04de F801      		movw r30,r16
 4632 04e0 8181      		ldd r24,Z+1
 4633 04e2 681A      		sub r6,r24
 4634 04e4 7108      		sbc r7,__zero_reg__
 4635               	.LVL327:
 4636               	.L415:
 4637               	.LSM536:
 4638 04e6 6114      		cp r6,__zero_reg__
 4639 04e8 7104      		cpc r7,__zero_reg__
 4640 04ea 01F0      		breq .+2
 4641 04ec 00C0      		rjmp .L395
 4642 04ee 00C0      		rjmp .L441
 4643               	.LVL328:
 4644               	.L336:
 4645               	.LSM537:
 4646 04f0 8C81      		ldd r24,Y+4
 4647 04f2 8230      		cpi r24,lo8(2)
 4648 04f4 00F4      		brsh .L416
 4649               	.L440:
 4650               	.LSM538:
 4651 04f6 0E94 0000 		call ppp_next_id
 4652 04fa 282F      		mov r18,r24
 4653 04fc CE01      		movw r24,r28
 4654 04fe 61E2      		ldi r22,lo8(-16351)
 4655 0500 70EC      		ldi r23,hi8(-16351)
 4656 0502 46E0      		ldi r20,lo8(6)
 4657 0504 00E0      		ldi r16,lo8(0)
 4658 0506 10E0      		ldi r17,hi8(0)
 4659               	.LVL329:
 4660 0508 00C0      		rjmp .L426
 4661               	.LVL330:
 4662               	.L404:
 4663               	.LSM539:
 4664 050a D501      		movw r26,r10
 4665 050c 1296      		adiw r26,2
 4666 050e 0D91      		ld r16,X+
 4667 0510 1C91      		ld r17,X
 4668 0512 1397      		sbiw r26,2+1
 4669               	.LVL331:
 4670               	.LSM540:
 4671 0514 F801      		movw r30,r16
 4672 0516 8081      		ld r24,Z
 4673 0518 8330      		cpi r24,lo8(3)
 4674 051a 01F0      		breq .L400
 4675 051c 8430      		cpi r24,lo8(4)
 4676 051e 00F4      		brsh .L403
 4677 0520 8130      		cpi r24,lo8(1)
 4678 0522 01F0      		breq .L398
 4679 0524 8230      		cpi r24,lo8(2)
 4680 0526 01F4      		brne .L397
 4681 0528 00C0      		rjmp .L453
 4682               	.L403:
 4683 052a 8730      		cpi r24,lo8(7)
 4684 052c 01F0      		breq .L401
 4685 052e 8830      		cpi r24,lo8(8)
 4686 0530 01F4      		brne .L397
 4687 0532 00C0      		rjmp .L454
 4688               	.L398:
 4689               	.LSM541:
 4690 0534 8F89      		ldd r24,Y+23
 4691 0536 8E7F      		andi r24,lo8(-2)
 4692 0538 00C0      		rjmp .L423
 4693               	.L453:
 4694               	.LSM542:
 4695 053a 8F89      		ldd r24,Y+23
 4696 053c 8F7E      		andi r24,lo8(-17)
 4697 053e 00C0      		rjmp .L423
 4698               	.L400:
 4699               	.LSM543:
 4700 0540 8F89      		ldd r24,Y+23
 4701 0542 8D7F      		andi r24,lo8(-3)
 4702 0544 00C0      		rjmp .L423
 4703               	.L401:
 4704               	.LSM544:
 4705 0546 8F89      		ldd r24,Y+23
 4706 0548 8B7F      		andi r24,lo8(-5)
 4707 054a 00C0      		rjmp .L423
 4708               	.L454:
 4709               	.LSM545:
 4710 054c 8F89      		ldd r24,Y+23
 4711 054e 877F      		andi r24,lo8(-9)
 4712               	.L423:
 4713 0550 8F8B      		std Y+23,r24
 4714               	.L397:
 4715               	.LSM546:
 4716 0552 D801      		movw r26,r16
 4717 0554 1196      		adiw r26,1
 4718 0556 6C91      		ld r22,X
 4719 0558 70E0      		ldi r23,lo8(0)
 4720 055a 7095      		com r23
 4721 055c 6195      		neg r22
 4722 055e 7F4F      		sbci r23,lo8(-1)
 4723 0560 C501      		movw r24,r10
 4724 0562 0E94 0000 		call pbuf_header
 4725               	.LSM547:
 4726 0566 F801      		movw r30,r16
 4727 0568 8181      		ldd r24,Z+1
 4728 056a 681A      		sub r6,r24
 4729 056c 7108      		sbc r7,__zero_reg__
 4730               	.LVL332:
 4731               	.L416:
 4732               	.LSM548:
 4733 056e 6114      		cp r6,__zero_reg__
 4734 0570 7104      		cpc r7,__zero_reg__
 4735 0572 01F4      		brne .L404
 4736               	.L441:
 4737               	.LSM549:
 4738 0574 CE01      		movw r24,r28
 4739 0576 60E0      		ldi r22,lo8(0)
 4740 0578 70E0      		ldi r23,hi8(0)
 4741 057a 0E94 0000 		call lcp_cfg_req
 4742 057e 8C01      		movw r16,r24
 4743               	.LVL333:
 4744               	.LSM550:
 4745 0580 0E94 0000 		call ppp_next_id
 4746 0584 282F      		mov r18,r24
 4747 0586 CE01      		movw r24,r28
 4748 0588 61E2      		ldi r22,lo8(-16351)
 4749 058a 70EC      		ldi r23,hi8(-16351)
 4750 058c 41E0      		ldi r20,lo8(1)
 4751 058e 00C0      		rjmp .L426
 4752               	.LVL334:
 4753               	.L448:
 4754               	.LSM551:
 4755 0590 C501      		movw r24,r10
 4756 0592 0E94 0000 		call ppp_pbuf_ref_chain
 4757               	.LSM552:
 4758 0596 CE01      		movw r24,r28
 4759 0598 61E2      		ldi r22,lo8(-16351)
 4760 059a 70EC      		ldi r23,hi8(-16351)
 4761 059c 46E0      		ldi r20,lo8(6)
 4762 059e D201      		movw r26,r4
 4763 05a0 1196      		adiw r26,1
 4764 05a2 2C91      		ld r18,X
 4765 05a4 8501      		movw r16,r10
 4766               	.LVL335:
 4767 05a6 0E94 0000 		call ppp_cp_output
 4768               	.LVL336:
 4769               	.L338:
 4770               	.LSM553:
 4771 05aa 8C81      		ldd r24,Y+4
 4772 05ac 8230      		cpi r24,lo8(2)
 4773 05ae 00F4      		brsh .+2
 4774 05b0 00C0      		rjmp .L414
 4775               	.LSM554:
 4776 05b2 1C82      		std Y+4,__zero_reg__
 4777               	.LSM555:
 4778 05b4 EAA1      		ldd r30,Y+34
 4779 05b6 FBA1      		ldd r31,Y+35
 4780 05b8 3097      		sbiw r30,0
 4781 05ba 01F4      		brne .+2
 4782 05bc 00C0      		rjmp .L413
 4783 05be 8E8D      		ldd r24,Y+30
 4784 05c0 9F8D      		ldd r25,Y+31
 4785 05c2 BE01      		movw r22,r28
 4786 05c4 41E2      		ldi r20,lo8(-16351)
 4787 05c6 50EC      		ldi r21,hi8(-16351)
 4788 05c8 20E0      		ldi r18,lo8(0)
 4789 05ca 0995      		icall
 4790 05cc 00C0      		rjmp .L414
 4791               	.L339:
 4792               	.LSM556:
 4793 05ce 8C81      		ldd r24,Y+4
 4794 05d0 8230      		cpi r24,lo8(2)
 4795 05d2 00F4      		brsh .+2
 4796 05d4 00C0      		rjmp .L414
 4797               	.LSM557:
 4798 05d6 D501      		movw r26,r10
 4799 05d8 1296      		adiw r26,2
 4800 05da ED91      		ld r30,X+
 4801 05dc FC91      		ld r31,X
 4802 05de 1397      		sbiw r26,2+1
 4803 05e0 E081      		ld r30,Z
 4804 05e2 E530      		cpi r30,lo8(5)
 4805 05e4 01F0      		breq .L408
 4806 05e6 E630      		cpi r30,lo8(6)
 4807 05e8 00F4      		brsh .L410
 4808 05ea E130      		cpi r30,lo8(1)
 4809 05ec 00F0      		brlo .L340
 4810 05ee 00C0      		rjmp .L455
 4811               	.L410:
 4812 05f0 E930      		cpi r30,lo8(9)
 4813 05f2 01F4      		brne .L340
 4814 05f4 00C0      		rjmp .L456
 4815               	.L455:
 4816               	.LSM558:
 4817 05f6 1C82      		std Y+4,__zero_reg__
 4818               	.LSM559:
 4819 05f8 E8A1      		ldd r30,Y+32
 4820 05fa F9A1      		ldd r31,Y+33
 4821 05fc 00C0      		rjmp .L437
 4822               	.L408:
 4823               	.LSM560:
 4824 05fe 1C82      		std Y+4,__zero_reg__
 4825               	.LSM561:
 4826 0600 EAA1      		ldd r30,Y+34
 4827 0602 FBA1      		ldd r31,Y+35
 4828 0604 3097      		sbiw r30,0
 4829 0606 01F0      		breq .L411
 4830 0608 8E8D      		ldd r24,Y+30
 4831 060a 9F8D      		ldd r25,Y+31
 4832 060c BE01      		movw r22,r28
 4833 060e 41E2      		ldi r20,lo8(-16351)
 4834 0610 50EC      		ldi r21,hi8(-16351)
 4835 0612 28EF      		ldi r18,lo8(-8)
 4836 0614 0995      		icall
 4837 0616 00C0      		rjmp .L340
 4838               	.L411:
 4839 0618 8C8D      		ldd r24,Y+28
 4840 061a 9D8D      		ldd r25,Y+29
 4841 061c 0E94 0000 		call netif_remove
 4842 0620 CE01      		movw r24,r28
 4843 0622 0E94 0000 		call ppp_close
 4844 0626 00C0      		rjmp .L340
 4845               	.L456:
 4846               	.LSM562:
 4847 0628 ECA1      		ldd r30,Y+36
 4848 062a FDA1      		ldd r31,Y+37
 4849               	.L437:
 4850 062c 3097      		sbiw r30,0
 4851 062e 01F0      		breq .L340
 4852 0630 8E8D      		ldd r24,Y+30
 4853 0632 9F8D      		ldd r25,Y+31
 4854 0634 BE01      		movw r22,r28
 4855 0636 48EF      		ldi r20,lo8(-8)
 4856 0638 0995      		icall
 4857               	.L340:
 4858               	.LSM563:
 4859 063a 8C81      		ldd r24,Y+4
 4860 063c 8330      		cpi r24,lo8(3)
 4861 063e 01F4      		brne .L412
 4862               	.LSM564:
 4863 0640 0E94 0000 		call ppp_next_id
 4864 0644 282F      		mov r18,r24
 4865 0646 CE01      		movw r24,r28
 4866 0648 61E2      		ldi r22,lo8(-16351)
 4867 064a 70EC      		ldi r23,hi8(-16351)
 4868 064c 45E0      		ldi r20,lo8(5)
 4869 064e 00E0      		ldi r16,lo8(0)
 4870 0650 10E0      		ldi r17,hi8(0)
 4871               	.LVL337:
 4872 0652 0E94 0000 		call ppp_cp_output
 4873               	.LSM565:
 4874 0656 86E0      		ldi r24,lo8(6)
 4875 0658 8C83      		std Y+4,r24
 4876 065a 00C0      		rjmp .L414
 4877               	.LVL338:
 4878               	.L412:
 4879               	.LSM566:
 4880 065c 1C82      		std Y+4,__zero_reg__
 4881               	.LSM567:
 4882 065e AAA1      		ldd r26,Y+34
 4883 0660 BBA1      		ldd r27,Y+35
 4884 0662 1097      		sbiw r26,0
 4885 0664 01F0      		breq .L413
 4886 0666 F501      		movw r30,r10
 4887 0668 8281      		ldd r24,Z+2
 4888 066a 9381      		ldd r25,Z+3
 4889 066c FC01      		movw r30,r24
 4890 066e 4081      		ld r20,Z
 4891 0670 5181      		ldd r21,Z+1
 4892 0672 8E8D      		ldd r24,Y+30
 4893 0674 9F8D      		ldd r25,Y+31
 4894 0676 BE01      		movw r22,r28
 4895 0678 28EF      		ldi r18,lo8(-8)
 4896 067a FD01      		movw r30,r26
 4897 067c 0995      		icall
 4898 067e 00C0      		rjmp .L414
 4899               	.L413:
 4900 0680 8C8D      		ldd r24,Y+28
 4901 0682 9D8D      		ldd r25,Y+29
 4902 0684 0E94 0000 		call netif_remove
 4903 0688 CE01      		movw r24,r28
 4904 068a 0E94 0000 		call ppp_close
 4905 068e 00C0      		rjmp .L414
 4906               	.L341:
 4907               	.LSM568:
 4908 0690 C501      		movw r24,r10
 4909 0692 0E94 0000 		call pbuf_ref
 4910               	.LSM569:
 4911 0696 CE01      		movw r24,r28
 4912 0698 61E2      		ldi r22,lo8(-16351)
 4913 069a 70EC      		ldi r23,hi8(-16351)
 4914 069c 4AE0      		ldi r20,lo8(10)
 4915 069e D201      		movw r26,r4
 4916 06a0 1196      		adiw r26,1
 4917 06a2 2C91      		ld r18,X
 4918 06a4 00C0      		rjmp .L425
 4919               	.L342:
 4920               	.LSM570:
 4921 06a6 ECA1      		ldd r30,Y+36
 4922 06a8 FDA1      		ldd r31,Y+37
 4923 06aa 3097      		sbiw r30,0
 4924 06ac 01F0      		breq .L414
 4925 06ae 8E8D      		ldd r24,Y+30
 4926 06b0 9F8D      		ldd r25,Y+31
 4927 06b2 BE01      		movw r22,r28
 4928 06b4 40E0      		ldi r20,lo8(0)
 4929               	.L428:
 4930 06b6 0995      		icall
 4931 06b8 00C0      		rjmp .L414
 4932               	.L332:
 4933               	.LSM571:
 4934 06ba C501      		movw r24,r10
 4935 06bc 64E0      		ldi r22,lo8(4)
 4936 06be 70E0      		ldi r23,hi8(4)
 4937 06c0 0E94 0000 		call pbuf_header
 4938               	.LSM572:
 4939 06c4 C501      		movw r24,r10
 4940 06c6 0E94 0000 		call ppp_pbuf_ref_chain
 4941               	.LSM573:
 4942 06ca CE01      		movw r24,r28
 4943 06cc 61E2      		ldi r22,lo8(-16351)
 4944 06ce 70EC      		ldi r23,hi8(-16351)
 4945 06d0 47E0      		ldi r20,lo8(7)
 4946 06d2 F201      		movw r30,r4
 4947 06d4 2181      		ldd r18,Z+1
 4948               	.L425:
 4949 06d6 8501      		movw r16,r10
 4950               	.LVL339:
 4951               	.L426:
 4952 06d8 0E94 0000 		call ppp_cp_output
 4953 06dc 00C0      		rjmp .L414
 4954               	.LVL340:
 4955               	.L363:
 4956 06de 7801      		movw r14,r16
 4957 06e0 00C0      		rjmp .L364
 4958               	.LVL341:
 4959               	.L414:
 4960               	/* epilogue start */
 4961               	.LSM574:
 4962 06e2 DF91      		pop r29
 4963 06e4 CF91      		pop r28
 4964               	.LVL342:
 4965 06e6 1F91      		pop r17
 4966 06e8 0F91      		pop r16
 4967               	.LVL343:
 4968 06ea FF90      		pop r15
 4969 06ec EF90      		pop r14
 4970               	.LVL344:
 4971 06ee DF90      		pop r13
 4972 06f0 CF90      		pop r12
 4973               	.LVL345:
 4974 06f2 BF90      		pop r11
 4975 06f4 AF90      		pop r10
 4976               	.LVL346:
 4977 06f6 9F90      		pop r9
 4978               	.LVL347:
 4979 06f8 7F90      		pop r7
 4980 06fa 6F90      		pop r6
 4981               	.LVL348:
 4982 06fc 5F90      		pop r5
 4983 06fe 4F90      		pop r4
 4984               	.LVL349:
 4985 0700 0895      		ret
 4986               	.LFE6:
 4988               		.section	.text.ppp_input,"ax",@progbits
 4989               	.global	ppp_input
 4991               	ppp_input:
 4992               	.LFB9:
 4993               	.LSM575:
 4994               	.LVL350:
 4995 0000 3F92      		push r3
 4996 0002 4F92      		push r4
 4997 0004 5F92      		push r5
 4998 0006 6F92      		push r6
 4999 0008 7F92      		push r7
 5000 000a 8F92      		push r8
 5001 000c 9F92      		push r9
 5002 000e AF92      		push r10
 5003 0010 BF92      		push r11
 5004 0012 CF92      		push r12
 5005 0014 DF92      		push r13
 5006 0016 EF92      		push r14
 5007 0018 FF92      		push r15
 5008 001a 0F93      		push r16
 5009 001c 1F93      		push r17
 5010 001e CF93      		push r28
 5011 0020 DF93      		push r29
 5012               	/* prologue: function */
 5013               	/* frame size = 0 */
 5014 0022 542E      		mov r5,r20
 5015 0024 452E      		mov r4,r21
 5016               	.LVL351:
 5017               	.LSM576:
 5018 0026 C091 0000 		lds r28,ppp_active_pcbs
 5019 002a D091 0000 		lds r29,(ppp_active_pcbs)+1
 5020               	.LVL352:
 5021 002e 00C0      		rjmp .L458
 5022               	.LVL353:
 5023               	.L460:
 5024               	.LSM577:
 5025 0030 8A81      		ldd r24,Y+2
 5026 0032 9B81      		ldd r25,Y+3
 5027               	.LVL354:
 5028 0034 8617      		cp r24,r22
 5029 0036 9707      		cpc r25,r23
 5030 0038 01F0      		breq .L459
 5031               	.LSM578:
 5032 003a 0990      		ld __tmp_reg__,Y+
 5033 003c D881      		ld r29,Y
 5034 003e C02D      		mov r28,__tmp_reg__
 5035               	.LVL355:
 5036               	.L458:
 5037 0040 2097      		sbiw r28,0
 5038 0042 01F4      		brne .L460
 5039 0044 00C0      		rjmp .L505
 5040               	.L462:
 5041               	.LSM579:
 5042 0046 8A81      		ldd r24,Y+2
 5043 0048 9B81      		ldd r25,Y+3
 5044               	.LVL356:
 5045 004a 8617      		cp r24,r22
 5046 004c 9707      		cpc r25,r23
 5047 004e 01F0      		breq .L459
 5048               	.LSM580:
 5049 0050 0990      		ld __tmp_reg__,Y+
 5050 0052 D881      		ld r29,Y
 5051 0054 C02D      		mov r28,__tmp_reg__
 5052               	.LVL357:
 5053               	.L495:
 5054 0056 2097      		sbiw r28,0
 5055 0058 01F4      		brne .L462
 5056 005a 00C0      		rjmp .L504
 5057               	.LVL358:
 5058               	.L459:
 5059 005c 852D      		mov r24,r5
 5060               	.LVL359:
 5061 005e 942D      		mov r25,r4
 5062               	.LVL360:
 5063 0060 9C01      		movw r18,r24
 5064               	.LVL361:
 5065 0062 4901      		movw r8,r18
 5066               	.LVL362:
 5067               	.LSM581:
 5068 0064 70E2      		ldi r23,lo8(32)
 5069 0066 372E      		mov r3,r23
 5070 0068 00C0      		rjmp .L464
 5071               	.LVL363:
 5072               	.L494:
 5073               	.LSM582:
 5074 006a D401      		movw r26,r8
 5075 006c 1296      		adiw r26,2
 5076 006e 6D90      		ld r6,X+
 5077 0070 7C90      		ld r7,X
 5078 0072 1397      		sbiw r26,2+1
 5079 0074 AA24      		clr r10
 5080 0076 BB24      		clr r11
 5081 0078 00C0      		rjmp .L465
 5082               	.L493:
 5083               	.LSM583:
 5084 007a 8D81      		ldd r24,Y+5
 5085 007c 9E81      		ldd r25,Y+6
 5086 007e 892B      		or r24,r25
 5087 0080 01F4      		brne .L466
 5088               	.LSM584:
 5089 0082 83E0      		ldi r24,lo8(3)
 5090 0084 66EB      		ldi r22,lo8(182)
 5091 0086 70E0      		ldi r23,hi8(182)
 5092               	.LVL364:
 5093 0088 43E0      		ldi r20,lo8(3)
 5094 008a 0E94 0000 		call pbuf_alloc
 5095               	.LVL365:
 5096 008e 9E83      		std Y+6,r25
 5097 0090 8D83      		std Y+5,r24
 5098 0092 0097      		sbiw r24,0
 5099 0094 01F4      		brne .+2
 5100 0096 00C0      		rjmp .L503
 5101               	.L467:
 5102               	.LSM585:
 5103 0098 9887      		std Y+8,r25
 5104 009a 8F83      		std Y+7,r24
 5105               	.LSM586:
 5106 009c 1A86      		std Y+10,__zero_reg__
 5107 009e 1986      		std Y+9,__zero_reg__
 5108               	.LSM587:
 5109 00a0 1C86      		std Y+12,__zero_reg__
 5110 00a2 1B86      		std Y+11,__zero_reg__
 5111               	.LVL366:
 5112               	.L466:
 5113               	.LSM588:
 5114 00a4 F301      		movw r30,r6
 5115 00a6 EA0D      		add r30,r10
 5116 00a8 FB1D      		adc r31,r11
 5117 00aa E081      		ld r30,Z
 5118 00ac ED37      		cpi r30,lo8(125)
 5119 00ae 01F4      		brne .+2
 5120 00b0 00C0      		rjmp .L470
 5121 00b2 EE37      		cpi r30,lo8(126)
 5122 00b4 01F0      		breq .+2
 5123 00b6 00C0      		rjmp .L469
 5124               	.LSM589:
 5125 00b8 6985      		ldd r22,Y+9
 5126 00ba 7A85      		ldd r23,Y+10
 5127               	.LVL367:
 5128 00bc 6115      		cp r22,__zero_reg__
 5129 00be 7105      		cpc r23,__zero_reg__
 5130 00c0 01F4      		brne .+2
 5131 00c2 00C0      		rjmp .L472
 5132               	.LSM590:
 5133 00c4 8D81      		ldd r24,Y+5
 5134 00c6 9E81      		ldd r25,Y+6
 5135 00c8 0E94 0000 		call fcs16_crc_check
 5136               	.LVL368:
 5137 00cc 2D81      		ldd r18,Y+5
 5138 00ce 3E81      		ldd r19,Y+6
 5139 00d0 8823      		tst r24
 5140 00d2 01F0      		breq .L473
 5141               	.LSM591:
 5142 00d4 C901      		movw r24,r18
 5143 00d6 00C0      		rjmp .L501
 5144               	.L473:
 5145               	.LSM592:
 5146 00d8 6985      		ldd r22,Y+9
 5147 00da 7A85      		ldd r23,Y+10
 5148 00dc 6250      		subi r22,lo8(-(-2))
 5149 00de 7040      		sbci r23,hi8(-(-2))
 5150 00e0 C901      		movw r24,r18
 5151 00e2 0E94 0000 		call pbuf_realloc
 5152               	.LSM593:
 5153 00e6 ED81      		ldd r30,Y+5
 5154 00e8 FE81      		ldd r31,Y+6
 5155 00ea 0280      		ldd __tmp_reg__,Z+2
 5156 00ec F381      		ldd r31,Z+3
 5157 00ee E02D      		mov r30,__tmp_reg__
 5158 00f0 8081      		ld r24,Z
 5159 00f2 9181      		ldd r25,Z+1
 5160 00f4 0E94 0000 		call ntohs
 5161 00f8 8350      		subi r24,lo8(-253)
 5162 00fa 9F4F      		sbci r25,hi8(-253)
 5163 00fc 01F0      		breq .L474
 5164               	.LSM594:
 5165 00fe 888D      		ldd r24,Y+24
 5166 0100 86FD      		sbrc r24,6
 5167 0102 00C0      		rjmp .L475
 5168 0104 00C0      		rjmp .L500
 5169               	.L474:
 5170               	.LSM595:
 5171 0106 8D81      		ldd r24,Y+5
 5172 0108 9E81      		ldd r25,Y+6
 5173 010a 6EEF      		ldi r22,lo8(-2)
 5174 010c 7FEF      		ldi r23,hi8(-2)
 5175 010e 0E94 0000 		call pbuf_header
 5176               	.L475:
 5177               	.LSM596:
 5178 0112 AD81      		ldd r26,Y+5
 5179 0114 BE81      		ldd r27,Y+6
 5180 0116 1296      		adiw r26,2
 5181 0118 ED91      		ld r30,X+
 5182 011a FC91      		ld r31,X
 5183 011c 1397      		sbiw r26,2+1
 5184 011e 8081      		ld r24,Z
 5185 0120 282F      		mov r18,r24
 5186 0122 80FF      		sbrs r24,0
 5187 0124 00C0      		rjmp .L476
 5188 0126 888D      		ldd r24,Y+24
 5189 0128 84FF      		sbrs r24,4
 5190 012a 00C0      		rjmp .L476
 5191               	.LSM597:
 5192 012c 822F      		mov r24,r18
 5193               	.LVL369:
 5194 012e 90E0      		ldi r25,lo8(0)
 5195               	.LVL370:
 5196 0130 6C01      		movw r12,r24
 5197               	.LSM598:
 5198 0132 CD01      		movw r24,r26
 5199               	.LVL371:
 5200 0134 6FEF      		ldi r22,lo8(-1)
 5201 0136 7FEF      		ldi r23,hi8(-1)
 5202 0138 00C0      		rjmp .L499
 5203               	.LVL372:
 5204               	.L476:
 5205               	.LSM599:
 5206 013a 8081      		ld r24,Z
 5207 013c 9181      		ldd r25,Z+1
 5208 013e 0E94 0000 		call ntohs
 5209 0142 6C01      		movw r12,r24
 5210               	.LSM600:
 5211 0144 8D81      		ldd r24,Y+5
 5212 0146 9E81      		ldd r25,Y+6
 5213 0148 6EEF      		ldi r22,lo8(-2)
 5214 014a 7FEF      		ldi r23,hi8(-2)
 5215               	.LVL373:
 5216               	.L499:
 5217 014c 0E94 0000 		call pbuf_header
 5218               	.LVL374:
 5219               	.LSM601:
 5220 0150 4D81      		ldd r20,Y+5
 5221 0152 5E81      		ldd r21,Y+6
 5222               	.LVL375:
 5223 0154 FA01      		movw r30,r20
 5224 0156 2481      		ldd r18,Z+4
 5225 0158 3581      		ldd r19,Z+5
 5226 015a 8889      		ldd r24,Y+16
 5227 015c 9989      		ldd r25,Y+17
 5228 015e 8217      		cp r24,r18
 5229 0160 9307      		cpc r25,r19
 5230 0162 00F0      		brlo .L487
 5231               	.L478:
 5232               	.LSM602:
 5233 0164 F1E2      		ldi r31,lo8(-32735)
 5234 0166 CF16      		cp r12,r31
 5235 0168 F0E8      		ldi r31,hi8(-32735)
 5236 016a DF06      		cpc r13,r31
 5237 016c 01F0      		breq .L481
 5238 016e 22E2      		ldi r18,lo8(-32734)
 5239 0170 C216      		cp r12,r18
 5240 0172 20E8      		ldi r18,hi8(-32734)
 5241 0174 D206      		cpc r13,r18
 5242 0176 00F4      		brsh .L484
 5243 0178 81E2      		ldi r24,lo8(33)
 5244 017a C816      		cp r12,r24
 5245 017c D104      		cpc r13,__zero_reg__
 5246 017e 01F4      		brne .L479
 5247 0180 00C0      		rjmp .L506
 5248               	.L484:
 5249 0182 A1E2      		ldi r26,lo8(-16351)
 5250 0184 CA16      		cp r12,r26
 5251 0186 A0EC      		ldi r26,hi8(-16351)
 5252 0188 DA06      		cpc r13,r26
 5253 018a 01F0      		breq .L482
 5254 018c B3E2      		ldi r27,lo8(-16349)
 5255 018e CB16      		cp r12,r27
 5256 0190 B0EC      		ldi r27,hi8(-16349)
 5257 0192 DB06      		cpc r13,r27
 5258 0194 01F4      		brne .L479
 5259 0196 00C0      		rjmp .L487
 5260               	.L482:
 5261               	.LSM603:
 5262 0198 CE01      		movw r24,r28
 5263 019a BA01      		movw r22,r20
 5264 019c 0E94 0000 		call ppp_process_lcp
 5265               	.LVL376:
 5266 01a0 00C0      		rjmp .L500
 5267               	.LVL377:
 5268               	.L481:
 5269               	.LSM604:
 5270 01a2 CE01      		movw r24,r28
 5271 01a4 BA01      		movw r22,r20
 5272 01a6 0E94 0000 		call ppp_process_ipcp
 5273               	.LVL378:
 5274 01aa 00C0      		rjmp .L500
 5275               	.LVL379:
 5276               	.L506:
 5277               	.LSM605:
 5278 01ac FA01      		movw r30,r20
 5279               	.LVL380:
 5280               	.L486:
 5281               	.LSM606:
 5282 01ae 3097      		sbiw r30,0
 5283 01b0 01F0      		breq .L485
 5284 01b2 0190      		ld __tmp_reg__,Z+
 5285 01b4 F081      		ld r31,Z
 5286 01b6 E02D      		mov r30,__tmp_reg__
 5287 01b8 00C0      		rjmp .L486
 5288               	.LVL381:
 5289               	.L485:
 5290               	.LSM607:
 5291 01ba AC8D      		ldd r26,Y+28
 5292 01bc BD8D      		ldd r27,Y+29
 5293 01be 1097      		sbiw r26,0
 5294 01c0 01F0      		breq .L487
 5295 01c2 1E96      		adiw r26,14
 5296 01c4 ED91      		ld r30,X+
 5297 01c6 FC91      		ld r31,X
 5298 01c8 1F97      		sbiw r26,14+1
 5299               	.LVL382:
 5300 01ca CA01      		movw r24,r20
 5301 01cc BD01      		movw r22,r26
 5302 01ce 0995      		icall
 5303               	.LVL383:
 5304 01d0 00C0      		rjmp .L502
 5305               	.LVL384:
 5306               	.L487:
 5307 01d2 CA01      		movw r24,r20
 5308 01d4 00C0      		rjmp .L501
 5309               	.LVL385:
 5310               	.L479:
 5311               	.LSM608:
 5312 01d6 83E0      		ldi r24,lo8(3)
 5313 01d8 62E0      		ldi r22,lo8(2)
 5314 01da 70E0      		ldi r23,hi8(2)
 5315 01dc 40E0      		ldi r20,lo8(0)
 5316               	.LVL386:
 5317 01de 0E94 0000 		call pbuf_alloc
 5318 01e2 7C01      		movw r14,r24
 5319               	.LVL387:
 5320               	.LSM609:
 5321 01e4 FC01      		movw r30,r24
 5322 01e6 0281      		ldd r16,Z+2
 5323 01e8 1381      		ldd r17,Z+3
 5324 01ea C601      		movw r24,r12
 5325 01ec 0E94 0000 		call htons
 5326 01f0 D801      		movw r26,r16
 5327 01f2 8D93      		st X+,r24
 5328 01f4 9C93      		st X,r25
 5329               	.LSM610:
 5330 01f6 6D81      		ldd r22,Y+5
 5331 01f8 7E81      		ldd r23,Y+6
 5332 01fa C701      		movw r24,r14
 5333 01fc 0E94 0000 		call pbuf_chain
 5334               	.LSM611:
 5335 0200 8D81      		ldd r24,Y+5
 5336 0202 9E81      		ldd r25,Y+6
 5337 0204 0E94 0000 		call pbuf_free
 5338               	.LSM612:
 5339 0208 1E82      		std Y+6,__zero_reg__
 5340 020a 1D82      		std Y+5,__zero_reg__
 5341               	.LSM613:
 5342 020c 0E94 0000 		call ppp_next_id
 5343 0210 282F      		mov r18,r24
 5344 0212 CE01      		movw r24,r28
 5345 0214 61E2      		ldi r22,lo8(-16351)
 5346 0216 70EC      		ldi r23,hi8(-16351)
 5347 0218 48E0      		ldi r20,lo8(8)
 5348 021a 8701      		movw r16,r14
 5349 021c 0E94 0000 		call ppp_cp_output
 5350 0220 00C0      		rjmp .L472
 5351               	.LVL388:
 5352               	.L470:
 5353               	.LSM614:
 5354 0222 F401      		movw r30,r8
 5355 0224 8681      		ldd r24,Z+6
 5356 0226 9781      		ldd r25,Z+7
 5357 0228 0197      		sbiw r24,1
 5358 022a A816      		cp r10,r24
 5359 022c B906      		cpc r11,r25
 5360 022e 00F4      		brsh .L489
 5361               	.LSM615:
 5362 0230 0894      		sec
 5363 0232 A11C      		adc r10,__zero_reg__
 5364 0234 B11C      		adc r11,__zero_reg__
 5365 0236 00C0      		rjmp .L490
 5366               	.L489:
 5367               	.LSM616:
 5368 0238 D401      		movw r26,r8
 5369 023a ED91      		ld r30,X+
 5370 023c FC91      		ld r31,X
 5371               	.LVL389:
 5372 023e 3097      		sbiw r30,0
 5373 0240 01F4      		brne .+2
 5374 0242 00C0      		rjmp .L472
 5375               	.LSM617:
 5376 0244 6280      		ldd r6,Z+2
 5377 0246 7380      		ldd r7,Z+3
 5378 0248 4F01      		movw r8,r30
 5379 024a AA24      		clr r10
 5380 024c BB24      		clr r11
 5381               	.LVL390:
 5382               	.L490:
 5383               	.LSM618:
 5384 024e F301      		movw r30,r6
 5385 0250 EA0D      		add r30,r10
 5386 0252 FB1D      		adc r31,r11
 5387 0254 8081      		ld r24,Z
 5388 0256 8325      		eor r24,r3
 5389 0258 8083      		st Z,r24
 5390               	.L469:
 5391               	.LSM619:
 5392 025a EF81      		ldd r30,Y+7
 5393 025c F885      		ldd r31,Y+8
 5394 025e A281      		ldd r26,Z+2
 5395 0260 B381      		ldd r27,Z+3
 5396 0262 8B85      		ldd r24,Y+11
 5397 0264 9C85      		ldd r25,Y+12
 5398 0266 A80F      		add r26,r24
 5399 0268 B91F      		adc r27,r25
 5400 026a F301      		movw r30,r6
 5401 026c EA0D      		add r30,r10
 5402 026e FB1D      		adc r31,r11
 5403 0270 8081      		ld r24,Z
 5404 0272 8C93      		st X,r24
 5405               	.LSM620:
 5406 0274 8985      		ldd r24,Y+9
 5407 0276 9A85      		ldd r25,Y+10
 5408 0278 0196      		adiw r24,1
 5409 027a 9A87      		std Y+10,r25
 5410 027c 8987      		std Y+9,r24
 5411               	.LSM621:
 5412 027e 8B85      		ldd r24,Y+11
 5413 0280 9C85      		ldd r25,Y+12
 5414 0282 0196      		adiw r24,1
 5415 0284 9C87      		std Y+12,r25
 5416 0286 8B87      		std Y+11,r24
 5417               	.LSM622:
 5418 0288 EF81      		ldd r30,Y+7
 5419 028a F885      		ldd r31,Y+8
 5420 028c 2681      		ldd r18,Z+6
 5421 028e 3781      		ldd r19,Z+7
 5422 0290 8217      		cp r24,r18
 5423 0292 9307      		cpc r25,r19
 5424 0294 01F4      		brne .L491
 5425               	.LSM623:
 5426 0296 1C86      		std Y+12,__zero_reg__
 5427 0298 1B86      		std Y+11,__zero_reg__
 5428               	.LSM624:
 5429 029a 83E0      		ldi r24,lo8(3)
 5430 029c 66EB      		ldi r22,lo8(182)
 5431 029e 70E0      		ldi r23,hi8(182)
 5432               	.LVL391:
 5433 02a0 43E0      		ldi r20,lo8(3)
 5434 02a2 0E94 0000 		call pbuf_alloc
 5435               	.LVL392:
 5436 02a6 BC01      		movw r22,r24
 5437 02a8 9887      		std Y+8,r25
 5438 02aa 8F83      		std Y+7,r24
 5439 02ac 0097      		sbiw r24,0
 5440 02ae 01F4      		brne .L492
 5441               	.L503:
 5442               	.LSM625:
 5443 02b0 852D      		mov r24,r5
 5444 02b2 942D      		mov r25,r4
 5445 02b4 0E94 0000 		call pbuf_free
 5446 02b8 8FEF      		ldi r24,lo8(-1)
 5447 02ba 00C0      		rjmp .L468
 5448               	.L492:
 5449               	.LSM626:
 5450 02bc 8D81      		ldd r24,Y+5
 5451 02be 9E81      		ldd r25,Y+6
 5452 02c0 0E94 0000 		call pbuf_chain
 5453               	.LSM627:
 5454 02c4 8F81      		ldd r24,Y+7
 5455 02c6 9885      		ldd r25,Y+8
 5456 02c8 0E94 0000 		call pbuf_free
 5457               	.LVL393:
 5458               	.L491:
 5459               	.LSM628:
 5460 02cc 8985      		ldd r24,Y+9
 5461 02ce 9A85      		ldd r25,Y+10
 5462 02d0 8D5D      		subi r24,lo8(1501)
 5463 02d2 9540      		sbci r25,hi8(1501)
 5464 02d4 00F0      		brlo .L472
 5465               	.L500:
 5466               	.LSM629:
 5467 02d6 8D81      		ldd r24,Y+5
 5468 02d8 9E81      		ldd r25,Y+6
 5469               	.LVL394:
 5470               	.L501:
 5471 02da 0E94 0000 		call pbuf_free
 5472               	.LVL395:
 5473               	.L502:
 5474               	.LSM630:
 5475 02de 1E82      		std Y+6,__zero_reg__
 5476 02e0 1D82      		std Y+5,__zero_reg__
 5477               	.LVL396:
 5478               	.L472:
 5479               	.LSM631:
 5480 02e2 0894      		sec
 5481 02e4 A11C      		adc r10,__zero_reg__
 5482 02e6 B11C      		adc r11,__zero_reg__
 5483               	.L465:
 5484 02e8 F401      		movw r30,r8
 5485 02ea 8681      		ldd r24,Z+6
 5486 02ec 9781      		ldd r25,Z+7
 5487 02ee A816      		cp r10,r24
 5488 02f0 B906      		cpc r11,r25
 5489 02f2 00F4      		brsh .+2
 5490 02f4 00C0      		rjmp .L493
 5491               	.LSM632:
 5492 02f6 8080      		ld r8,Z
 5493 02f8 9180      		ldd r9,Z+1
 5494               	.LVL397:
 5495               	.L464:
 5496 02fa 8114      		cp r8,__zero_reg__
 5497 02fc 9104      		cpc r9,__zero_reg__
 5498 02fe 01F0      		breq .+2
 5499 0300 00C0      		rjmp .L494
 5500               	.LVL398:
 5501               	.L504:
 5502               	.LSM633:
 5503 0302 852D      		mov r24,r5
 5504               	.LVL399:
 5505 0304 942D      		mov r25,r4
 5506               	.LVL400:
 5507 0306 0E94 0000 		call pbuf_free
 5508               	.LVL401:
 5509 030a 80E0      		ldi r24,lo8(0)
 5510               	.L468:
 5511               	/* epilogue start */
 5512               	.LSM634:
 5513 030c DF91      		pop r29
 5514 030e CF91      		pop r28
 5515               	.LVL402:
 5516 0310 1F91      		pop r17
 5517 0312 0F91      		pop r16
 5518 0314 FF90      		pop r15
 5519 0316 EF90      		pop r14
 5520               	.LVL403:
 5521 0318 DF90      		pop r13
 5522 031a CF90      		pop r12
 5523               	.LVL404:
 5524 031c BF90      		pop r11
 5525 031e AF90      		pop r10
 5526               	.LVL405:
 5527 0320 9F90      		pop r9
 5528 0322 8F90      		pop r8
 5529               	.LVL406:
 5530 0324 7F90      		pop r7
 5531 0326 6F90      		pop r6
 5532               	.LVL407:
 5533 0328 5F90      		pop r5
 5534               	.LVL408:
 5535 032a 4F90      		pop r4
 5536               	.LVL409:
 5537 032c 3F90      		pop r3
 5538 032e 0895      		ret
 5539               	.LVL410:
 5540               	.L505:
 5541               	.LSM635:
 5542 0330 C091 0000 		lds r28,ppp_listen_pcbs
 5543 0334 D091 0000 		lds r29,(ppp_listen_pcbs)+1
 5544 0338 00C0      		rjmp .L495
 5545               	.LFE9:
 5547               		.comm ppp_listen_pcbs,2,1
 5548               		.comm ppp_active_pcbs,2,1
 5549               		.comm ppp_tmp_pcb,2,1
 5550               		.comm ppp_tmp_req,2,1
 5551               		.comm id_nxt,1,1
 5768               	.Letext0:
DEFINED SYMBOLS
                            *ABS*:00000000 ppp.c
C:\DOCUME~1\ADMINI~1\LOCALS~1\Temp/cc4ZFZHJ.s:2      *ABS*:0000003f __SREG__
C:\DOCUME~1\ADMINI~1\LOCALS~1\Temp/cc4ZFZHJ.s:3      *ABS*:0000003e __SP_H__
C:\DOCUME~1\ADMINI~1\LOCALS~1\Temp/cc4ZFZHJ.s:4      *ABS*:0000003d __SP_L__
C:\DOCUME~1\ADMINI~1\LOCALS~1\Temp/cc4ZFZHJ.s:5      *ABS*:00000034 __CCP__
C:\DOCUME~1\ADMINI~1\LOCALS~1\Temp/cc4ZFZHJ.s:6      *ABS*:00000000 __tmp_reg__
C:\DOCUME~1\ADMINI~1\LOCALS~1\Temp/cc4ZFZHJ.s:7      *ABS*:00000001 __zero_reg__
C:\DOCUME~1\ADMINI~1\LOCALS~1\Temp/cc4ZFZHJ.s:19     .text.ppp_init:00000000 ppp_init
                            *COM*:00000002 ppp_active_pcbs
                            *COM*:00000002 ppp_tmp_pcb
                            *COM*:00000001 id_nxt
C:\DOCUME~1\ADMINI~1\LOCALS~1\Temp/cc4ZFZHJ.s:40     .text.ppp_process_pap:00000000 ppp_process_pap
C:\DOCUME~1\ADMINI~1\LOCALS~1\Temp/cc4ZFZHJ.s:54     .text.ppp_next_id:00000000 ppp_next_id
C:\DOCUME~1\ADMINI~1\LOCALS~1\Temp/cc4ZFZHJ.s:71     .text.ppp_disconnected:00000000 ppp_disconnected
C:\DOCUME~1\ADMINI~1\LOCALS~1\Temp/cc4ZFZHJ.s:89     .text.ppp_netif:00000000 ppp_netif
C:\DOCUME~1\ADMINI~1\LOCALS~1\Temp/cc4ZFZHJ.s:107    .text.ppp_arg:00000000 ppp_arg
C:\DOCUME~1\ADMINI~1\LOCALS~1\Temp/cc4ZFZHJ.s:125    .text.ppp_pbuf_ref_chain:00000000 ppp_pbuf_ref_chain
C:\DOCUME~1\ADMINI~1\LOCALS~1\Temp/cc4ZFZHJ.s:158    .text.ppp_output_alloc:00000000 ppp_output_alloc
C:\DOCUME~1\ADMINI~1\LOCALS~1\Temp/cc4ZFZHJ.s:205    .text.ppp_output:00000000 ppp_output
C:\DOCUME~1\ADMINI~1\LOCALS~1\Temp/cc4ZFZHJ.s:598    .text.ppp_data_output:00000000 ppp_data_output
C:\DOCUME~1\ADMINI~1\LOCALS~1\Temp/cc4ZFZHJ.s:801    .text.ppp_netif_output:00000000 ppp_netif_output
C:\DOCUME~1\ADMINI~1\LOCALS~1\Temp/cc4ZFZHJ.s:843    .text.ppp_cp_output:00000000 ppp_cp_output
C:\DOCUME~1\ADMINI~1\LOCALS~1\Temp/cc4ZFZHJ.s:1163   .text.ppp_echo:00000000 ppp_echo
C:\DOCUME~1\ADMINI~1\LOCALS~1\Temp/cc4ZFZHJ.s:1213   .text.ipcp_cfg_req:00000000 ipcp_cfg_req
C:\DOCUME~1\ADMINI~1\LOCALS~1\Temp/cc4ZFZHJ.s:1309   .text.lcp_cfg_req:00000000 lcp_cfg_req
C:\DOCUME~1\ADMINI~1\LOCALS~1\Temp/cc4ZFZHJ.s:1551   .text.ppp_connect:00000000 ppp_connect
C:\DOCUME~1\ADMINI~1\LOCALS~1\Temp/cc4ZFZHJ.s:1639   .text.ppp_close:00000000 ppp_close
                            *COM*:00000002 ppp_tmp_req
                            *COM*:00000002 ppp_listen_pcbs
C:\DOCUME~1\ADMINI~1\LOCALS~1\Temp/cc4ZFZHJ.s:1847   .text.ppp_disconnect:00000000 ppp_disconnect
C:\DOCUME~1\ADMINI~1\LOCALS~1\Temp/cc4ZFZHJ.s:1916   .text.ppp_reset_all:00000000 ppp_reset_all
C:\DOCUME~1\ADMINI~1\LOCALS~1\Temp/cc4ZFZHJ.s:1990   .text.ppp_lp_disconnected:00000000 ppp_lp_disconnected
C:\DOCUME~1\ADMINI~1\LOCALS~1\Temp/cc4ZFZHJ.s:2085   .text.ppp_tmr:00000000 ppp_tmr
C:\DOCUME~1\ADMINI~1\LOCALS~1\Temp/cc4ZFZHJ.s:2252   .text.ppp_new:00000000 ppp_new
C:\DOCUME~1\ADMINI~1\LOCALS~1\Temp/cc4ZFZHJ.s:2318   .text.ppp_process_ipcp:00000000 ppp_process_ipcp
C:\DOCUME~1\ADMINI~1\LOCALS~1\Temp/cc4ZFZHJ.s:3879   .text.ppp_process_lcp:00000000 ppp_process_lcp
C:\DOCUME~1\ADMINI~1\LOCALS~1\Temp/cc4ZFZHJ.s:4991   .text.ppp_input:00000000 ppp_input

UNDEFINED SYMBOLS
pbuf_alloc
pbuf_chain
pbuf_free
rfcomm_uih_credits
rfcomm_uih
htons
fcs16_crc_calc
pbuf_dechain
pbuf_realloc
lwbt_memp_malloc
htonl
lwbt_memp_free
netif_remove
__divmodhi4
pbuf_header
ntohs
memcpy
ntohl
pbuf_ref
fcs16_crc_check
__do_clear_bss
