   1               		.file	"tcp.c"
   2               	__SREG__ = 0x3f
   3               	__SP_H__ = 0x3e
   4               	__SP_L__ = 0x3d
   5               	__CCP__  = 0x34
   6               	__tmp_reg__ = 0
   7               	__zero_reg__ = 1
  15               	.Ltext0:
  16               		.section	.text.tcp_accept_null,"ax",@progbits
  18               	tcp_accept_null:
  19               	.LFB6:
  20               	.LSM0:
  21               	.LVL0:
  22               	/* prologue: function */
  23               	/* frame size = 0 */
  24               	.LSM1:
  25 0000 8CEF      		ldi r24,lo8(-4)
  26               	.LVL1:
  27               	/* epilogue start */
  28 0002 0895      		ret
  29               	.LFE6:
  31               		.section	.text.tcp_new_port,"ax",@progbits
  33               	tcp_new_port:
  34               	.LFB9:
  35               	.LSM2:
  36 0000 0F93      		push r16
  37 0002 1F93      		push r17
  38               	/* prologue: function */
  39               	/* frame size = 0 */
  40               	.LSM3:
  41 0004 0091 0000 		lds r16,tcp_active_pcbs
  42               	.LVL2:
  43 0008 1091 0000 		lds r17,tcp_active_pcbs+1
  44               	.LVL3:
  45               	.LSM4:
  46 000c B091 0000 		lds r27,tcp_tw_pcbs
  47               	.LVL4:
  48 0010 A091 0000 		lds r26,tcp_tw_pcbs+1
  49               	.LVL5:
  50               	.LSM5:
  51 0014 7091 0000 		lds r23,tcp_listen_pcbs
  52               	.LVL6:
  53 0018 6091 0000 		lds r22,tcp_listen_pcbs+1
  54               	.LVL7:
  55 001c 4091 0000 		lds r20,port.2195
  56 0020 5091 0000 		lds r21,(port.2195)+1
  57               	.LVL8:
  58               	.L15:
  59               	.LSM6:
  60 0024 4F5F      		subi r20,lo8(-(1))
  61 0026 5F4F      		sbci r21,hi8(-(1))
  62 0028 57FF      		sbrs r21,7
  63 002a 00C0      		rjmp .L4
  64 002c 40E0      		ldi r20,lo8(4096)
  65 002e 50E1      		ldi r21,hi8(4096)
  66               	.L4:
  67 0030 F801      		movw r30,r16
  68 0032 00C0      		rjmp .L5
  69               	.LVL9:
  70               	.L7:
  71               	.LSM7:
  72 0034 8289      		ldd r24,Z+18
  73 0036 9389      		ldd r25,Z+19
  74 0038 8417      		cp r24,r20
  75 003a 9507      		cpc r25,r21
  76 003c 01F0      		breq .L15
  77               	.LSM8:
  78 003e 0484      		ldd __tmp_reg__,Z+12
  79 0040 F585      		ldd r31,Z+13
  80 0042 E02D      		mov r30,__tmp_reg__
  81               	.LVL10:
  82               	.L5:
  83 0044 3097      		sbiw r30,0
  84 0046 01F4      		brne .L7
  85 0048 8B2F      		mov r24,r27
  86 004a 9A2F      		mov r25,r26
  87 004c 9C01      		movw r18,r24
  88 004e F901      		movw r30,r18
  89 0050 00C0      		rjmp .L8
  90               	.LVL11:
  91               	.L9:
  92               	.LSM9:
  93 0052 8289      		ldd r24,Z+18
  94 0054 9389      		ldd r25,Z+19
  95 0056 8417      		cp r24,r20
  96 0058 9507      		cpc r25,r21
  97 005a 01F0      		breq .L15
  98               	.LSM10:
  99 005c 0484      		ldd __tmp_reg__,Z+12
 100 005e F585      		ldd r31,Z+13
 101 0060 E02D      		mov r30,__tmp_reg__
 102               	.LVL12:
 103               	.L8:
 104 0062 3097      		sbiw r30,0
 105 0064 01F4      		brne .L9
 106 0066 872F      		mov r24,r23
 107 0068 962F      		mov r25,r22
 108 006a 9C01      		movw r18,r24
 109 006c F901      		movw r30,r18
 110 006e 00C0      		rjmp .L10
 111               	.L11:
 112               	.LSM11:
 113 0070 8289      		ldd r24,Z+18
 114 0072 9389      		ldd r25,Z+19
 115 0074 8417      		cp r24,r20
 116 0076 9507      		cpc r25,r21
 117 0078 01F0      		breq .L15
 118               	.LSM12:
 119 007a 0484      		ldd __tmp_reg__,Z+12
 120 007c F585      		ldd r31,Z+13
 121 007e E02D      		mov r30,__tmp_reg__
 122               	.LVL13:
 123               	.L10:
 124 0080 3097      		sbiw r30,0
 125 0082 01F4      		brne .L11
 126 0084 4093 0000 		sts port.2195,r20
 127 0088 5093 0000 		sts port.2195+1,r21
 128               	.LSM13:
 129 008c CA01      		movw r24,r20
 130               	/* epilogue start */
 131 008e 1F91      		pop r17
 132 0090 0F91      		pop r16
 133 0092 0895      		ret
 134               	.LFE9:
 136               		.section	.text.tcp_bind,"ax",@progbits
 137               	.global	tcp_bind
 139               	tcp_bind:
 140               	.LFB5:
 141               	.LSM14:
 142               	.LVL14:
 143 0000 CF92      		push r12
 144 0002 DF92      		push r13
 145 0004 EF92      		push r14
 146 0006 FF92      		push r15
 147 0008 0F93      		push r16
 148 000a 1F93      		push r17
 149 000c CF93      		push r28
 150 000e DF93      		push r29
 151               	/* prologue: function */
 152               	/* frame size = 0 */
 153 0010 7C01      		movw r14,r24
 154 0012 EB01      		movw r28,r22
 155 0014 8A01      		movw r16,r20
 156               	.LSM15:
 157 0016 FC01      		movw r30,r24
 158 0018 8685      		ldd r24,Z+14
 159               	.LVL15:
 160 001a 8823      		tst r24
 161 001c 01F0      		breq .L17
 162               	.LVL16:
 163 001e 84EF      		ldi r24,lo8(-12)
 164 0020 00C0      		rjmp .L18
 165               	.L17:
 166               	.LSM16:
 167 0022 4115      		cp r20,__zero_reg__
 168 0024 5105      		cpc r21,__zero_reg__
 169 0026 01F4      		brne .L19
 170               	.LVL17:
 171               	.LSM17:
 172 0028 0E94 0000 		call tcp_new_port
 173               	.LVL18:
 174 002c 8C01      		movw r16,r24
 175               	.LVL19:
 176               	.L19:
 177               	.LSM18:
 178 002e E091 0000 		lds r30,tcp_listen_pcbs
 179 0032 F091 0000 		lds r31,(tcp_listen_pcbs)+1
 180               	.LVL20:
 181 0036 00C0      		rjmp .L20
 182               	.L23:
 183               	.LSM19:
 184 0038 8289      		ldd r24,Z+18
 185 003a 9389      		ldd r25,Z+19
 186 003c 8017      		cp r24,r16
 187 003e 9107      		cpc r25,r17
 188 0040 01F4      		brne .L21
 189               	.LSM20:
 190 0042 2081      		ld r18,Z
 191 0044 3181      		ldd r19,Z+1
 192 0046 4281      		ldd r20,Z+2
 193 0048 5381      		ldd r21,Z+3
 194 004a 2115      		cp r18,__zero_reg__
 195 004c 3105      		cpc r19,__zero_reg__
 196 004e 4105      		cpc r20,__zero_reg__
 197 0050 5105      		cpc r21,__zero_reg__
 198 0052 01F4      		brne .+2
 199 0054 00C0      		rjmp .L22
 200 0056 2097      		sbiw r28,0
 201 0058 01F4      		brne .+2
 202 005a 00C0      		rjmp .L22
 203 005c 8881      		ld r24,Y
 204 005e 9981      		ldd r25,Y+1
 205 0060 AA81      		ldd r26,Y+2
 206 0062 BB81      		ldd r27,Y+3
 207 0064 0097      		sbiw r24,0
 208 0066 A105      		cpc r26,__zero_reg__
 209 0068 B105      		cpc r27,__zero_reg__
 210 006a 01F4      		brne .+2
 211 006c 00C0      		rjmp .L22
 212 006e 2817      		cp r18,r24
 213 0070 3907      		cpc r19,r25
 214 0072 4A07      		cpc r20,r26
 215 0074 5B07      		cpc r21,r27
 216 0076 01F4      		brne .+2
 217 0078 00C0      		rjmp .L22
 218               	.L21:
 219               	.LSM21:
 220 007a 0484      		ldd __tmp_reg__,Z+12
 221 007c F585      		ldd r31,Z+13
 222 007e E02D      		mov r30,__tmp_reg__
 223               	.L20:
 224 0080 3097      		sbiw r30,0
 225 0082 01F4      		brne .L23
 226               	.LSM22:
 227 0084 E091 0000 		lds r30,tcp_active_pcbs
 228 0088 F091 0000 		lds r31,(tcp_active_pcbs)+1
 229               	.LVL21:
 230 008c 00C0      		rjmp .L24
 231               	.L26:
 232               	.LSM23:
 233 008e 8289      		ldd r24,Z+18
 234 0090 9389      		ldd r25,Z+19
 235 0092 8017      		cp r24,r16
 236 0094 9107      		cpc r25,r17
 237 0096 01F4      		brne .L25
 238               	.LSM24:
 239 0098 2081      		ld r18,Z
 240 009a 3181      		ldd r19,Z+1
 241 009c 4281      		ldd r20,Z+2
 242 009e 5381      		ldd r21,Z+3
 243 00a0 2115      		cp r18,__zero_reg__
 244 00a2 3105      		cpc r19,__zero_reg__
 245 00a4 4105      		cpc r20,__zero_reg__
 246 00a6 5105      		cpc r21,__zero_reg__
 247 00a8 01F4      		brne .+2
 248 00aa 00C0      		rjmp .L22
 249 00ac 2097      		sbiw r28,0
 250 00ae 01F4      		brne .+2
 251 00b0 00C0      		rjmp .L22
 252 00b2 8881      		ld r24,Y
 253 00b4 9981      		ldd r25,Y+1
 254 00b6 AA81      		ldd r26,Y+2
 255 00b8 BB81      		ldd r27,Y+3
 256 00ba 0097      		sbiw r24,0
 257 00bc A105      		cpc r26,__zero_reg__
 258 00be B105      		cpc r27,__zero_reg__
 259 00c0 01F4      		brne .+2
 260 00c2 00C0      		rjmp .L22
 261 00c4 2817      		cp r18,r24
 262 00c6 3907      		cpc r19,r25
 263 00c8 4A07      		cpc r20,r26
 264 00ca 5B07      		cpc r21,r27
 265 00cc 01F4      		brne .+2
 266 00ce 00C0      		rjmp .L22
 267               	.L25:
 268               	.LSM25:
 269 00d0 0484      		ldd __tmp_reg__,Z+12
 270 00d2 F585      		ldd r31,Z+13
 271 00d4 E02D      		mov r30,__tmp_reg__
 272               	.L24:
 273 00d6 3097      		sbiw r30,0
 274 00d8 01F4      		brne .L26
 275               	.LSM26:
 276 00da D090 0000 		lds r13,tcp_bound_pcbs
 277               	.LVL22:
 278 00de C090 0000 		lds r12,tcp_bound_pcbs+1
 279               	.LVL23:
 280 00e2 8D2D      		mov r24,r13
 281 00e4 9C2D      		mov r25,r12
 282 00e6 9C01      		movw r18,r24
 283 00e8 F901      		movw r30,r18
 284 00ea 00C0      		rjmp .L27
 285               	.LVL24:
 286               	.L29:
 287               	.LSM27:
 288 00ec 8289      		ldd r24,Z+18
 289 00ee 9389      		ldd r25,Z+19
 290 00f0 8017      		cp r24,r16
 291 00f2 9107      		cpc r25,r17
 292 00f4 01F4      		brne .L28
 293               	.LSM28:
 294 00f6 2081      		ld r18,Z
 295 00f8 3181      		ldd r19,Z+1
 296 00fa 4281      		ldd r20,Z+2
 297 00fc 5381      		ldd r21,Z+3
 298 00fe 2115      		cp r18,__zero_reg__
 299 0100 3105      		cpc r19,__zero_reg__
 300 0102 4105      		cpc r20,__zero_reg__
 301 0104 5105      		cpc r21,__zero_reg__
 302 0106 01F4      		brne .+2
 303 0108 00C0      		rjmp .L22
 304 010a 2097      		sbiw r28,0
 305 010c 01F4      		brne .+2
 306 010e 00C0      		rjmp .L22
 307 0110 8881      		ld r24,Y
 308 0112 9981      		ldd r25,Y+1
 309 0114 AA81      		ldd r26,Y+2
 310 0116 BB81      		ldd r27,Y+3
 311 0118 0097      		sbiw r24,0
 312 011a A105      		cpc r26,__zero_reg__
 313 011c B105      		cpc r27,__zero_reg__
 314 011e 01F4      		brne .+2
 315 0120 00C0      		rjmp .L22
 316 0122 2817      		cp r18,r24
 317 0124 3907      		cpc r19,r25
 318 0126 4A07      		cpc r20,r26
 319 0128 5B07      		cpc r21,r27
 320 012a 01F0      		breq .L22
 321               	.LVL25:
 322               	.L28:
 323               	.LSM29:
 324 012c 0484      		ldd __tmp_reg__,Z+12
 325 012e F585      		ldd r31,Z+13
 326 0130 E02D      		mov r30,__tmp_reg__
 327               	.LVL26:
 328               	.L27:
 329 0132 3097      		sbiw r30,0
 330 0134 01F4      		brne .L29
 331               	.LSM30:
 332 0136 E091 0000 		lds r30,tcp_tw_pcbs
 333 013a F091 0000 		lds r31,(tcp_tw_pcbs)+1
 334               	.LVL27:
 335 013e 00C0      		rjmp .L30
 336               	.L32:
 337               	.LSM31:
 338 0140 8289      		ldd r24,Z+18
 339 0142 9389      		ldd r25,Z+19
 340 0144 8017      		cp r24,r16
 341 0146 9107      		cpc r25,r17
 342 0148 01F4      		brne .L31
 343               	.LSM32:
 344 014a 2081      		ld r18,Z
 345 014c 3181      		ldd r19,Z+1
 346 014e 4281      		ldd r20,Z+2
 347 0150 5381      		ldd r21,Z+3
 348 0152 8881      		ld r24,Y
 349 0154 9981      		ldd r25,Y+1
 350 0156 AA81      		ldd r26,Y+2
 351 0158 BB81      		ldd r27,Y+3
 352 015a 2817      		cp r18,r24
 353 015c 3907      		cpc r19,r25
 354 015e 4A07      		cpc r20,r26
 355 0160 5B07      		cpc r21,r27
 356 0162 01F0      		breq .L22
 357               	.L31:
 358               	.LSM33:
 359 0164 0484      		ldd __tmp_reg__,Z+12
 360 0166 F585      		ldd r31,Z+13
 361 0168 E02D      		mov r30,__tmp_reg__
 362               	.L30:
 363 016a 3097      		sbiw r30,0
 364 016c 01F4      		brne .L32
 365               	.LSM34:
 366 016e 2097      		sbiw r28,0
 367 0170 01F0      		breq .L33
 368 0172 6881      		ld r22,Y
 369 0174 7981      		ldd r23,Y+1
 370 0176 8A81      		ldd r24,Y+2
 371 0178 9B81      		ldd r25,Y+3
 372 017a 6115      		cp r22,__zero_reg__
 373 017c 7105      		cpc r23,__zero_reg__
 374 017e 8105      		cpc r24,__zero_reg__
 375 0180 9105      		cpc r25,__zero_reg__
 376 0182 01F0      		breq .L33
 377               	.LSM35:
 378 0184 F701      		movw r30,r14
 379               	.LVL28:
 380 0186 6083      		st Z,r22
 381 0188 7183      		std Z+1,r23
 382 018a 8283      		std Z+2,r24
 383 018c 9383      		std Z+3,r25
 384               	.LVL29:
 385               	.L33:
 386               	.LSM36:
 387 018e F701      		movw r30,r14
 388               	.LVL30:
 389 0190 138B      		std Z+19,r17
 390 0192 028B      		std Z+18,r16
 391               	.LSM37:
 392 0194 D486      		std Z+12,r13
 393               	.LVL31:
 394 0196 C586      		std Z+13,r12
 395 0198 F092 0000 		sts (tcp_bound_pcbs)+1,r15
 396 019c E092 0000 		sts tcp_bound_pcbs,r14
 397 01a0 80E0      		ldi r24,lo8(0)
 398 01a2 00C0      		rjmp .L18
 399               	.LVL32:
 400               	.L22:
 401               	.LSM38:
 402 01a4 86EF      		ldi r24,lo8(-10)
 403               	.LVL33:
 404               	.L18:
 405               	/* epilogue start */
 406               	.LSM39:
 407 01a6 DF91      		pop r29
 408 01a8 CF91      		pop r28
 409               	.LVL34:
 410 01aa 1F91      		pop r17
 411 01ac 0F91      		pop r16
 412               	.LVL35:
 413 01ae FF90      		pop r15
 414 01b0 EF90      		pop r14
 415               	.LVL36:
 416 01b2 DF90      		pop r13
 417               	.LVL37:
 418 01b4 CF90      		pop r12
 419 01b6 0895      		ret
 420               	.LFE5:
 422               		.section	.text.tcp_setprio,"ax",@progbits
 423               	.global	tcp_setprio
 425               	tcp_setprio:
 426               	.LFB15:
 427               	.LSM40:
 428               	.LVL38:
 429               	/* prologue: function */
 430               	/* frame size = 0 */
 431               	.LSM41:
 432 0000 FC01      		movw r30,r24
 433 0002 6787      		std Z+15,r22
 434               	/* epilogue start */
 435               	.LSM42:
 436 0004 0895      		ret
 437               	.LFE15:
 439               		.section	.text.tcp_arg,"ax",@progbits
 440               	.global	tcp_arg
 442               	tcp_arg:
 443               	.LFB22:
 444               	.LSM43:
 445               	.LVL39:
 446               	/* prologue: function */
 447               	/* frame size = 0 */
 448               	.LSM44:
 449 0000 FC01      		movw r30,r24
 450 0002 718B      		std Z+17,r23
 451 0004 608B      		std Z+16,r22
 452               	/* epilogue start */
 453               	.LSM45:
 454 0006 0895      		ret
 455               	.LFE22:
 457               		.section	.text.tcp_recv,"ax",@progbits
 458               	.global	tcp_recv
 460               	tcp_recv:
 461               	.LFB23:
 462               	.LSM46:
 463               	.LVL40:
 464               	/* prologue: function */
 465               	/* frame size = 0 */
 466               	.LSM47:
 467 0000 FC01      		movw r30,r24
 468 0002 E959      		subi r30,lo8(-(103))
 469 0004 FF4F      		sbci r31,hi8(-(103))
 470 0006 7183      		std Z+1,r23
 471 0008 6083      		st Z,r22
 472               	/* epilogue start */
 473               	.LSM48:
 474 000a 0895      		ret
 475               	.LFE23:
 477               		.section	.text.tcp_sent,"ax",@progbits
 478               	.global	tcp_sent
 480               	tcp_sent:
 481               	.LFB24:
 482               	.LSM49:
 483               	.LVL41:
 484               	/* prologue: function */
 485               	/* frame size = 0 */
 486               	.LSM50:
 487 0000 FC01      		movw r30,r24
 488 0002 EB59      		subi r30,lo8(-(101))
 489 0004 FF4F      		sbci r31,hi8(-(101))
 490 0006 7183      		std Z+1,r23
 491 0008 6083      		st Z,r22
 492               	/* epilogue start */
 493               	.LSM51:
 494 000a 0895      		ret
 495               	.LFE24:
 497               		.section	.text.tcp_err,"ax",@progbits
 498               	.global	tcp_err
 500               	tcp_err:
 501               	.LFB25:
 502               	.LSM52:
 503               	.LVL42:
 504               	/* prologue: function */
 505               	/* frame size = 0 */
 506               	.LSM53:
 507 0000 FC01      		movw r30,r24
 508 0002 E159      		subi r30,lo8(-(111))
 509 0004 FF4F      		sbci r31,hi8(-(111))
 510 0006 7183      		std Z+1,r23
 511 0008 6083      		st Z,r22
 512               	/* epilogue start */
 513               	.LSM54:
 514 000a 0895      		ret
 515               	.LFE25:
 517               		.section	.text.tcp_accept,"ax",@progbits
 518               	.global	tcp_accept
 520               	tcp_accept:
 521               	.LFB26:
 522               	.LSM55:
 523               	.LVL43:
 524               	/* prologue: function */
 525               	/* frame size = 0 */
 526               	.LSM56:
 527 0000 FC01      		movw r30,r24
 528 0002 758B      		std Z+21,r23
 529 0004 648B      		std Z+20,r22
 530               	/* epilogue start */
 531               	.LSM57:
 532 0006 0895      		ret
 533               	.LFE26:
 535               		.section	.text.tcp_poll,"ax",@progbits
 536               	.global	tcp_poll
 538               	tcp_poll:
 539               	.LFB27:
 540               	.LSM58:
 541               	.LVL44:
 542               	/* prologue: function */
 543               	/* frame size = 0 */
 544 0000 FC01      		movw r30,r24
 545               	.LSM59:
 546 0002 E359      		subi r30,lo8(-(109))
 547 0004 FF4F      		sbci r31,hi8(-(109))
 548               	.LVL45:
 549 0006 7183      		std Z+1,r23
 550 0008 6083      		st Z,r22
 551 000a ED56      		subi r30,lo8(-(-109))
 552 000c F040      		sbci r31,hi8(-(-109))
 553               	.LSM60:
 554 000e 44A3      		std Z+36,r20
 555               	/* epilogue start */
 556               	.LSM61:
 557 0010 0895      		ret
 558               	.LFE27:
 560               		.section	.text.tcp_next_iss,"ax",@progbits
 561               	.global	tcp_next_iss
 563               	tcp_next_iss:
 564               	.LFB30:
 565               	.LSM62:
 566               	/* prologue: function */
 567               	/* frame size = 0 */
 568               	.LSM63:
 569 0000 2091 0000 		lds r18,tcp_ticks
 570 0004 3091 0000 		lds r19,(tcp_ticks)+1
 571 0008 4091 0000 		lds r20,(tcp_ticks)+2
 572 000c 5091 0000 		lds r21,(tcp_ticks)+3
 573 0010 8091 0000 		lds r24,iss.2489
 574 0014 9091 0000 		lds r25,(iss.2489)+1
 575 0018 A091 0000 		lds r26,(iss.2489)+2
 576 001c B091 0000 		lds r27,(iss.2489)+3
 577 0020 280F      		add r18,r24
 578 0022 391F      		adc r19,r25
 579 0024 4A1F      		adc r20,r26
 580 0026 5B1F      		adc r21,r27
 581 0028 2093 0000 		sts iss.2489,r18
 582 002c 3093 0000 		sts (iss.2489)+1,r19
 583 0030 4093 0000 		sts (iss.2489)+2,r20
 584 0034 5093 0000 		sts (iss.2489)+3,r21
 585               	.LSM64:
 586 0038 B901      		movw r22,r18
 587 003a CA01      		movw r24,r20
 588               	/* epilogue start */
 589 003c 0895      		ret
 590               	.LFE30:
 592               		.section	.text.tcp_eff_send_mss,"ax",@progbits
 593               	.global	tcp_eff_send_mss
 595               	tcp_eff_send_mss:
 596               	.LFB31:
 597               	.LSM65:
 598               	.LVL46:
 599 0000 CF93      		push r28
 600 0002 DF93      		push r29
 601               	/* prologue: function */
 602               	/* frame size = 0 */
 603 0004 EC01      		movw r28,r24
 604 0006 CB01      		movw r24,r22
 605               	.LVL47:
 606               	.LSM66:
 607 0008 0E94 0000 		call ip_route
 608               	.LVL48:
 609 000c FC01      		movw r30,r24
 610               	.LVL49:
 611               	.LSM67:
 612 000e 0097      		sbiw r24,0
 613 0010 01F0      		breq .L52
 614               	.LVL50:
 615 0012 81A1      		ldd r24,Z+33
 616 0014 92A1      		ldd r25,Z+34
 617               	.LVL51:
 618 0016 0097      		sbiw r24,0
 619 0018 01F0      		breq .L52
 620               	.LSM68:
 621 001a 8897      		sbiw r24,40
 622 001c 8C17      		cp r24,r28
 623 001e 9D07      		cpc r25,r29
 624 0020 00F4      		brsh .L52
 625 0022 EC01      		movw r28,r24
 626               	.LVL52:
 627               	.L52:
 628               	.LSM69:
 629 0024 CE01      		movw r24,r28
 630               	.LVL53:
 631               	/* epilogue start */
 632 0026 DF91      		pop r29
 633 0028 CF91      		pop r28
 634 002a 0895      		ret
 635               	.LFE31:
 637               		.section	.text.tcp_recved,"ax",@progbits
 638               	.global	tcp_recved
 640               	tcp_recved:
 641               	.LFB8:
 642               	.LSM70:
 643               	.LVL54:
 644 0000 CF93      		push r28
 645 0002 DF93      		push r29
 646               	/* prologue: function */
 647               	/* frame size = 0 */
 648 0004 FC01      		movw r30,r24
 649 0006 EB01      		movw r28,r22
 650               	.LSM71:
 651 0008 638D      		ldd r22,Z+27
 652 000a 748D      		ldd r23,Z+28
 653               	.LVL55:
 654 000c CE01      		movw r24,r28
 655               	.LVL56:
 656 000e A0E0      		ldi r26,lo8(0)
 657 0010 B0E0      		ldi r27,hi8(0)
 658               	.LVL57:
 659 0012 9B01      		movw r18,r22
 660 0014 40E0      		ldi r20,lo8(0)
 661 0016 50E0      		ldi r21,hi8(0)
 662 0018 820F      		add r24,r18
 663 001a 931F      		adc r25,r19
 664 001c A41F      		adc r26,r20
 665 001e B51F      		adc r27,r21
 666               	.LVL58:
 667 0020 8150      		subi r24,lo8(2049)
 668 0022 9840      		sbci r25,hi8(2049)
 669 0024 A040      		sbci r26,hlo8(2049)
 670 0026 B040      		sbci r27,hhi8(2049)
 671 0028 00F0      		brlo .L56
 672               	.LSM72:
 673 002a 80E0      		ldi r24,lo8(2048)
 674 002c 98E0      		ldi r25,hi8(2048)
 675               	.LVL59:
 676 002e 948F      		std Z+28,r25
 677 0030 838F      		std Z+27,r24
 678               	.LSM73:
 679 0032 968F      		std Z+30,r25
 680 0034 858F      		std Z+29,r24
 681 0036 00C0      		rjmp .L57
 682               	.LVL60:
 683               	.L56:
 684               	.LSM74:
 685 0038 9E01      		movw r18,r28
 686 003a 260F      		add r18,r22
 687 003c 371F      		adc r19,r23
 688 003e 348F      		std Z+28,r19
 689 0040 238F      		std Z+27,r18
 690               	.LSM75:
 691 0042 87A1      		ldd r24,Z+39
 692 0044 90A5      		ldd r25,Z+40
 693               	.LVL61:
 694 0046 2817      		cp r18,r24
 695 0048 3907      		cpc r19,r25
 696 004a 00F0      		brlo .L57
 697               	.LSM76:
 698 004c 368F      		std Z+30,r19
 699 004e 258F      		std Z+29,r18
 700               	.L57:
 701               	.LSM77:
 702 0050 2689      		ldd r18,Z+22
 703 0052 20FD      		sbrc r18,0
 704 0054 00C0      		rjmp .L58
 705 0056 21FD      		sbrc r18,1
 706 0058 00C0      		rjmp .L60
 707               	.LSM78:
 708 005a 2160      		ori r18,lo8(1)
 709 005c 268B      		std Z+22,r18
 710 005e 00C0      		rjmp .L60
 711               	.L58:
 712               	.LSM79:
 713 0060 838D      		ldd r24,Z+27
 714 0062 948D      		ldd r25,Z+28
 715 0064 8050      		subi r24,lo8(1024)
 716 0066 9440      		sbci r25,hi8(1024)
 717 0068 00F0      		brlo .L60
 718               	.LSM80:
 719 006a 2260      		ori r18,lo8(2)
 720 006c 268B      		std Z+22,r18
 721 006e CF01      		movw r24,r30
 722 0070 0E94 0000 		call tcp_output
 723               	.LVL62:
 724               	.L60:
 725               	/* epilogue start */
 726               	.LSM81:
 727 0074 DF91      		pop r29
 728 0076 CF91      		pop r28
 729               	.LVL63:
 730 0078 0895      		ret
 731               	.LFE8:
 733               		.section	.text.tcp_fasttmr,"ax",@progbits
 734               	.global	tcp_fasttmr
 736               	tcp_fasttmr:
 737               	.LFB12:
 738               	.LSM82:
 739 0000 CF93      		push r28
 740 0002 DF93      		push r29
 741               	/* prologue: function */
 742               	/* frame size = 0 */
 743               	.LSM83:
 744 0004 C091 0000 		lds r28,tcp_active_pcbs
 745 0008 D091 0000 		lds r29,(tcp_active_pcbs)+1
 746               	.LVL64:
 747 000c 00C0      		rjmp .L62
 748               	.L67:
 749               	.LSM84:
 750 000e CD59      		subi r28,lo8(-(99))
 751 0010 DF4F      		sbci r29,hi8(-(99))
 752 0012 4881      		ld r20,Y
 753 0014 5981      		ldd r21,Y+1
 754 0016 C356      		subi r28,lo8(-(-99))
 755 0018 D040      		sbci r29,hi8(-(-99))
 756 001a 4115      		cp r20,__zero_reg__
 757 001c 5105      		cpc r21,__zero_reg__
 758 001e 01F0      		breq .L63
 759               	.LBB2:
 760               	.LSM85:
 761 0020 C959      		subi r28,lo8(-(103))
 762 0022 DF4F      		sbci r29,hi8(-(103))
 763 0024 E881      		ld r30,Y
 764 0026 F981      		ldd r31,Y+1
 765 0028 C756      		subi r28,lo8(-(-103))
 766 002a D040      		sbci r29,hi8(-(-103))
 767 002c 3097      		sbiw r30,0
 768 002e 01F0      		breq .L64
 769 0030 8889      		ldd r24,Y+16
 770 0032 9989      		ldd r25,Y+17
 771 0034 BE01      		movw r22,r28
 772 0036 20E0      		ldi r18,lo8(0)
 773 0038 0995      		icall
 774               	.LSM86:
 775 003a 8823      		tst r24
 776 003c 01F4      		brne .L63
 777 003e 00C0      		rjmp .L65
 778               	.L64:
 779               	.LSM87:
 780 0040 CA01      		movw r24,r20
 781 0042 0E94 0000 		call pbuf_free
 782               	.L65:
 783               	.LSM88:
 784 0046 CD59      		subi r28,lo8(-(99))
 785 0048 DF4F      		sbci r29,hi8(-(99))
 786 004a 1982      		std Y+1,__zero_reg__
 787 004c 1882      		st Y,__zero_reg__
 788 004e C356      		subi r28,lo8(-(-99))
 789 0050 D040      		sbci r29,hi8(-(-99))
 790               	.L63:
 791               	.LBE2:
 792               	.LSM89:
 793 0052 8E89      		ldd r24,Y+22
 794 0054 80FF      		sbrs r24,0
 795 0056 00C0      		rjmp .L66
 796               	.LSM90:
 797 0058 8260      		ori r24,lo8(2)
 798 005a 8E8B      		std Y+22,r24
 799 005c CE01      		movw r24,r28
 800 005e 0E94 0000 		call tcp_output
 801               	.LSM91:
 802 0062 8E89      		ldd r24,Y+22
 803 0064 8C7F      		andi r24,lo8(-4)
 804 0066 8E8B      		std Y+22,r24
 805               	.L66:
 806               	.LSM92:
 807 0068 0C84      		ldd __tmp_reg__,Y+12
 808 006a DD85      		ldd r29,Y+13
 809 006c C02D      		mov r28,__tmp_reg__
 810               	.L62:
 811 006e 2097      		sbiw r28,0
 812 0070 01F4      		brne .L67
 813               	/* epilogue start */
 814               	.LSM93:
 815 0072 DF91      		pop r29
 816 0074 CF91      		pop r28
 817               	.LVL65:
 818 0076 0895      		ret
 819               	.LFE12:
 821               		.section	.text.tcp_seg_copy,"ax",@progbits
 822               	.global	tcp_seg_copy
 824               	tcp_seg_copy:
 825               	.LFB16:
 826               	.LSM94:
 827               	.LVL66:
 828 0000 0F93      		push r16
 829 0002 1F93      		push r17
 830 0004 CF93      		push r28
 831 0006 DF93      		push r29
 832               	/* prologue: function */
 833               	/* frame size = 0 */
 834 0008 182F      		mov r17,r24
 835 000a 092F      		mov r16,r25
 836               	.LVL67:
 837               	.LSM95:
 838 000c 84E0      		ldi r24,lo8(4)
 839               	.LVL68:
 840 000e 0E94 0000 		call memp_malloc
 841               	.LVL69:
 842 0012 EC01      		movw r28,r24
 843               	.LSM96:
 844 0014 0097      		sbiw r24,0
 845               	.LVL70:
 846 0016 01F0      		breq .L70
 847               	.LSM97:
 848 0018 DC01      		movw r26,r24
 849 001a 812F      		mov r24,r17
 850               	.LVL71:
 851 001c 902F      		mov r25,r16
 852 001e 9C01      		movw r18,r24
 853 0020 F901      		movw r30,r18
 854 0022 8AE0      		ldi r24,lo8(10)
 855               	.LVL72:
 856               	.L71:
 857 0024 0190      		ld r0,Z+
 858 0026 0D92      		st X+,r0
 859 0028 8150      		subi r24,lo8(-(-1))
 860 002a 01F4      		brne .L71
 861               	.LSM98:
 862 002c 8A81      		ldd r24,Y+2
 863 002e 9B81      		ldd r25,Y+3
 864 0030 0E94 0000 		call pbuf_ref
 865               	.LVL73:
 866               	.L70:
 867               	.LSM99:
 868 0034 CE01      		movw r24,r28
 869               	.LVL74:
 870               	/* epilogue start */
 871 0036 DF91      		pop r29
 872 0038 CF91      		pop r28
 873 003a 1F91      		pop r17
 874               	.LVL75:
 875 003c 0F91      		pop r16
 876               	.LVL76:
 877 003e 0895      		ret
 878               	.LFE16:
 880               		.section	.text.tcp_seg_free,"ax",@progbits
 881               	.global	tcp_seg_free
 883               	tcp_seg_free:
 884               	.LFB14:
 885               	.LSM100:
 886               	.LVL77:
 887 0000 1F93      		push r17
 888 0002 CF93      		push r28
 889 0004 DF93      		push r29
 890               	/* prologue: function */
 891               	/* frame size = 0 */
 892 0006 EC01      		movw r28,r24
 893               	.LSM101:
 894 0008 0097      		sbiw r24,0
 895 000a 01F4      		brne .L75
 896 000c 10E0      		ldi r17,lo8(0)
 897               	.LVL78:
 898 000e 00C0      		rjmp .L76
 899               	.LVL79:
 900               	.L75:
 901               	.LSM102:
 902 0010 8A81      		ldd r24,Y+2
 903 0012 9B81      		ldd r25,Y+3
 904               	.LVL80:
 905 0014 0097      		sbiw r24,0
 906 0016 01F4      		brne .L77
 907 0018 10E0      		ldi r17,lo8(0)
 908               	.LVL81:
 909 001a 00C0      		rjmp .L78
 910               	.LVL82:
 911               	.L77:
 912               	.LSM103:
 913 001c 0E94 0000 		call pbuf_free
 914 0020 182F      		mov r17,r24
 915               	.LVL83:
 916               	.L78:
 917               	.LSM104:
 918 0022 84E0      		ldi r24,lo8(4)
 919 0024 BE01      		movw r22,r28
 920 0026 0E94 0000 		call memp_free
 921               	.LVL84:
 922               	.L76:
 923               	.LSM105:
 924 002a 812F      		mov r24,r17
 925               	/* epilogue start */
 926 002c DF91      		pop r29
 927 002e CF91      		pop r28
 928               	.LVL85:
 929 0030 1F91      		pop r17
 930               	.LVL86:
 931 0032 0895      		ret
 932               	.LFE14:
 934               		.section	.text.tcp_segs_free,"ax",@progbits
 935               	.global	tcp_segs_free
 937               	tcp_segs_free:
 938               	.LFB13:
 939               	.LSM106:
 940               	.LVL87:
 941 0000 FF92      		push r15
 942 0002 0F93      		push r16
 943 0004 1F93      		push r17
 944               	/* prologue: function */
 945               	/* frame size = 0 */
 946 0006 FC01      		movw r30,r24
 947               	.LSM107:
 948 0008 00E0      		ldi r16,lo8(0)
 949               	.LVL88:
 950 000a 00C0      		rjmp .L81
 951               	.LVL89:
 952               	.L82:
 953               	.LSM108:
 954 000c 1081      		ld r17,Z
 955 000e F180      		ldd r15,Z+1
 956               	.LSM109:
 957 0010 CF01      		movw r24,r30
 958 0012 0E94 0000 		call tcp_seg_free
 959               	.LVL90:
 960 0016 080F      		add r16,r24
 961 0018 212F      		mov r18,r17
 962               	.LVL91:
 963 001a 3F2D      		mov r19,r15
 964               	.LVL92:
 965 001c C901      		movw r24,r18
 966               	.LVL93:
 967 001e FC01      		movw r30,r24
 968               	.LVL94:
 969               	.L81:
 970               	.LSM110:
 971 0020 3097      		sbiw r30,0
 972 0022 01F4      		brne .L82
 973               	.LSM111:
 974 0024 802F      		mov r24,r16
 975               	/* epilogue start */
 976 0026 1F91      		pop r17
 977               	.LVL95:
 978 0028 0F91      		pop r16
 979               	.LVL96:
 980 002a FF90      		pop r15
 981               	.LVL97:
 982 002c 0895      		ret
 983               	.LFE13:
 985               		.section	.text.tcp_pcb_purge,"ax",@progbits
 986               	.global	tcp_pcb_purge
 988               	tcp_pcb_purge:
 989               	.LFB28:
 990               	.LSM112:
 991               	.LVL98:
 992 0000 EF92      		push r14
 993 0002 FF92      		push r15
 994 0004 0F93      		push r16
 995 0006 1F93      		push r17
 996 0008 CF93      		push r28
 997 000a DF93      		push r29
 998               	/* prologue: function */
 999               	/* frame size = 0 */
 1000 000c EC01      		movw r28,r24
 1001               	.LSM113:
 1002 000e 8E85      		ldd r24,Y+14
 1003               	.LVL99:
 1004 0010 8823      		tst r24
 1005 0012 01F0      		breq .L87
 1006 0014 8A30      		cpi r24,lo8(10)
 1007 0016 01F0      		breq .L87
 1008 0018 8130      		cpi r24,lo8(1)
 1009 001a 01F0      		breq .L87
 1010               	.LSM114:
 1011 001c 8E01      		movw r16,r28
 1012 001e 0D59      		subi r16,lo8(-(99))
 1013 0020 1F4F      		sbci r17,hi8(-(99))
 1014 0022 F801      		movw r30,r16
 1015 0024 8081      		ld r24,Z
 1016 0026 9181      		ldd r25,Z+1
 1017 0028 0097      		sbiw r24,0
 1018 002a 01F0      		breq .L86
 1019               	.LSM115:
 1020 002c 0E94 0000 		call pbuf_free
 1021               	.LSM116:
 1022 0030 F801      		movw r30,r16
 1023 0032 1182      		std Z+1,__zero_reg__
 1024 0034 1082      		st Z,__zero_reg__
 1025               	.L86:
 1026               	.LSM117:
 1027 0036 8FEF      		ldi r24,lo8(-1)
 1028 0038 9FEF      		ldi r25,hi8(-1)
 1029 003a 9EA3      		std Y+38,r25
 1030 003c 8DA3      		std Y+37,r24
 1031               	.LSM118:
 1032 003e 8E01      		movw r16,r28
 1033 0040 0F59      		subi r16,lo8(-(97))
 1034 0042 1F4F      		sbci r17,hi8(-(97))
 1035 0044 F801      		movw r30,r16
 1036 0046 8081      		ld r24,Z
 1037 0048 9181      		ldd r25,Z+1
 1038 004a 0E94 0000 		call tcp_segs_free
 1039               	.LSM119:
 1040 004e F801      		movw r30,r16
 1041 0050 1182      		std Z+1,__zero_reg__
 1042 0052 1082      		st Z,__zero_reg__
 1043               	.LSM120:
 1044 0054 8DE5      		ldi r24,lo8(93)
 1045 0056 E82E      		mov r14,r24
 1046 0058 F12C      		mov r15,__zero_reg__
 1047 005a EC0E      		add r14,r28
 1048 005c FD1E      		adc r15,r29
 1049 005e F701      		movw r30,r14
 1050 0060 8081      		ld r24,Z
 1051 0062 9181      		ldd r25,Z+1
 1052 0064 0E94 0000 		call tcp_segs_free
 1053               	.LSM121:
 1054 0068 8E01      		movw r16,r28
 1055 006a 015A      		subi r16,lo8(-(95))
 1056 006c 1F4F      		sbci r17,hi8(-(95))
 1057 006e F801      		movw r30,r16
 1058 0070 8081      		ld r24,Z
 1059 0072 9181      		ldd r25,Z+1
 1060 0074 0E94 0000 		call tcp_segs_free
 1061               	.LSM122:
 1062 0078 F701      		movw r30,r14
 1063 007a 1182      		std Z+1,__zero_reg__
 1064 007c 1082      		st Z,__zero_reg__
 1065 007e F801      		movw r30,r16
 1066 0080 1182      		std Z+1,__zero_reg__
 1067 0082 1082      		st Z,__zero_reg__
 1068               	.L87:
 1069               	/* epilogue start */
 1070               	.LSM123:
 1071 0084 DF91      		pop r29
 1072 0086 CF91      		pop r28
 1073               	.LVL100:
 1074 0088 1F91      		pop r17
 1075 008a 0F91      		pop r16
 1076 008c FF90      		pop r15
 1077 008e EF90      		pop r14
 1078 0090 0895      		ret
 1079               	.LFE28:
 1081               		.section	.text.tcp_pcb_remove,"ax",@progbits
 1082               	.global	tcp_pcb_remove
 1084               	tcp_pcb_remove:
 1085               	.LFB29:
 1086               	.LSM124:
 1087               	.LVL101:
 1088 0000 CF93      		push r28
 1089 0002 DF93      		push r29
 1090               	/* prologue: function */
 1091               	/* frame size = 0 */
 1092 0004 DC01      		movw r26,r24
 1093 0006 EB01      		movw r28,r22
 1094               	.LSM125:
 1095 0008 ED91      		ld r30,X+
 1096 000a FC91      		ld r31,X
 1097 000c 1197      		sbiw r26,1
 1098 000e E617      		cp r30,r22
 1099 0010 F707      		cpc r31,r23
 1100 0012 01F4      		brne .L89
 1101               	.LVL102:
 1102 0014 8C85      		ldd r24,Y+12
 1103 0016 9D85      		ldd r25,Y+13
 1104 0018 8D93      		st X+,r24
 1105 001a 9C93      		st X,r25
 1106 001c 00C0      		rjmp .L90
 1107               	.LVL103:
 1108               	.L89:
 1109 001e F093 0000 		sts (tcp_tmp_pcb)+1,r31
 1110 0022 E093 0000 		sts tcp_tmp_pcb,r30
 1111 0026 00C0      		rjmp .L91
 1112               	.L93:
 1113 0028 8485      		ldd r24,Z+12
 1114 002a 9585      		ldd r25,Z+13
 1115 002c 0097      		sbiw r24,0
 1116 002e 01F0      		breq .L92
 1117 0030 8C17      		cp r24,r28
 1118 0032 9D07      		cpc r25,r29
 1119 0034 01F4      		brne .L92
 1120               	.LVL104:
 1121 0036 F093 0000 		sts (tcp_tmp_pcb)+1,r31
 1122 003a E093 0000 		sts tcp_tmp_pcb,r30
 1123 003e 8C85      		ldd r24,Y+12
 1124 0040 9D85      		ldd r25,Y+13
 1125 0042 9587      		std Z+13,r25
 1126 0044 8487      		std Z+12,r24
 1127 0046 00C0      		rjmp .L90
 1128               	.LVL105:
 1129               	.L92:
 1130 0048 FC01      		movw r30,r24
 1131               	.LVL106:
 1132               	.L91:
 1133 004a 3097      		sbiw r30,0
 1134 004c 01F4      		brne .L93
 1135 004e 1092 0000 		sts (tcp_tmp_pcb)+1,__zero_reg__
 1136 0052 1092 0000 		sts tcp_tmp_pcb,__zero_reg__
 1137               	.L90:
 1138 0056 1D86      		std Y+13,__zero_reg__
 1139 0058 1C86      		std Y+12,__zero_reg__
 1140               	.LSM126:
 1141 005a CE01      		movw r24,r28
 1142 005c 0E94 0000 		call tcp_pcb_purge
 1143               	.LVL107:
 1144               	.LSM127:
 1145 0060 8E85      		ldd r24,Y+14
 1146 0062 8A30      		cpi r24,lo8(10)
 1147 0064 01F0      		breq .L94
 1148 0066 8130      		cpi r24,lo8(1)
 1149 0068 01F0      		breq .L94
 1150 006a 8E89      		ldd r24,Y+22
 1151 006c 80FF      		sbrs r24,0
 1152 006e 00C0      		rjmp .L94
 1153               	.LSM128:
 1154 0070 8260      		ori r24,lo8(2)
 1155 0072 8E8B      		std Y+22,r24
 1156               	.LSM129:
 1157 0074 CE01      		movw r24,r28
 1158 0076 0E94 0000 		call tcp_output
 1159               	.L94:
 1160               	.LSM130:
 1161 007a 1E86      		std Y+14,__zero_reg__
 1162               	/* epilogue start */
 1163               	.LSM131:
 1164 007c DF91      		pop r29
 1165 007e CF91      		pop r28
 1166               	.LVL108:
 1167 0080 0895      		ret
 1168               	.LFE29:
 1170               		.section	.text.tcp_listen_with_backlog,"ax",@progbits
 1171               	.global	tcp_listen_with_backlog
 1173               	tcp_listen_with_backlog:
 1174               	.LFB7:
 1175               	.LSM132:
 1176               	.LVL109:
 1177 0000 0F93      		push r16
 1178 0002 1F93      		push r17
 1179 0004 CF93      		push r28
 1180 0006 DF93      		push r29
 1181               	/* prologue: function */
 1182               	/* frame size = 0 */
 1183 0008 8C01      		movw r16,r24
 1184               	.LSM133:
 1185 000a DC01      		movw r26,r24
 1186 000c 1E96      		adiw r26,14
 1187 000e 8C91      		ld r24,X
 1188               	.LVL110:
 1189 0010 8823      		tst r24
 1190 0012 01F0      		breq .+2
 1191 0014 00C0      		rjmp .L97
 1192               	.LSM134:
 1193 0016 83E0      		ldi r24,lo8(3)
 1194 0018 0E94 0000 		call memp_malloc
 1195               	.LVL111:
 1196 001c EC01      		movw r28,r24
 1197               	.LSM135:
 1198 001e 0097      		sbiw r24,0
 1199               	.LVL112:
 1200 0020 01F4      		brne .+2
 1201 0022 00C0      		rjmp .L97
 1202               	.LSM136:
 1203 0024 F801      		movw r30,r16
 1204 0026 8089      		ldd r24,Z+16
 1205 0028 9189      		ldd r25,Z+17
 1206               	.LVL113:
 1207 002a 998B      		std Y+17,r25
 1208 002c 888B      		std Y+16,r24
 1209               	.LVL114:
 1210               	.LSM137:
 1211 002e 8289      		ldd r24,Z+18
 1212 0030 9389      		ldd r25,Z+19
 1213 0032 9B8B      		std Y+19,r25
 1214 0034 8A8B      		std Y+18,r24
 1215               	.LSM138:
 1216 0036 81E0      		ldi r24,lo8(1)
 1217 0038 8E87      		std Y+14,r24
 1218               	.LSM139:
 1219 003a 8085      		ldd r24,Z+8
 1220 003c 9185      		ldd r25,Z+9
 1221 003e 8260      		ori r24,lo8(2)
 1222 0040 9987      		std Y+9,r25
 1223 0042 8887      		std Y+8,r24
 1224               	.LSM140:
 1225 0044 8385      		ldd r24,Z+11
 1226 0046 8B87      		std Y+11,r24
 1227               	.LSM141:
 1228 0048 8285      		ldd r24,Z+10
 1229 004a 8A87      		std Y+10,r24
 1230               	.LSM142:
 1231 004c 0115      		cp r16,__zero_reg__
 1232 004e 1105      		cpc r17,__zero_reg__
 1233 0050 01F4      		brne .L98
 1234 0052 80E0      		ldi r24,lo8(0)
 1235 0054 90E0      		ldi r25,hi8(0)
 1236 0056 A0E0      		ldi r26,hlo8(0)
 1237 0058 B0E0      		ldi r27,hhi8(0)
 1238 005a 00C0      		rjmp .L99
 1239               	.L98:
 1240 005c F801      		movw r30,r16
 1241 005e 8081      		ld r24,Z
 1242 0060 9181      		ldd r25,Z+1
 1243 0062 A281      		ldd r26,Z+2
 1244 0064 B381      		ldd r27,Z+3
 1245               	.L99:
 1246 0066 8883      		st Y,r24
 1247 0068 9983      		std Y+1,r25
 1248 006a AA83      		std Y+2,r26
 1249 006c BB83      		std Y+3,r27
 1250               	.LSM143:
 1251 006e E091 0000 		lds r30,tcp_bound_pcbs
 1252 0072 F091 0000 		lds r31,(tcp_bound_pcbs)+1
 1253 0076 E017      		cp r30,r16
 1254 0078 F107      		cpc r31,r17
 1255 007a 01F4      		brne .L100
 1256 007c D801      		movw r26,r16
 1257 007e 1C96      		adiw r26,12
 1258 0080 8D91      		ld r24,X+
 1259 0082 9C91      		ld r25,X
 1260 0084 1D97      		sbiw r26,12+1
 1261 0086 9093 0000 		sts (tcp_bound_pcbs)+1,r25
 1262 008a 8093 0000 		sts tcp_bound_pcbs,r24
 1263 008e 00C0      		rjmp .L101
 1264               	.L100:
 1265 0090 F093 0000 		sts (tcp_tmp_pcb)+1,r31
 1266 0094 E093 0000 		sts tcp_tmp_pcb,r30
 1267 0098 00C0      		rjmp .L102
 1268               	.L104:
 1269 009a 8485      		ldd r24,Z+12
 1270 009c 9585      		ldd r25,Z+13
 1271 009e 0097      		sbiw r24,0
 1272 00a0 01F0      		breq .L103
 1273 00a2 8017      		cp r24,r16
 1274 00a4 9107      		cpc r25,r17
 1275 00a6 01F4      		brne .L103
 1276 00a8 F093 0000 		sts (tcp_tmp_pcb)+1,r31
 1277 00ac E093 0000 		sts tcp_tmp_pcb,r30
 1278 00b0 D801      		movw r26,r16
 1279 00b2 1C96      		adiw r26,12
 1280 00b4 8D91      		ld r24,X+
 1281 00b6 9C91      		ld r25,X
 1282 00b8 1D97      		sbiw r26,12+1
 1283 00ba 9587      		std Z+13,r25
 1284 00bc 8487      		std Z+12,r24
 1285 00be 00C0      		rjmp .L101
 1286               	.L103:
 1287 00c0 FC01      		movw r30,r24
 1288               	.L102:
 1289 00c2 3097      		sbiw r30,0
 1290 00c4 01F4      		brne .L104
 1291 00c6 1092 0000 		sts (tcp_tmp_pcb)+1,__zero_reg__
 1292 00ca 1092 0000 		sts tcp_tmp_pcb,__zero_reg__
 1293               	.L101:
 1294 00ce F801      		movw r30,r16
 1295 00d0 1586      		std Z+13,__zero_reg__
 1296 00d2 1486      		std Z+12,__zero_reg__
 1297               	.LSM144:
 1298 00d4 82E0      		ldi r24,lo8(2)
 1299 00d6 B801      		movw r22,r16
 1300 00d8 0E94 0000 		call memp_free
 1301               	.LSM145:
 1302 00dc 80E0      		ldi r24,lo8(gs(tcp_accept_null))
 1303 00de 90E0      		ldi r25,hi8(gs(tcp_accept_null))
 1304 00e0 9D8B      		std Y+21,r25
 1305 00e2 8C8B      		std Y+20,r24
 1306               	.LSM146:
 1307 00e4 8091 0000 		lds r24,tcp_listen_pcbs
 1308 00e8 9091 0000 		lds r25,(tcp_listen_pcbs)+1
 1309 00ec 9D87      		std Y+13,r25
 1310 00ee 8C87      		std Y+12,r24
 1311 00f0 D093 0000 		sts (tcp_listen_pcbs)+1,r29
 1312 00f4 C093 0000 		sts tcp_listen_pcbs,r28
 1313               	.LSM147:
 1314 00f8 9E01      		movw r18,r28
 1315               	.LVL115:
 1316 00fa 00C0      		rjmp .L105
 1317               	.LVL116:
 1318               	.L97:
 1319 00fc 20E0      		ldi r18,lo8(0)
 1320 00fe 30E0      		ldi r19,hi8(0)
 1321               	.LVL117:
 1322               	.L105:
 1323               	.LSM148:
 1324 0100 C901      		movw r24,r18
 1325               	.LVL118:
 1326               	/* epilogue start */
 1327 0102 DF91      		pop r29
 1328 0104 CF91      		pop r28
 1329               	.LVL119:
 1330 0106 1F91      		pop r17
 1331 0108 0F91      		pop r16
 1332 010a 0895      		ret
 1333               	.LFE7:
 1335               		.section	.text.tcp_connect,"ax",@progbits
 1336               	.global	tcp_connect
 1338               	tcp_connect:
 1339               	.LFB10:
 1340               	.LSM149:
 1341               	.LVL120:
 1342 0000 AF92      		push r10
 1343 0002 BF92      		push r11
 1344 0004 CF92      		push r12
 1345 0006 EF92      		push r14
 1346 0008 FF92      		push r15
 1347 000a 0F93      		push r16
 1348 000c 1F93      		push r17
 1349 000e DF93      		push r29
 1350 0010 CF93      		push r28
 1351 0012 00D0      		rcall .
 1352 0014 00D0      		rcall .
 1353 0016 CDB7      		in r28,__SP_L__
 1354 0018 DEB7      		in r29,__SP_H__
 1355               	/* prologue: function */
 1356               	/* frame size = 4 */
 1357 001a 5C01      		movw r10,r24
 1358 001c 7B01      		movw r14,r22
 1359 001e 8901      		movw r16,r18
 1360               	.LSM150:
 1361 0020 DC01      		movw r26,r24
 1362 0022 1E96      		adiw r26,14
 1363 0024 8C91      		ld r24,X
 1364               	.LVL121:
 1365 0026 8823      		tst r24
 1366 0028 01F0      		breq .L108
 1367               	.LVL122:
 1368 002a 04EF      		ldi r16,lo8(-12)
 1369               	.LVL123:
 1370 002c 00C0      		rjmp .L109
 1371               	.LVL124:
 1372               	.L108:
 1373               	.LSM151:
 1374 002e 6115      		cp r22,__zero_reg__
 1375 0030 7105      		cpc r23,__zero_reg__
 1376 0032 01F4      		brne .L110
 1377               	.LVL125:
 1378 0034 08EF      		ldi r16,lo8(-8)
 1379               	.LVL126:
 1380 0036 00C0      		rjmp .L109
 1381               	.LVL127:
 1382               	.L110:
 1383               	.LSM152:
 1384 0038 FB01      		movw r30,r22
 1385 003a 8081      		ld r24,Z
 1386 003c 9181      		ldd r25,Z+1
 1387 003e A281      		ldd r26,Z+2
 1388 0040 B381      		ldd r27,Z+3
 1389 0042 F501      		movw r30,r10
 1390 0044 8483      		std Z+4,r24
 1391 0046 9583      		std Z+5,r25
 1392 0048 A683      		std Z+6,r26
 1393 004a B783      		std Z+7,r27
 1394               	.LSM153:
 1395 004c 558B      		std Z+21,r21
 1396 004e 448B      		std Z+20,r20
 1397               	.LSM154:
 1398 0050 8289      		ldd r24,Z+18
 1399 0052 9389      		ldd r25,Z+19
 1400 0054 892B      		or r24,r25
 1401 0056 01F4      		brne .L111
 1402               	.LSM155:
 1403 0058 0E94 0000 		call tcp_new_port
 1404               	.LVL128:
 1405 005c D501      		movw r26,r10
 1406 005e 5396      		adiw r26,18+1
 1407 0060 9C93      		st X,r25
 1408 0062 8E93      		st -X,r24
 1409 0064 5297      		sbiw r26,18
 1410               	.LVL129:
 1411               	.L111:
 1412               	.LSM156:
 1413 0066 0E94 0000 		call tcp_next_iss
 1414               	.LVL130:
 1415               	.LSM157:
 1416 006a F501      		movw r30,r10
 1417 006c 178A      		std Z+23,__zero_reg__
 1418 006e 108E      		std Z+24,__zero_reg__
 1419 0070 118E      		std Z+25,__zero_reg__
 1420 0072 128E      		std Z+26,__zero_reg__
 1421               	.LSM158:
 1422 0074 21E4      		ldi r18,lo8(65)
 1423 0076 30E0      		ldi r19,hi8(65)
 1424 0078 A20E      		add r10,r18
 1425 007a B31E      		adc r11,r19
 1426 007c D501      		movw r26,r10
 1427 007e 6D93      		st X+,r22
 1428 0080 7D93      		st X+,r23
 1429 0082 8D93      		st X+,r24
 1430 0084 9C93      		st X,r25
 1431 0086 1397      		sbiw r26,3
 1432               	.LVL131:
 1433 0088 EFEB      		ldi r30,lo8(-65)
 1434 008a FFEF      		ldi r31,hi8(-65)
 1435 008c AE0E      		add r10,r30
 1436 008e BF1E      		adc r11,r31
 1437               	.LSM159:
 1438 0090 6150      		subi r22,lo8(-(-1))
 1439 0092 7040      		sbci r23,hi8(-(-1))
 1440 0094 8040      		sbci r24,hlo8(-(-1))
 1441 0096 9040      		sbci r25,hhi8(-(-1))
 1442               	.LVL132:
 1443 0098 D501      		movw r26,r10
 1444 009a D896      		adiw r26,56
 1445 009c 6D93      		st X+,r22
 1446 009e 7D93      		st X+,r23
 1447 00a0 8D93      		st X+,r24
 1448 00a2 9C93      		st X,r25
 1449 00a4 DB97      		sbiw r26,56+3
 1450               	.LSM160:
 1451 00a6 E3E5      		ldi r30,lo8(83)
 1452 00a8 F0E0      		ldi r31,hi8(83)
 1453 00aa AE0E      		add r10,r30
 1454 00ac BF1E      		adc r11,r31
 1455 00ae D501      		movw r26,r10
 1456 00b0 6D93      		st X+,r22
 1457 00b2 7D93      		st X+,r23
 1458 00b4 8D93      		st X+,r24
 1459 00b6 9C93      		st X,r25
 1460 00b8 1397      		sbiw r26,3
 1461 00ba EDEA      		ldi r30,lo8(-83)
 1462 00bc FFEF      		ldi r31,hi8(-83)
 1463 00be AE0E      		add r10,r30
 1464 00c0 BF1E      		adc r11,r31
 1465               	.LSM161:
 1466 00c2 80E0      		ldi r24,lo8(2048)
 1467 00c4 98E0      		ldi r25,hi8(2048)
 1468 00c6 D501      		movw r26,r10
 1469 00c8 5C96      		adiw r26,27+1
 1470 00ca 9C93      		st X,r25
 1471 00cc 8E93      		st -X,r24
 1472 00ce 5B97      		sbiw r26,27
 1473               	.LSM162:
 1474 00d0 5E96      		adiw r26,29+1
 1475 00d2 9C93      		st X,r25
 1476 00d4 8E93      		st -X,r24
 1477 00d6 5D97      		sbiw r26,29
 1478               	.LSM163:
 1479 00d8 E9E4      		ldi r30,lo8(73)
 1480 00da F0E0      		ldi r31,hi8(73)
 1481 00dc AE0E      		add r10,r30
 1482 00de BF1E      		adc r11,r31
 1483 00e0 D501      		movw r26,r10
 1484 00e2 8D93      		st X+,r24
 1485 00e4 9C93      		st X,r25
 1486 00e6 E7EB      		ldi r30,lo8(-73)
 1487 00e8 FFEF      		ldi r31,hi8(-73)
 1488 00ea AE0E      		add r10,r30
 1489 00ec BF1E      		adc r11,r31
 1490               	.LSM164:
 1491 00ee 80E8      		ldi r24,lo8(128)
 1492 00f0 90E0      		ldi r25,hi8(128)
 1493 00f2 D501      		movw r26,r10
 1494 00f4 9896      		adiw r26,39+1
 1495 00f6 9C93      		st X,r25
 1496 00f8 8E93      		st -X,r24
 1497 00fa 9797      		sbiw r26,39
 1498               	.LSM165:
 1499 00fc B701      		movw r22,r14
 1500 00fe 0E94 0000 		call tcp_eff_send_mss
 1501 0102 F501      		movw r30,r10
 1502 0104 87A3      		std Z+39,r24
 1503 0106 90A7      		std Z+40,r25
 1504               	.LSM166:
 1505 0108 21E0      		ldi r18,lo8(1)
 1506 010a 30E0      		ldi r19,hi8(1)
 1507 010c 36AF      		std Z+62,r19
 1508 010e 25AF      		std Z+61,r18
 1509               	.LSM167:
 1510 0110 9C01      		movw r18,r24
 1511 0112 53E0      		ldi r21,3
 1512 0114 880F      	1:	lsl r24
 1513 0116 991F      		rol r25
 1514 0118 5A95      		dec r21
 1515 011a 01F4      		brne 1b
 1516 011c 220F      		lsl r18
 1517 011e 331F      		rol r19
 1518 0120 820F      		add r24,r18
 1519 0122 931F      		adc r25,r19
 1520 0124 2FE3      		ldi r18,lo8(63)
 1521 0126 30E0      		ldi r19,hi8(63)
 1522 0128 A20E      		add r10,r18
 1523 012a B31E      		adc r11,r19
 1524 012c D501      		movw r26,r10
 1525 012e 8D93      		st X+,r24
 1526 0130 9C93      		st X,r25
 1527 0132 E1EC      		ldi r30,lo8(-63)
 1528 0134 FFEF      		ldi r31,hi8(-63)
 1529 0136 AE0E      		add r10,r30
 1530 0138 BF1E      		adc r11,r31
 1531               	.LSM168:
 1532 013a 82E0      		ldi r24,lo8(2)
 1533 013c D501      		movw r26,r10
 1534 013e 1E96      		adiw r26,14
 1535 0140 8C93      		st X,r24
 1536               	.LSM169:
 1537 0142 E9E6      		ldi r30,lo8(105)
 1538 0144 F0E0      		ldi r31,hi8(105)
 1539 0146 AE0E      		add r10,r30
 1540 0148 BF1E      		adc r11,r31
 1541 014a D501      		movw r26,r10
 1542 014c 0D93      		st X+,r16
 1543 014e 1C93      		st X,r17
 1544 0150 E7E9      		ldi r30,lo8(-105)
 1545 0152 FFEF      		ldi r31,hi8(-105)
 1546 0154 AE0E      		add r10,r30
 1547 0156 BF1E      		adc r11,r31
 1548               	.LSM170:
 1549 0158 E091 0000 		lds r30,tcp_bound_pcbs
 1550 015c F091 0000 		lds r31,(tcp_bound_pcbs)+1
 1551 0160 EA15      		cp r30,r10
 1552 0162 FB05      		cpc r31,r11
 1553 0164 01F4      		brne .L112
 1554 0166 D501      		movw r26,r10
 1555 0168 1C96      		adiw r26,12
 1556 016a 8D91      		ld r24,X+
 1557 016c 9C91      		ld r25,X
 1558 016e 1D97      		sbiw r26,12+1
 1559 0170 9093 0000 		sts (tcp_bound_pcbs)+1,r25
 1560 0174 8093 0000 		sts tcp_bound_pcbs,r24
 1561 0178 00C0      		rjmp .L113
 1562               	.L112:
 1563 017a F093 0000 		sts (tcp_tmp_pcb)+1,r31
 1564 017e E093 0000 		sts tcp_tmp_pcb,r30
 1565 0182 00C0      		rjmp .L114
 1566               	.L116:
 1567 0184 8485      		ldd r24,Z+12
 1568 0186 9585      		ldd r25,Z+13
 1569 0188 0097      		sbiw r24,0
 1570 018a 01F0      		breq .L115
 1571 018c 8A15      		cp r24,r10
 1572 018e 9B05      		cpc r25,r11
 1573 0190 01F4      		brne .L115
 1574 0192 F093 0000 		sts (tcp_tmp_pcb)+1,r31
 1575 0196 E093 0000 		sts tcp_tmp_pcb,r30
 1576 019a D501      		movw r26,r10
 1577 019c 1C96      		adiw r26,12
 1578 019e 8D91      		ld r24,X+
 1579 01a0 9C91      		ld r25,X
 1580 01a2 1D97      		sbiw r26,12+1
 1581 01a4 9587      		std Z+13,r25
 1582 01a6 8487      		std Z+12,r24
 1583 01a8 00C0      		rjmp .L113
 1584               	.L115:
 1585 01aa FC01      		movw r30,r24
 1586               	.L114:
 1587 01ac 3097      		sbiw r30,0
 1588 01ae 01F4      		brne .L116
 1589 01b0 1092 0000 		sts (tcp_tmp_pcb)+1,__zero_reg__
 1590 01b4 1092 0000 		sts tcp_tmp_pcb,__zero_reg__
 1591               	.L113:
 1592               	.LSM171:
 1593 01b8 8091 0000 		lds r24,tcp_active_pcbs
 1594 01bc 9091 0000 		lds r25,(tcp_active_pcbs)+1
 1595 01c0 F501      		movw r30,r10
 1596 01c2 9587      		std Z+13,r25
 1597 01c4 8487      		std Z+12,r24
 1598 01c6 B092 0000 		sts (tcp_active_pcbs)+1,r11
 1599 01ca A092 0000 		sts tcp_active_pcbs,r10
 1600               	.LSM172:
 1601 01ce 60E8      		ldi r22,lo8(33816704)
 1602 01d0 70E0      		ldi r23,hi8(33816704)
 1603 01d2 84E0      		ldi r24,hlo8(33816704)
 1604 01d4 92E0      		ldi r25,hhi8(33816704)
 1605 01d6 0E94 0000 		call htonl
 1606 01da 6983      		std Y+1,r22
 1607 01dc 7A83      		std Y+2,r23
 1608 01de 8B83      		std Y+3,r24
 1609 01e0 9C83      		std Y+4,r25
 1610               	.LVL133:
 1611               	.LSM173:
 1612 01e2 C501      		movw r24,r10
 1613 01e4 60E0      		ldi r22,lo8(0)
 1614 01e6 70E0      		ldi r23,hi8(0)
 1615               	.LVL134:
 1616 01e8 40E0      		ldi r20,lo8(0)
 1617 01ea 50E0      		ldi r21,hi8(0)
 1618 01ec 22E0      		ldi r18,lo8(2)
 1619 01ee 00E0      		ldi r16,lo8(0)
 1620               	.LVL135:
 1621 01f0 7E01      		movw r14,r28
 1622               	.LVL136:
 1623 01f2 0894      		sec
 1624 01f4 E11C      		adc r14,__zero_reg__
 1625 01f6 F11C      		adc r15,__zero_reg__
 1626 01f8 34E0      		ldi r19,lo8(4)
 1627 01fa C32E      		mov r12,r19
 1628 01fc 0E94 0000 		call tcp_enqueue
 1629 0200 082F      		mov r16,r24
 1630               	.LVL137:
 1631               	.LSM174:
 1632 0202 8823      		tst r24
 1633 0204 01F4      		brne .L109
 1634               	.LVL138:
 1635               	.LSM175:
 1636 0206 C501      		movw r24,r10
 1637               	.LVL139:
 1638 0208 0E94 0000 		call tcp_output
 1639               	.LVL140:
 1640               	.L109:
 1641               	.LSM176:
 1642 020c 802F      		mov r24,r16
 1643               	/* epilogue start */
 1644 020e 0F90      		pop __tmp_reg__
 1645 0210 0F90      		pop __tmp_reg__
 1646 0212 0F90      		pop __tmp_reg__
 1647 0214 0F90      		pop __tmp_reg__
 1648 0216 CF91      		pop r28
 1649 0218 DF91      		pop r29
 1650 021a 1F91      		pop r17
 1651 021c 0F91      		pop r16
 1652               	.LVL141:
 1653 021e FF90      		pop r15
 1654 0220 EF90      		pop r14
 1655               	.LVL142:
 1656 0222 CF90      		pop r12
 1657 0224 BF90      		pop r11
 1658 0226 AF90      		pop r10
 1659               	.LVL143:
 1660 0228 0895      		ret
 1661               	.LFE10:
 1663               		.section	.text.tcp_abort,"ax",@progbits
 1664               	.global	tcp_abort
 1666               	tcp_abort:
 1667               	.LFB4:
 1668               	.LSM177:
 1669               	.LVL144:
 1670 0000 2F92      		push r2
 1671 0002 3F92      		push r3
 1672 0004 4F92      		push r4
 1673 0006 5F92      		push r5
 1674 0008 6F92      		push r6
 1675 000a 7F92      		push r7
 1676 000c 8F92      		push r8
 1677 000e 9F92      		push r9
 1678 0010 AF92      		push r10
 1679 0012 BF92      		push r11
 1680 0014 CF92      		push r12
 1681 0016 DF92      		push r13
 1682 0018 EF92      		push r14
 1683 001a FF92      		push r15
 1684 001c 0F93      		push r16
 1685 001e 1F93      		push r17
 1686 0020 DF93      		push r29
 1687 0022 CF93      		push r28
 1688 0024 CDB7      		in r28,__SP_L__
 1689 0026 DEB7      		in r29,__SP_H__
 1690 0028 2A97      		sbiw r28,10
 1691 002a 0FB6      		in __tmp_reg__,__SREG__
 1692 002c F894      		cli
 1693 002e DEBF      		out __SP_H__,r29
 1694 0030 0FBE      		out __SREG__,__tmp_reg__
 1695 0032 CDBF      		out __SP_L__,r28
 1696               	/* prologue: function */
 1697               	/* frame size = 10 */
 1698 0034 8C01      		movw r16,r24
 1699               	.LSM178:
 1700 0036 FC01      		movw r30,r24
 1701 0038 8685      		ldd r24,Z+14
 1702               	.LVL145:
 1703 003a 8A30      		cpi r24,lo8(10)
 1704 003c 01F4      		brne .L119
 1705               	.LSM179:
 1706 003e 80E0      		ldi r24,lo8(tcp_tw_pcbs)
 1707 0040 90E0      		ldi r25,hi8(tcp_tw_pcbs)
 1708 0042 B801      		movw r22,r16
 1709 0044 0E94 0000 		call tcp_pcb_remove
 1710               	.LSM180:
 1711 0048 82E0      		ldi r24,lo8(2)
 1712 004a B801      		movw r22,r16
 1713 004c 0E94 0000 		call memp_free
 1714 0050 00C0      		rjmp .L129
 1715               	.L119:
 1716               	.LSM181:
 1717 0052 0F5B      		subi r16,lo8(-(65))
 1718 0054 1F4F      		sbci r17,hi8(-(65))
 1719 0056 F801      		movw r30,r16
 1720 0058 6080      		ld r6,Z
 1721 005a 7180      		ldd r7,Z+1
 1722 005c 8280      		ldd r8,Z+2
 1723 005e 9380      		ldd r9,Z+3
 1724               	.LVL146:
 1725 0060 0154      		subi r16,lo8(-(-65))
 1726 0062 1040      		sbci r17,hi8(-(-65))
 1727               	.LSM182:
 1728 0064 F801      		movw r30,r16
 1729 0066 A788      		ldd r10,Z+23
 1730 0068 B08C      		ldd r11,Z+24
 1731 006a C18C      		ldd r12,Z+25
 1732 006c D28C      		ldd r13,Z+26
 1733               	.LVL147:
 1734               	.LSM183:
 1735 006e 0115      		cp r16,__zero_reg__
 1736 0070 1105      		cpc r17,__zero_reg__
 1737 0072 01F4      		brne .L121
 1738 0074 80E0      		ldi r24,lo8(0)
 1739 0076 90E0      		ldi r25,hi8(0)
 1740 0078 A0E0      		ldi r26,hlo8(0)
 1741 007a B0E0      		ldi r27,hhi8(0)
 1742 007c 00C0      		rjmp .L122
 1743               	.L121:
 1744 007e F801      		movw r30,r16
 1745 0080 8081      		ld r24,Z
 1746 0082 9181      		ldd r25,Z+1
 1747 0084 A281      		ldd r26,Z+2
 1748 0086 B381      		ldd r27,Z+3
 1749               	.L122:
 1750 0088 8D83      		std Y+5,r24
 1751 008a 9E83      		std Y+6,r25
 1752 008c AF83      		std Y+7,r26
 1753 008e B887      		std Y+8,r27
 1754               	.LSM184:
 1755 0090 C801      		movw r24,r16
 1756 0092 0496      		adiw r24,4
 1757 0094 01F4      		brne .L123
 1758 0096 80E0      		ldi r24,lo8(0)
 1759 0098 90E0      		ldi r25,hi8(0)
 1760 009a A0E0      		ldi r26,hlo8(0)
 1761 009c B0E0      		ldi r27,hhi8(0)
 1762 009e 00C0      		rjmp .L124
 1763               	.L123:
 1764 00a0 F801      		movw r30,r16
 1765 00a2 8481      		ldd r24,Z+4
 1766 00a4 9581      		ldd r25,Z+5
 1767 00a6 A681      		ldd r26,Z+6
 1768 00a8 B781      		ldd r27,Z+7
 1769               	.L124:
 1770 00aa 8983      		std Y+1,r24
 1771 00ac 9A83      		std Y+2,r25
 1772 00ae AB83      		std Y+3,r26
 1773 00b0 BC83      		std Y+4,r27
 1774               	.LSM185:
 1775 00b2 F801      		movw r30,r16
 1776 00b4 2288      		ldd r2,Z+18
 1777 00b6 3388      		ldd r3,Z+19
 1778               	.LVL148:
 1779               	.LSM186:
 1780 00b8 8489      		ldd r24,Z+20
 1781 00ba 9589      		ldd r25,Z+21
 1782 00bc 9A87      		std Y+10,r25
 1783 00be 8987      		std Y+9,r24
 1784               	.LVL149:
 1785               	.LSM187:
 1786 00c0 0159      		subi r16,lo8(-(111))
 1787 00c2 1F4F      		sbci r17,hi8(-(111))
 1788 00c4 F801      		movw r30,r16
 1789 00c6 E080      		ld r14,Z
 1790 00c8 F180      		ldd r15,Z+1
 1791               	.LVL150:
 1792 00ca 0F56      		subi r16,lo8(-(-111))
 1793 00cc 1040      		sbci r17,hi8(-(-111))
 1794               	.LSM188:
 1795 00ce F801      		movw r30,r16
 1796 00d0 4088      		ldd r4,Z+16
 1797 00d2 5188      		ldd r5,Z+17
 1798               	.LVL151:
 1799               	.LSM189:
 1800 00d4 80E0      		ldi r24,lo8(tcp_active_pcbs)
 1801 00d6 90E0      		ldi r25,hi8(tcp_active_pcbs)
 1802 00d8 B801      		movw r22,r16
 1803 00da 0E94 0000 		call tcp_pcb_remove
 1804               	.LSM190:
 1805 00de 015A      		subi r16,lo8(-(95))
 1806 00e0 1F4F      		sbci r17,hi8(-(95))
 1807 00e2 F801      		movw r30,r16
 1808 00e4 8081      		ld r24,Z
 1809 00e6 9181      		ldd r25,Z+1
 1810 00e8 0F55      		subi r16,lo8(-(-95))
 1811 00ea 1040      		sbci r17,hi8(-(-95))
 1812 00ec 0097      		sbiw r24,0
 1813 00ee 01F0      		breq .L125
 1814               	.LSM191:
 1815 00f0 0E94 0000 		call tcp_segs_free
 1816               	.L125:
 1817               	.LSM192:
 1818 00f4 035A      		subi r16,lo8(-(93))
 1819 00f6 1F4F      		sbci r17,hi8(-(93))
 1820 00f8 F801      		movw r30,r16
 1821 00fa 8081      		ld r24,Z
 1822 00fc 9181      		ldd r25,Z+1
 1823 00fe 0D55      		subi r16,lo8(-(-93))
 1824 0100 1040      		sbci r17,hi8(-(-93))
 1825 0102 0097      		sbiw r24,0
 1826 0104 01F0      		breq .L126
 1827               	.LSM193:
 1828 0106 0E94 0000 		call tcp_segs_free
 1829               	.L126:
 1830               	.LSM194:
 1831 010a 0F59      		subi r16,lo8(-(97))
 1832 010c 1F4F      		sbci r17,hi8(-(97))
 1833 010e F801      		movw r30,r16
 1834 0110 8081      		ld r24,Z
 1835 0112 9181      		ldd r25,Z+1
 1836 0114 0156      		subi r16,lo8(-(-97))
 1837 0116 1040      		sbci r17,hi8(-(-97))
 1838 0118 0097      		sbiw r24,0
 1839 011a 01F0      		breq .L127
 1840               	.LSM195:
 1841 011c 0E94 0000 		call tcp_segs_free
 1842               	.L127:
 1843               	.LSM196:
 1844 0120 82E0      		ldi r24,lo8(2)
 1845 0122 B801      		movw r22,r16
 1846 0124 0E94 0000 		call memp_free
 1847               	.LSM197:
 1848 0128 E114      		cp r14,__zero_reg__
 1849 012a F104      		cpc r15,__zero_reg__
 1850 012c 01F0      		breq .L128
 1851 012e C201      		movw r24,r4
 1852 0130 6CEF      		ldi r22,lo8(-4)
 1853 0132 F701      		movw r30,r14
 1854 0134 0995      		icall
 1855               	.L128:
 1856               	.LSM198:
 1857 0136 C401      		movw r24,r8
 1858 0138 B301      		movw r22,r6
 1859 013a A601      		movw r20,r12
 1860 013c 9501      		movw r18,r10
 1861 013e 8E01      		movw r16,r28
 1862               	.LVL152:
 1863 0140 0B5F      		subi r16,lo8(-(5))
 1864 0142 1F4F      		sbci r17,hi8(-(5))
 1865 0144 7E01      		movw r14,r28
 1866               	.LVL153:
 1867 0146 0894      		sec
 1868 0148 E11C      		adc r14,__zero_reg__
 1869 014a F11C      		adc r15,__zero_reg__
 1870 014c 6101      		movw r12,r2
 1871 014e A984      		ldd r10,Y+9
 1872 0150 BA84      		ldd r11,Y+10
 1873               	.LVL154:
 1874 0152 0E94 0000 		call tcp_rst
 1875               	.LVL155:
 1876               	.L129:
 1877               	/* epilogue start */
 1878               	.LSM199:
 1879 0156 2A96      		adiw r28,10
 1880 0158 0FB6      		in __tmp_reg__,__SREG__
 1881 015a F894      		cli
 1882 015c DEBF      		out __SP_H__,r29
 1883 015e 0FBE      		out __SREG__,__tmp_reg__
 1884 0160 CDBF      		out __SP_L__,r28
 1885 0162 CF91      		pop r28
 1886 0164 DF91      		pop r29
 1887 0166 1F91      		pop r17
 1888 0168 0F91      		pop r16
 1889               	.LVL156:
 1890 016a FF90      		pop r15
 1891 016c EF90      		pop r14
 1892 016e DF90      		pop r13
 1893 0170 CF90      		pop r12
 1894 0172 BF90      		pop r11
 1895 0174 AF90      		pop r10
 1896 0176 9F90      		pop r9
 1897 0178 8F90      		pop r8
 1898 017a 7F90      		pop r7
 1899 017c 6F90      		pop r6
 1900               	.LVL157:
 1901 017e 5F90      		pop r5
 1902 0180 4F90      		pop r4
 1903               	.LVL158:
 1904 0182 3F90      		pop r3
 1905 0184 2F90      		pop r2
 1906               	.LVL159:
 1907 0186 0895      		ret
 1908               	.LFE4:
 1910               		.section	.text.tcp_alloc,"ax",@progbits
 1911               	.global	tcp_alloc
 1913               	tcp_alloc:
 1914               	.LFB20:
 1915               	.LSM200:
 1916               	.LVL160:
 1917 0000 6F92      		push r6
 1918 0002 7F92      		push r7
 1919 0004 8F92      		push r8
 1920 0006 9F92      		push r9
 1921 0008 BF92      		push r11
 1922 000a CF92      		push r12
 1923 000c DF92      		push r13
 1924 000e EF92      		push r14
 1925 0010 FF92      		push r15
 1926 0012 0F93      		push r16
 1927 0014 1F93      		push r17
 1928 0016 CF93      		push r28
 1929 0018 DF93      		push r29
 1930               	/* prologue: function */
 1931               	/* frame size = 0 */
 1932 001a B82E      		mov r11,r24
 1933               	.LSM201:
 1934 001c 82E0      		ldi r24,lo8(2)
 1935               	.LVL161:
 1936 001e 0E94 0000 		call memp_malloc
 1937 0022 EC01      		movw r28,r24
 1938               	.LVL162:
 1939               	.LSM202:
 1940 0024 0097      		sbiw r24,0
 1941 0026 01F0      		breq .+2
 1942 0028 00C0      		rjmp .L131
 1943               	.LBB7:
 1944               	.LBB8:
 1945               	.LSM203:
 1946 002a E091 0000 		lds r30,tcp_tw_pcbs
 1947 002e F091 0000 		lds r31,(tcp_tw_pcbs)+1
 1948               	.LVL163:
 1949               	.LSM204:
 1950 0032 E090 0000 		lds r14,tcp_ticks
 1951 0036 F090 0000 		lds r15,(tcp_ticks)+1
 1952 003a 0091 0000 		lds r16,(tcp_ticks)+2
 1953 003e 1091 0000 		lds r17,(tcp_ticks)+3
 1954 0042 20E0      		ldi r18,lo8(0)
 1955 0044 30E0      		ldi r19,hi8(0)
 1956 0046 40E0      		ldi r20,hlo8(0)
 1957 0048 50E0      		ldi r21,hhi8(0)
 1958               	.LVL164:
 1959 004a 60E0      		ldi r22,lo8(0)
 1960 004c 70E0      		ldi r23,hi8(0)
 1961               	.LVL165:
 1962 004e 00C0      		rjmp .L132
 1963               	.LVL166:
 1964               	.L135:
 1965 0050 878D      		ldd r24,Z+31
 1966 0052 90A1      		ldd r25,Z+32
 1967 0054 A1A1      		ldd r26,Z+33
 1968 0056 B2A1      		ldd r27,Z+34
 1969 0058 3701      		movw r6,r14
 1970 005a 4801      		movw r8,r16
 1971 005c 681A      		sub r6,r24
 1972 005e 790A      		sbc r7,r25
 1973 0060 8A0A      		sbc r8,r26
 1974 0062 9B0A      		sbc r9,r27
 1975 0064 D401      		movw r26,r8
 1976 0066 C301      		movw r24,r6
 1977               	.LVL167:
 1978 0068 6216      		cp r6,r18
 1979 006a 7306      		cpc r7,r19
 1980 006c 8406      		cpc r8,r20
 1981 006e 9506      		cpc r9,r21
 1982 0070 00F4      		brsh .L133
 1983               	.LVL168:
 1984 0072 DA01      		movw r26,r20
 1985 0074 C901      		movw r24,r18
 1986 0076 00C0      		rjmp .L134
 1987               	.L133:
 1988 0078 BF01      		movw r22,r30
 1989               	.LVL169:
 1990               	.L134:
 1991               	.LSM205:
 1992 007a 0484      		ldd __tmp_reg__,Z+12
 1993 007c F585      		ldd r31,Z+13
 1994 007e E02D      		mov r30,__tmp_reg__
 1995               	.LVL170:
 1996 0080 9C01      		movw r18,r24
 1997 0082 AD01      		movw r20,r26
 1998               	.LVL171:
 1999               	.L132:
 2000 0084 3097      		sbiw r30,0
 2001 0086 01F4      		brne .L135
 2002               	.LSM206:
 2003 0088 6115      		cp r22,__zero_reg__
 2004 008a 7105      		cpc r23,__zero_reg__
 2005 008c 01F0      		breq .L136
 2006               	.LVL172:
 2007               	.LSM207:
 2008 008e CB01      		movw r24,r22
 2009 0090 0E94 0000 		call tcp_abort
 2010               	.LVL173:
 2011               	.L136:
 2012               	.LBE8:
 2013               	.LBE7:
 2014               	.LSM208:
 2015 0094 82E0      		ldi r24,lo8(2)
 2016 0096 0E94 0000 		call memp_malloc
 2017               	.LVL174:
 2018 009a EC01      		movw r28,r24
 2019               	.LSM209:
 2020 009c 0097      		sbiw r24,0
 2021 009e 01F0      		breq .+2
 2022 00a0 00C0      		rjmp .L131
 2023               	.LVL175:
 2024               	.LBB9:
 2025               	.LBB10:
 2026               	.LSM210:
 2027 00a2 E091 0000 		lds r30,tcp_active_pcbs
 2028 00a6 F091 0000 		lds r31,(tcp_active_pcbs)+1
 2029               	.LVL176:
 2030               	.LSM211:
 2031 00aa C090 0000 		lds r12,tcp_ticks
 2032 00ae D090 0000 		lds r13,(tcp_ticks)+1
 2033 00b2 E090 0000 		lds r14,(tcp_ticks)+2
 2034 00b6 F090 0000 		lds r15,(tcp_ticks)+3
 2035 00ba 0FE7      		ldi r16,lo8(127)
 2036               	.LVL177:
 2037 00bc 20E0      		ldi r18,lo8(0)
 2038 00be 30E0      		ldi r19,hi8(0)
 2039 00c0 40E0      		ldi r20,hlo8(0)
 2040 00c2 50E0      		ldi r21,hhi8(0)
 2041               	.LVL178:
 2042 00c4 60E0      		ldi r22,lo8(0)
 2043 00c6 70E0      		ldi r23,hi8(0)
 2044               	.LVL179:
 2045 00c8 00C0      		rjmp .L137
 2046               	.LVL180:
 2047               	.L140:
 2048 00ca 1785      		ldd r17,Z+15
 2049               	.LVL181:
 2050 00cc B116      		cp r11,r17
 2051 00ce 00F0      		brlo .L138
 2052 00d0 0117      		cp r16,r17
 2053 00d2 00F0      		brlo .L138
 2054               	.LVL182:
 2055 00d4 878D      		ldd r24,Z+31
 2056 00d6 90A1      		ldd r25,Z+32
 2057 00d8 A1A1      		ldd r26,Z+33
 2058 00da B2A1      		ldd r27,Z+34
 2059 00dc 3601      		movw r6,r12
 2060 00de 4701      		movw r8,r14
 2061               	.LVL183:
 2062 00e0 681A      		sub r6,r24
 2063 00e2 790A      		sbc r7,r25
 2064 00e4 8A0A      		sbc r8,r26
 2065 00e6 9B0A      		sbc r9,r27
 2066 00e8 D401      		movw r26,r8
 2067 00ea C301      		movw r24,r6
 2068               	.LVL184:
 2069 00ec 6216      		cp r6,r18
 2070 00ee 7306      		cpc r7,r19
 2071 00f0 8406      		cpc r8,r20
 2072 00f2 9506      		cpc r9,r21
 2073 00f4 00F0      		brlo .L138
 2074               	.LVL185:
 2075 00f6 BF01      		movw r22,r30
 2076 00f8 00C0      		rjmp .L139
 2077               	.LVL186:
 2078               	.L138:
 2079 00fa 102F      		mov r17,r16
 2080 00fc DA01      		movw r26,r20
 2081 00fe C901      		movw r24,r18
 2082               	.L139:
 2083               	.LSM212:
 2084 0100 0484      		ldd __tmp_reg__,Z+12
 2085 0102 F585      		ldd r31,Z+13
 2086 0104 E02D      		mov r30,__tmp_reg__
 2087 0106 012F      		mov r16,r17
 2088 0108 9C01      		movw r18,r24
 2089 010a AD01      		movw r20,r26
 2090               	.LVL187:
 2091               	.L137:
 2092 010c 3097      		sbiw r30,0
 2093 010e 01F4      		brne .L140
 2094               	.LSM213:
 2095 0110 6115      		cp r22,__zero_reg__
 2096 0112 7105      		cpc r23,__zero_reg__
 2097 0114 01F0      		breq .L141
 2098               	.LVL188:
 2099               	.LSM214:
 2100 0116 CB01      		movw r24,r22
 2101 0118 0E94 0000 		call tcp_abort
 2102               	.LVL189:
 2103               	.L141:
 2104               	.LBE10:
 2105               	.LBE9:
 2106               	.LSM215:
 2107 011c 82E0      		ldi r24,lo8(2)
 2108 011e 0E94 0000 		call memp_malloc
 2109               	.LVL190:
 2110 0122 EC01      		movw r28,r24
 2111               	.LSM216:
 2112 0124 0097      		sbiw r24,0
 2113 0126 01F4      		brne .+2
 2114 0128 00C0      		rjmp .L142
 2115               	.LVL191:
 2116               	.L131:
 2117               	.LSM217:
 2118 012a 8BE7      		ldi r24,lo8(123)
 2119               	.LVL192:
 2120 012c FE01      		movw r30,r28
 2121 012e 1192      		st Z+,__zero_reg__
 2122 0130 8A95      	        dec r24
 2123 0132 01F4      		brne .-6
 2124               	.LSM218:
 2125 0134 80E4      		ldi r24,lo8(64)
 2126 0136 8F87      		std Y+15,r24
 2127               	.LSM219:
 2128 0138 C75A      		subi r28,lo8(-(89))
 2129 013a DF4F      		sbci r29,hi8(-(89))
 2130 013c 80E0      		ldi r24,lo8(768)
 2131 013e 93E0      		ldi r25,hi8(768)
 2132 0140 8993      		st Y+,r24
 2133 0142 9993      		st Y+,r25
 2134               	.LSM220:
 2135 0144 1982      		std Y+1,__zero_reg__
 2136 0146 1882      		st Y,__zero_reg__
 2137 0148 CB55      		subi r28,lo8(-(-91))
 2138 014a D040      		sbci r29,hi8(-(-91))
 2139               	.LSM221:
 2140 014c 80E0      		ldi r24,lo8(2048)
 2141 014e 98E0      		ldi r25,hi8(2048)
 2142 0150 9C8F      		std Y+28,r25
 2143 0152 8B8F      		std Y+27,r24
 2144               	.LSM222:
 2145 0154 9E8F      		std Y+30,r25
 2146 0156 8D8F      		std Y+29,r24
 2147               	.LSM223:
 2148 0158 1A86      		std Y+10,__zero_reg__
 2149               	.LSM224:
 2150 015a 8FEF      		ldi r24,lo8(-1)
 2151 015c 8B87      		std Y+11,r24
 2152               	.LSM225:
 2153 015e 80E8      		ldi r24,lo8(128)
 2154 0160 90E0      		ldi r25,hi8(128)
 2155 0162 98A7      		std Y+40,r25
 2156 0164 8FA3      		std Y+39,r24
 2157               	.LSM226:
 2158 0166 86E0      		ldi r24,lo8(6)
 2159 0168 90E0      		ldi r25,hi8(6)
 2160 016a 9EAB      		std Y+54,r25
 2161 016c 8DAB      		std Y+53,r24
 2162               	.LSM227:
 2163 016e 1AAA      		std Y+50,__zero_reg__
 2164 0170 19AA      		std Y+49,__zero_reg__
 2165               	.LSM228:
 2166 0172 9CAB      		std Y+52,r25
 2167 0174 8BAB      		std Y+51,r24
 2168               	.LSM229:
 2169 0176 8FEF      		ldi r24,lo8(-1)
 2170 0178 9FEF      		ldi r25,hi8(-1)
 2171 017a 9EA3      		std Y+38,r25
 2172 017c 8DA3      		std Y+37,r24
 2173               	.LSM230:
 2174 017e 81E0      		ldi r24,lo8(1)
 2175 0180 90E0      		ldi r25,hi8(1)
 2176 0182 9EAF      		std Y+62,r25
 2177 0184 8DAF      		std Y+61,r24
 2178               	.LSM231:
 2179 0186 0E94 0000 		call tcp_next_iss
 2180               	.LSM232:
 2181 018a C15B      		subi r28,lo8(-(79))
 2182 018c DF4F      		sbci r29,hi8(-(79))
 2183 018e 6883      		st Y,r22
 2184 0190 7983      		std Y+1,r23
 2185 0192 8A83      		std Y+2,r24
 2186 0194 9B83      		std Y+3,r25
 2187               	.LVL193:
 2188               	.LSM233:
 2189 0196 2E97      		sbiw r28,14
 2190 0198 6993      		st Y+,r22
 2191 019a 7993      		st Y+,r23
 2192 019c 8993      		st Y+,r24
 2193 019e 9993      		st Y+,r25
 2194               	.LSM234:
 2195 01a0 6883      		st Y,r22
 2196 01a2 7983      		std Y+1,r23
 2197 01a4 8A83      		std Y+2,r24
 2198 01a6 9B83      		std Y+3,r25
 2199 01a8 C554      		subi r28,lo8(-(-69))
 2200 01aa D040      		sbci r29,hi8(-(-69))
 2201               	.LSM235:
 2202 01ac 68AF      		std Y+56,r22
 2203 01ae 79AF      		std Y+57,r23
 2204 01b0 8AAF      		std Y+58,r24
 2205 01b2 9BAF      		std Y+59,r25
 2206               	.LSM236:
 2207 01b4 CD5A      		subi r28,lo8(-(83))
 2208 01b6 DF4F      		sbci r29,hi8(-(83))
 2209 01b8 6883      		st Y,r22
 2210 01ba 7983      		std Y+1,r23
 2211 01bc 8A83      		std Y+2,r24
 2212 01be 9B83      		std Y+3,r25
 2213 01c0 C355      		subi r28,lo8(-(-83))
 2214 01c2 D040      		sbci r29,hi8(-(-83))
 2215               	.LSM237:
 2216 01c4 8091 0000 		lds r24,tcp_ticks
 2217 01c8 9091 0000 		lds r25,(tcp_ticks)+1
 2218 01cc A091 0000 		lds r26,(tcp_ticks)+2
 2219 01d0 B091 0000 		lds r27,(tcp_ticks)+3
 2220 01d4 8F8F      		std Y+31,r24
 2221 01d6 98A3      		std Y+32,r25
 2222 01d8 A9A3      		std Y+33,r26
 2223 01da BAA3      		std Y+34,r27
 2224               	.LSM238:
 2225 01dc 1BA2      		std Y+35,__zero_reg__
 2226               	.LSM239:
 2227 01de C959      		subi r28,lo8(-(103))
 2228 01e0 DF4F      		sbci r29,hi8(-(103))
 2229 01e2 80E0      		ldi r24,lo8(gs(tcp_recv_null))
 2230 01e4 90E0      		ldi r25,hi8(gs(tcp_recv_null))
 2231 01e6 9983      		std Y+1,r25
 2232 01e8 8883      		st Y,r24
 2233               	.LSM240:
 2234 01ea 2A96      		adiw r28,10
 2235 01ec 80E0      		ldi r24,lo8(7200000)
 2236 01ee 9DED      		ldi r25,hi8(7200000)
 2237 01f0 ADE6      		ldi r26,hlo8(7200000)
 2238 01f2 B0E0      		ldi r27,hhi8(7200000)
 2239 01f4 8883      		st Y,r24
 2240 01f6 9983      		std Y+1,r25
 2241 01f8 AA83      		std Y+2,r26
 2242 01fa BB83      		std Y+3,r27
 2243               	.LSM241:
 2244 01fc 2996      		adiw r28,9
 2245 01fe 1882      		st Y,__zero_reg__
 2246 0200 CA57      		subi r28,lo8(-(-122))
 2247 0202 D040      		sbci r29,hi8(-(-122))
 2248               	.LVL194:
 2249               	.L142:
 2250               	.LSM242:
 2251 0204 CE01      		movw r24,r28
 2252               	.LVL195:
 2253               	/* epilogue start */
 2254 0206 DF91      		pop r29
 2255 0208 CF91      		pop r28
 2256 020a 1F91      		pop r17
 2257 020c 0F91      		pop r16
 2258               	.LVL196:
 2259 020e FF90      		pop r15
 2260 0210 EF90      		pop r14
 2261 0212 DF90      		pop r13
 2262 0214 CF90      		pop r12
 2263 0216 BF90      		pop r11
 2264               	.LVL197:
 2265 0218 9F90      		pop r9
 2266 021a 8F90      		pop r8
 2267 021c 7F90      		pop r7
 2268 021e 6F90      		pop r6
 2269               	.LVL198:
 2270 0220 0895      		ret
 2271               	.LFE20:
 2273               		.section	.text.tcp_new,"ax",@progbits
 2274               	.global	tcp_new
 2276               	tcp_new:
 2277               	.LFB21:
 2278               	.LSM243:
 2279               	/* prologue: function */
 2280               	/* frame size = 0 */
 2281               	.LSM244:
 2282 0000 80E4      		ldi r24,lo8(64)
 2283 0002 0E94 0000 		call tcp_alloc
 2284               	/* epilogue start */
 2285               	.LSM245:
 2286 0006 0895      		ret
 2287               	.LFE21:
 2289               		.section	.text.tcp_slowtmr,"ax",@progbits
 2290               	.global	tcp_slowtmr
 2292               	tcp_slowtmr:
 2293               	.LFB11:
 2294               	.LSM246:
 2295 0000 4F92      		push r4
 2296 0002 5F92      		push r5
 2297 0004 6F92      		push r6
 2298 0006 7F92      		push r7
 2299 0008 8F92      		push r8
 2300 000a 9F92      		push r9
 2301 000c AF92      		push r10
 2302 000e BF92      		push r11
 2303 0010 CF92      		push r12
 2304 0012 DF92      		push r13
 2305 0014 EF92      		push r14
 2306 0016 FF92      		push r15
 2307 0018 0F93      		push r16
 2308 001a 1F93      		push r17
 2309 001c CF93      		push r28
 2310 001e DF93      		push r29
 2311               	/* prologue: function */
 2312               	/* frame size = 0 */
 2313               	.LSM247:
 2314 0020 8091 0000 		lds r24,tcp_ticks
 2315 0024 9091 0000 		lds r25,(tcp_ticks)+1
 2316 0028 A091 0000 		lds r26,(tcp_ticks)+2
 2317 002c B091 0000 		lds r27,(tcp_ticks)+3
 2318 0030 0196      		adiw r24,1
 2319 0032 A11D      		adc r26,__zero_reg__
 2320 0034 B11D      		adc r27,__zero_reg__
 2321 0036 8093 0000 		sts tcp_ticks,r24
 2322 003a 9093 0000 		sts (tcp_ticks)+1,r25
 2323 003e A093 0000 		sts (tcp_ticks)+2,r26
 2324 0042 B093 0000 		sts (tcp_ticks)+3,r27
 2325               	.LSM248:
 2326 0046 C091 0000 		lds r28,tcp_active_pcbs
 2327 004a D091 0000 		lds r29,(tcp_active_pcbs)+1
 2328               	.LVL199:
 2329 004e 4424      		clr r4
 2330 0050 5524      		clr r5
 2331               	.LVL200:
 2332 0052 6624      		clr r6
 2333               	.LVL201:
 2334 0054 00C0      		rjmp .L180
 2335               	.LVL202:
 2336               	.L172:
 2337               	.LSM249:
 2338 0056 8E85      		ldd r24,Y+14
 2339 0058 8230      		cpi r24,lo8(2)
 2340 005a 01F4      		brne .L148
 2341 005c 8FA9      		ldd r24,Y+55
 2342 005e 8630      		cpi r24,lo8(6)
 2343 0060 01F4      		brne .+2
 2344 0062 00C0      		rjmp .L149
 2345               	.L148:
 2346               	.LSM250:
 2347 0064 8FA9      		ldd r24,Y+55
 2348 0066 8C30      		cpi r24,lo8(12)
 2349 0068 01F4      		brne .+2
 2350 006a 00C0      		rjmp .L149
 2351               	.LSM251:
 2352 006c 39E7      		ldi r19,lo8(121)
 2353 006e E32E      		mov r14,r19
 2354 0070 F12C      		mov r15,__zero_reg__
 2355 0072 EC0E      		add r14,r28
 2356 0074 FD1E      		adc r15,r29
 2357 0076 D701      		movw r26,r14
 2358 0078 1C91      		ld r17,X
 2359               	.LVL203:
 2360 007a 1123      		tst r17
 2361 007c 01F0      		breq .L150
 2362               	.LSM252:
 2363 007e BE01      		movw r22,r28
 2364 0080 6B58      		subi r22,lo8(-(117))
 2365 0082 7F4F      		sbci r23,hi8(-(117))
 2366 0084 FB01      		movw r30,r22
 2367 0086 2081      		ld r18,Z
 2368 0088 3181      		ldd r19,Z+1
 2369 008a 4281      		ldd r20,Z+2
 2370 008c 5381      		ldd r21,Z+3
 2371 008e 2F5F      		subi r18,lo8(-(1))
 2372 0090 3F4F      		sbci r19,hi8(-(1))
 2373 0092 4F4F      		sbci r20,hlo8(-(1))
 2374 0094 5F4F      		sbci r21,hhi8(-(1))
 2375 0096 DB01      		movw r26,r22
 2376 0098 2D93      		st X+,r18
 2377 009a 3D93      		st X+,r19
 2378 009c 4D93      		st X+,r20
 2379 009e 5C93      		st X,r21
 2380 00a0 1397      		sbiw r26,3
 2381               	.LSM253:
 2382 00a2 E12F      		mov r30,r17
 2383 00a4 F0E0      		ldi r31,lo8(0)
 2384 00a6 E050      		subi r30,lo8(-(tcp_persist_backoff-1))
 2385 00a8 F040      		sbci r31,hi8(-(tcp_persist_backoff-1))
 2386 00aa 8081      		ld r24,Z
 2387 00ac 90E0      		ldi r25,lo8(0)
 2388               	.LVL204:
 2389 00ae A0E0      		ldi r26,lo8(0)
 2390 00b0 B0E0      		ldi r27,hi8(0)
 2391 00b2 2817      		cp r18,r24
 2392 00b4 3907      		cpc r19,r25
 2393 00b6 4A07      		cpc r20,r26
 2394 00b8 5B07      		cpc r21,r27
 2395 00ba 00F4      		brsh .+2
 2396 00bc 00C0      		rjmp .L151
 2397               	.LSM254:
 2398 00be FB01      		movw r30,r22
 2399 00c0 1082      		st Z,__zero_reg__
 2400 00c2 1182      		std Z+1,__zero_reg__
 2401 00c4 1282      		std Z+2,__zero_reg__
 2402 00c6 1382      		std Z+3,__zero_reg__
 2403               	.LSM255:
 2404 00c8 1730      		cpi r17,lo8(7)
 2405 00ca 00F4      		brsh .L152
 2406               	.LSM256:
 2407 00cc 1F5F      		subi r17,lo8(-(1))
 2408 00ce D701      		movw r26,r14
 2409 00d0 1C93      		st X,r17
 2410               	.L152:
 2411               	.LSM257:
 2412 00d2 CE01      		movw r24,r28
 2413 00d4 0E94 0000 		call tcp_zero_window_probe
 2414 00d8 00C0      		rjmp .L151
 2415               	.LVL205:
 2416               	.L150:
 2417               	.LSM258:
 2418 00da 8DA1      		ldd r24,Y+37
 2419 00dc 9EA1      		ldd r25,Y+38
 2420 00de 97FD      		sbrc r25,7
 2421 00e0 00C0      		rjmp .L154
 2422               	.LSM259:
 2423 00e2 0196      		adiw r24,1
 2424 00e4 9EA3      		std Y+38,r25
 2425 00e6 8DA3      		std Y+37,r24
 2426               	.L154:
 2427               	.LSM260:
 2428 00e8 C15A      		subi r28,lo8(-(95))
 2429 00ea DF4F      		sbci r29,hi8(-(95))
 2430 00ec 8881      		ld r24,Y
 2431 00ee 9981      		ldd r25,Y+1
 2432 00f0 CF55      		subi r28,lo8(-(-95))
 2433 00f2 D040      		sbci r29,hi8(-(-95))
 2434 00f4 892B      		or r24,r25
 2435 00f6 01F4      		brne .+2
 2436 00f8 00C0      		rjmp .L151
 2437 00fa 2DA1      		ldd r18,Y+37
 2438 00fc 3EA1      		ldd r19,Y+38
 2439 00fe 8DA9      		ldd r24,Y+53
 2440 0100 9EA9      		ldd r25,Y+54
 2441 0102 2817      		cp r18,r24
 2442 0104 3907      		cpc r19,r25
 2443 0106 04F4      		brge .+2
 2444 0108 00C0      		rjmp .L151
 2445               	.LSM261:
 2446 010a 8E85      		ldd r24,Y+14
 2447 010c 8230      		cpi r24,lo8(2)
 2448 010e 01F0      		breq .L155
 2449               	.LSM262:
 2450 0110 89A9      		ldd r24,Y+49
 2451 0112 9AA9      		ldd r25,Y+50
 2452 0114 23E0      		ldi r18,3
 2453 0116 9595      	1:	asr r25
 2454 0118 8795      		ror r24
 2455 011a 2A95      		dec r18
 2456 011c 01F4      		brne 1b
 2457 011e 2BA9      		ldd r18,Y+51
 2458 0120 3CA9      		ldd r19,Y+52
 2459 0122 820F      		add r24,r18
 2460 0124 931F      		adc r25,r19
 2461 0126 EFA9      		ldd r30,Y+55
 2462 0128 F0E0      		ldi r31,lo8(0)
 2463 012a E050      		subi r30,lo8(-(tcp_backoff))
 2464 012c F040      		sbci r31,hi8(-(tcp_backoff))
 2465 012e 0080      		ld r0,Z
 2466 0130 00C0      		rjmp 2f
 2467 0132 880F      	1:	lsl r24
 2468 0134 991F      		rol r25
 2469 0136 0A94      	2:	dec r0
 2470 0138 02F4      		brpl 1b
 2471 013a 9EAB      		std Y+54,r25
 2472 013c 8DAB      		std Y+53,r24
 2473               	.L155:
 2474               	.LSM263:
 2475 013e 1EA2      		std Y+38,__zero_reg__
 2476 0140 1DA2      		std Y+37,__zero_reg__
 2477               	.LSM264:
 2478 0142 C75B      		subi r28,lo8(-(73))
 2479 0144 DF4F      		sbci r29,hi8(-(73))
 2480 0146 2881      		ld r18,Y
 2481 0148 3981      		ldd r19,Y+1
 2482 014a C954      		subi r28,lo8(-(-73))
 2483 014c D040      		sbci r29,hi8(-(-73))
 2484 014e 8DAD      		ldd r24,Y+61
 2485 0150 9EAD      		ldd r25,Y+62
 2486 0152 2817      		cp r18,r24
 2487 0154 3907      		cpc r19,r25
 2488 0156 00F4      		brsh .L156
 2489 0158 C901      		movw r24,r18
 2490               	.L156:
 2491 015a 9695      		lsr r25
 2492 015c 8795      		ror r24
 2493               	.LVL206:
 2494 015e FE01      		movw r30,r28
 2495 0160 FF96      		adiw r30,63
 2496 0162 9183      		std Z+1,r25
 2497 0164 8083      		st Z,r24
 2498               	.LSM265:
 2499 0166 2FA1      		ldd r18,Y+39
 2500 0168 38A5      		ldd r19,Y+40
 2501 016a 8217      		cp r24,r18
 2502 016c 9307      		cpc r25,r19
 2503 016e 00F4      		brsh .L157
 2504               	.LSM266:
 2505 0170 220F      		lsl r18
 2506 0172 331F      		rol r19
 2507 0174 3183      		std Z+1,r19
 2508 0176 2083      		st Z,r18
 2509               	.L157:
 2510               	.LSM267:
 2511 0178 8FA1      		ldd r24,Y+39
 2512 017a 98A5      		ldd r25,Y+40
 2513 017c 9EAF      		std Y+62,r25
 2514 017e 8DAF      		std Y+61,r24
 2515               	.LSM268:
 2516 0180 CE01      		movw r24,r28
 2517 0182 0E94 0000 		call tcp_rexmit_rto
 2518               	.LVL207:
 2519 0186 00C0      		rjmp .L151
 2520               	.LVL208:
 2521               	.L149:
 2522 0188 7724      		clr r7
 2523 018a 7394      		inc r7
 2524 018c 00C0      		rjmp .L153
 2525               	.LVL209:
 2526               	.L151:
 2527 018e 7724      		clr r7
 2528               	.LVL210:
 2529               	.L153:
 2530               	.LSM269:
 2531 0190 6E85      		ldd r22,Y+14
 2532 0192 6630      		cpi r22,lo8(6)
 2533 0194 01F4      		brne .L158
 2534               	.LSM270:
 2535 0196 8091 0000 		lds r24,tcp_ticks
 2536 019a 9091 0000 		lds r25,(tcp_ticks)+1
 2537 019e A091 0000 		lds r26,(tcp_ticks)+2
 2538 01a2 B091 0000 		lds r27,(tcp_ticks)+3
 2539 01a6 2F8D      		ldd r18,Y+31
 2540 01a8 38A1      		ldd r19,Y+32
 2541 01aa 49A1      		ldd r20,Y+33
 2542 01ac 5AA1      		ldd r21,Y+34
 2543 01ae 821B      		sub r24,r18
 2544 01b0 930B      		sbc r25,r19
 2545 01b2 A40B      		sbc r26,r20
 2546 01b4 B50B      		sbc r27,r21
 2547 01b6 8997      		sbiw r24,41
 2548 01b8 A105      		cpc r26,__zero_reg__
 2549 01ba B105      		cpc r27,__zero_reg__
 2550 01bc 00F0      		brlo .L158
 2551               	.LSM271:
 2552 01be 7394      		inc r7
 2553               	.LVL211:
 2554               	.L158:
 2555               	.LSM272:
 2556 01c0 8885      		ldd r24,Y+8
 2557 01c2 83FF      		sbrs r24,3
 2558 01c4 00C0      		rjmp .L159
 2559 01c6 6430      		cpi r22,lo8(4)
 2560 01c8 01F0      		breq .L160
 2561 01ca 6730      		cpi r22,lo8(7)
 2562 01cc 01F0      		breq .+2
 2563 01ce 00C0      		rjmp .L159
 2564               	.L160:
 2565               	.LSM273:
 2566 01d0 A090 0000 		lds r10,tcp_ticks
 2567 01d4 B090 0000 		lds r11,(tcp_ticks)+1
 2568 01d8 C090 0000 		lds r12,(tcp_ticks)+2
 2569 01dc D090 0000 		lds r13,(tcp_ticks)+3
 2570 01e0 8F8D      		ldd r24,Y+31
 2571 01e2 98A1      		ldd r25,Y+32
 2572 01e4 A9A1      		ldd r26,Y+33
 2573 01e6 BAA1      		ldd r27,Y+34
 2574 01e8 A81A      		sub r10,r24
 2575 01ea B90A      		sbc r11,r25
 2576 01ec CA0A      		sbc r12,r26
 2577 01ee DB0A      		sbc r13,r27
 2578 01f0 CF58      		subi r28,lo8(-(113))
 2579 01f2 DF4F      		sbci r29,hi8(-(113))
 2580 01f4 E880      		ld r14,Y
 2581 01f6 F980      		ldd r15,Y+1
 2582 01f8 0A81      		ldd r16,Y+2
 2583 01fa 1B81      		ldd r17,Y+3
 2584 01fc C157      		subi r28,lo8(-(-113))
 2585 01fe D040      		sbci r29,hi8(-(-113))
 2586 0200 C801      		movw r24,r16
 2587 0202 B701      		movw r22,r14
 2588 0204 6854      		subi r22,lo8(-(675000))
 2589 0206 734B      		sbci r23,hi8(-(675000))
 2590 0208 854F      		sbci r24,hlo8(-(675000))
 2591 020a 9F4F      		sbci r25,hhi8(-(675000))
 2592 020c 24EF      		ldi r18,lo8(500)
 2593 020e 31E0      		ldi r19,hi8(500)
 2594 0210 40E0      		ldi r20,hlo8(500)
 2595 0212 50E0      		ldi r21,hhi8(500)
 2596 0214 0E94 0000 		call __udivmodsi4
 2597 0218 2A15      		cp r18,r10
 2598 021a 3B05      		cpc r19,r11
 2599 021c 4C05      		cpc r20,r12
 2600 021e 5D05      		cpc r21,r13
 2601 0220 00F4      		brsh .L161
 2602               	.LSM274:
 2603 0222 CE01      		movw r24,r28
 2604 0224 0E94 0000 		call tcp_abort
 2605               	.LVL212:
 2606 0228 00C0      		rjmp .L159
 2607               	.LVL213:
 2608               	.L161:
 2609               	.LSM275:
 2610 022a BAE7      		ldi r27,lo8(122)
 2611 022c 8B2E      		mov r8,r27
 2612 022e 912C      		mov r9,__zero_reg__
 2613 0230 8C0E      		add r8,r28
 2614 0232 9D1E      		adc r9,r29
 2615 0234 F401      		movw r30,r8
 2616 0236 6081      		ld r22,Z
 2617 0238 70E0      		ldi r23,lo8(0)
 2618 023a 80E0      		ldi r24,lo8(0)
 2619 023c 90E0      		ldi r25,hi8(0)
 2620 023e 28EF      		ldi r18,lo8(75000)
 2621 0240 34E2      		ldi r19,hi8(75000)
 2622 0242 41E0      		ldi r20,hlo8(75000)
 2623 0244 50E0      		ldi r21,hhi8(75000)
 2624 0246 0E94 0000 		call __mulsi3
 2625 024a E60E      		add r14,r22
 2626 024c F71E      		adc r15,r23
 2627 024e 081F      		adc r16,r24
 2628 0250 191F      		adc r17,r25
 2629 0252 C801      		movw r24,r16
 2630 0254 B701      		movw r22,r14
 2631 0256 24EF      		ldi r18,lo8(500)
 2632 0258 31E0      		ldi r19,hi8(500)
 2633 025a 40E0      		ldi r20,hlo8(500)
 2634 025c 50E0      		ldi r21,hhi8(500)
 2635 025e 0E94 0000 		call __udivmodsi4
 2636 0262 2A15      		cp r18,r10
 2637 0264 3B05      		cpc r19,r11
 2638 0266 4C05      		cpc r20,r12
 2639 0268 5D05      		cpc r21,r13
 2640 026a 00F4      		brsh .L159
 2641               	.LSM276:
 2642 026c CE01      		movw r24,r28
 2643 026e 0E94 0000 		call tcp_keepalive
 2644               	.LVL214:
 2645               	.LSM277:
 2646 0272 D401      		movw r26,r8
 2647 0274 8C91      		ld r24,X
 2648 0276 8F5F      		subi r24,lo8(-(1))
 2649 0278 8C93      		st X,r24
 2650               	.LVL215:
 2651               	.L159:
 2652               	.LSM278:
 2653 027a 8E01      		movw r16,r28
 2654               	.LVL216:
 2655 027c 0F59      		subi r16,lo8(-(97))
 2656 027e 1F4F      		sbci r17,hi8(-(97))
 2657 0280 D801      		movw r26,r16
 2658 0282 ED91      		ld r30,X+
 2659 0284 FC91      		ld r31,X
 2660 0286 3097      		sbiw r30,0
 2661 0288 01F0      		breq .L162
 2662 028a 2091 0000 		lds r18,tcp_ticks
 2663 028e 3091 0000 		lds r19,(tcp_ticks)+1
 2664 0292 4091 0000 		lds r20,(tcp_ticks)+2
 2665 0296 5091 0000 		lds r21,(tcp_ticks)+3
 2666 029a 8F8D      		ldd r24,Y+31
 2667 029c 98A1      		ldd r25,Y+32
 2668 029e A9A1      		ldd r26,Y+33
 2669 02a0 BAA1      		ldd r27,Y+34
 2670 02a2 281B      		sub r18,r24
 2671 02a4 390B      		sbc r19,r25
 2672 02a6 4A0B      		sbc r20,r26
 2673 02a8 5B0B      		sbc r21,r27
 2674 02aa 6DA9      		ldd r22,Y+53
 2675 02ac 7EA9      		ldd r23,Y+54
 2676 02ae CB01      		movw r24,r22
 2677 02b0 880F      		lsl r24
 2678 02b2 991F      		rol r25
 2679 02b4 860F      		add r24,r22
 2680 02b6 971F      		adc r25,r23
 2681 02b8 880F      		lsl r24
 2682 02ba 991F      		rol r25
 2683 02bc A0E0      		ldi r26,lo8(0)
 2684 02be B0E0      		ldi r27,hi8(0)
 2685 02c0 2817      		cp r18,r24
 2686 02c2 3907      		cpc r19,r25
 2687 02c4 4A07      		cpc r20,r26
 2688 02c6 5B07      		cpc r21,r27
 2689 02c8 00F0      		brlo .L162
 2690               	.LSM279:
 2691 02ca CF01      		movw r24,r30
 2692 02cc 0E94 0000 		call tcp_segs_free
 2693               	.LVL217:
 2694               	.LSM280:
 2695 02d0 F801      		movw r30,r16
 2696 02d2 1182      		std Z+1,__zero_reg__
 2697 02d4 1082      		st Z,__zero_reg__
 2698               	.LVL218:
 2699               	.L162:
 2700               	.LSM281:
 2701 02d6 8E85      		ldd r24,Y+14
 2702 02d8 8330      		cpi r24,lo8(3)
 2703 02da 01F4      		brne .L163
 2704               	.LSM282:
 2705 02dc 8091 0000 		lds r24,tcp_ticks
 2706 02e0 9091 0000 		lds r25,(tcp_ticks)+1
 2707 02e4 A091 0000 		lds r26,(tcp_ticks)+2
 2708 02e8 B091 0000 		lds r27,(tcp_ticks)+3
 2709 02ec 2F8D      		ldd r18,Y+31
 2710 02ee 38A1      		ldd r19,Y+32
 2711 02f0 49A1      		ldd r20,Y+33
 2712 02f2 5AA1      		ldd r21,Y+34
 2713 02f4 821B      		sub r24,r18
 2714 02f6 930B      		sbc r25,r19
 2715 02f8 A40B      		sbc r26,r20
 2716 02fa B50B      		sbc r27,r21
 2717 02fc 8997      		sbiw r24,41
 2718 02fe A105      		cpc r26,__zero_reg__
 2719 0300 B105      		cpc r27,__zero_reg__
 2720 0302 00F4      		brsh .L164
 2721 0304 00C0      		rjmp .L165
 2722               	.LVL219:
 2723               	.L163:
 2724               	.LSM283:
 2725 0306 8930      		cpi r24,lo8(9)
 2726 0308 01F4      		brne .L165
 2727               	.LSM284:
 2728 030a 8091 0000 		lds r24,tcp_ticks
 2729 030e 9091 0000 		lds r25,(tcp_ticks)+1
 2730 0312 A091 0000 		lds r26,(tcp_ticks)+2
 2731 0316 B091 0000 		lds r27,(tcp_ticks)+3
 2732 031a 2F8D      		ldd r18,Y+31
 2733 031c 38A1      		ldd r19,Y+32
 2734 031e 49A1      		ldd r20,Y+33
 2735 0320 5AA1      		ldd r21,Y+34
 2736 0322 821B      		sub r24,r18
 2737 0324 930B      		sbc r25,r19
 2738 0326 A40B      		sbc r26,r20
 2739 0328 B50B      		sbc r27,r21
 2740 032a 8D36      		cpi r24,lo8(109)
 2741 032c 9105      		cpc r25,__zero_reg__
 2742 032e A105      		cpc r26,__zero_reg__
 2743 0330 B105      		cpc r27,__zero_reg__
 2744 0332 00F4      		brsh .L164
 2745               	.LVL220:
 2746               	.L165:
 2747               	.LSM285:
 2748 0334 7720      		tst r7
 2749 0336 01F0      		breq .L166
 2750               	.L164:
 2751               	.LSM286:
 2752 0338 CE01      		movw r24,r28
 2753 033a 0E94 0000 		call tcp_pcb_purge
 2754               	.LVL221:
 2755 033e 8C85      		ldd r24,Y+12
 2756 0340 9D85      		ldd r25,Y+13
 2757               	.LSM287:
 2758 0342 4114      		cp r4,__zero_reg__
 2759 0344 5104      		cpc r5,__zero_reg__
 2760 0346 01F0      		breq .L167
 2761               	.LSM288:
 2762 0348 D201      		movw r26,r4
 2763 034a 1D96      		adiw r26,12+1
 2764 034c 9C93      		st X,r25
 2765 034e 8E93      		st -X,r24
 2766 0350 1C97      		sbiw r26,12
 2767 0352 00C0      		rjmp .L168
 2768               	.L167:
 2769               	.LSM289:
 2770 0354 9093 0000 		sts (tcp_active_pcbs)+1,r25
 2771 0358 8093 0000 		sts tcp_active_pcbs,r24
 2772               	.L168:
 2773               	.LSM290:
 2774 035c C159      		subi r28,lo8(-(111))
 2775 035e DF4F      		sbci r29,hi8(-(111))
 2776 0360 E881      		ld r30,Y
 2777 0362 F981      		ldd r31,Y+1
 2778 0364 CF56      		subi r28,lo8(-(-111))
 2779 0366 D040      		sbci r29,hi8(-(-111))
 2780 0368 3097      		sbiw r30,0
 2781 036a 01F0      		breq .L169
 2782 036c 8889      		ldd r24,Y+16
 2783 036e 9989      		ldd r25,Y+17
 2784 0370 6CEF      		ldi r22,lo8(-4)
 2785 0372 0995      		icall
 2786               	.L169:
 2787               	.LSM291:
 2788 0374 1C85      		ldd r17,Y+12
 2789 0376 0D85      		ldd r16,Y+13
 2790               	.LVL222:
 2791               	.LSM292:
 2792 0378 82E0      		ldi r24,lo8(2)
 2793 037a BE01      		movw r22,r28
 2794 037c 0E94 0000 		call memp_free
 2795 0380 212F      		mov r18,r17
 2796               	.LVL223:
 2797 0382 302F      		mov r19,r16
 2798               	.LVL224:
 2799 0384 C901      		movw r24,r18
 2800               	.LVL225:
 2801 0386 EC01      		movw r28,r24
 2802               	.LVL226:
 2803 0388 00C0      		rjmp .L180
 2804               	.LVL227:
 2805               	.L166:
 2806               	.LSM293:
 2807 038a 8BA1      		ldd r24,Y+35
 2808 038c 8F5F      		subi r24,lo8(-(1))
 2809 038e 8BA3      		std Y+35,r24
 2810               	.LSM294:
 2811 0390 9CA1      		ldd r25,Y+36
 2812               	.LVL228:
 2813 0392 8917      		cp r24,r25
 2814 0394 00F0      		brlo .L170
 2815               	.LSM295:
 2816 0396 1BA2      		std Y+35,__zero_reg__
 2817               	.LSM296:
 2818 0398 C359      		subi r28,lo8(-(109))
 2819 039a DF4F      		sbci r29,hi8(-(109))
 2820 039c E881      		ld r30,Y
 2821 039e F981      		ldd r31,Y+1
 2822 03a0 CD56      		subi r28,lo8(-(-109))
 2823 03a2 D040      		sbci r29,hi8(-(-109))
 2824 03a4 3097      		sbiw r30,0
 2825 03a6 01F0      		breq .L171
 2826 03a8 8889      		ldd r24,Y+16
 2827 03aa 9989      		ldd r25,Y+17
 2828 03ac BE01      		movw r22,r28
 2829 03ae 0995      		icall
 2830               	.LVL229:
 2831 03b0 682E      		mov r6,r24
 2832               	.LVL230:
 2833               	.L171:
 2834               	.LSM297:
 2835 03b2 6620      		tst r6
 2836 03b4 01F4      		brne .L170
 2837               	.LSM298:
 2838 03b6 CE01      		movw r24,r28
 2839 03b8 0E94 0000 		call tcp_output
 2840               	.LVL231:
 2841               	.L170:
 2842               	.LSM299:
 2843 03bc 2E01      		movw r4,r28
 2844 03be 8C85      		ldd r24,Y+12
 2845               	.LVL232:
 2846 03c0 9D85      		ldd r25,Y+13
 2847               	.LVL233:
 2848 03c2 9C01      		movw r18,r24
 2849               	.LVL234:
 2850 03c4 E901      		movw r28,r18
 2851               	.LVL235:
 2852               	.L180:
 2853               	.LSM300:
 2854 03c6 2097      		sbiw r28,0
 2855 03c8 01F0      		breq .+2
 2856 03ca 00C0      		rjmp .L172
 2857               	.LSM301:
 2858 03cc C091 0000 		lds r28,tcp_tw_pcbs
 2859 03d0 D091 0000 		lds r29,(tcp_tw_pcbs)+1
 2860               	.LVL236:
 2861 03d4 EE24      		clr r14
 2862 03d6 FF24      		clr r15
 2863               	.LVL237:
 2864 03d8 00C0      		rjmp .L181
 2865               	.LVL238:
 2866               	.L176:
 2867               	.LSM302:
 2868 03da 8091 0000 		lds r24,tcp_ticks
 2869 03de 9091 0000 		lds r25,(tcp_ticks)+1
 2870 03e2 A091 0000 		lds r26,(tcp_ticks)+2
 2871 03e6 B091 0000 		lds r27,(tcp_ticks)+3
 2872 03ea 2F8D      		ldd r18,Y+31
 2873 03ec 38A1      		ldd r19,Y+32
 2874 03ee 49A1      		ldd r20,Y+33
 2875 03f0 5AA1      		ldd r21,Y+34
 2876 03f2 821B      		sub r24,r18
 2877 03f4 930B      		sbc r25,r19
 2878 03f6 A40B      		sbc r26,r20
 2879 03f8 B50B      		sbc r27,r21
 2880 03fa 8D36      		cpi r24,lo8(109)
 2881 03fc 9105      		cpc r25,__zero_reg__
 2882 03fe A105      		cpc r26,__zero_reg__
 2883 0400 B105      		cpc r27,__zero_reg__
 2884 0402 00F4      		brsh .L174
 2885               	.LSM303:
 2886 0404 7E01      		movw r14,r28
 2887 0406 8C85      		ldd r24,Y+12
 2888               	.LVL239:
 2889 0408 9D85      		ldd r25,Y+13
 2890               	.LVL240:
 2891 040a 9C01      		movw r18,r24
 2892               	.LVL241:
 2893 040c E901      		movw r28,r18
 2894 040e 00C0      		rjmp .L181
 2895               	.LVL242:
 2896               	.L177:
 2897               	.LSM304:
 2898 0410 F701      		movw r30,r14
 2899 0412 9587      		std Z+13,r25
 2900 0414 8487      		std Z+12,r24
 2901 0416 00C0      		rjmp .L175
 2902               	.L185:
 2903               	.LSM305:
 2904 0418 9093 0000 		sts (tcp_tw_pcbs)+1,r25
 2905 041c 8093 0000 		sts tcp_tw_pcbs,r24
 2906               	.L175:
 2907               	.LSM306:
 2908 0420 1C85      		ldd r17,Y+12
 2909 0422 0D85      		ldd r16,Y+13
 2910               	.LSM307:
 2911 0424 82E0      		ldi r24,lo8(2)
 2912 0426 BE01      		movw r22,r28
 2913 0428 0E94 0000 		call memp_free
 2914 042c 212F      		mov r18,r17
 2915               	.LVL243:
 2916 042e 302F      		mov r19,r16
 2917               	.LVL244:
 2918 0430 C901      		movw r24,r18
 2919               	.LVL245:
 2920 0432 EC01      		movw r28,r24
 2921               	.LVL246:
 2922               	.L181:
 2923               	.LSM308:
 2924 0434 2097      		sbiw r28,0
 2925 0436 01F4      		brne .L176
 2926 0438 00C0      		rjmp .L184
 2927               	.LVL247:
 2928               	.L174:
 2929               	.LSM309:
 2930 043a CE01      		movw r24,r28
 2931 043c 0E94 0000 		call tcp_pcb_purge
 2932               	.LVL248:
 2933 0440 8C85      		ldd r24,Y+12
 2934 0442 9D85      		ldd r25,Y+13
 2935               	.LSM310:
 2936 0444 E114      		cp r14,__zero_reg__
 2937 0446 F104      		cpc r15,__zero_reg__
 2938 0448 01F4      		brne .L177
 2939 044a 00C0      		rjmp .L185
 2940               	.LVL249:
 2941               	.L184:
 2942               	/* epilogue start */
 2943               	.LSM311:
 2944 044c DF91      		pop r29
 2945 044e CF91      		pop r28
 2946               	.LVL250:
 2947 0450 1F91      		pop r17
 2948               	.LVL251:
 2949 0452 0F91      		pop r16
 2950               	.LVL252:
 2951 0454 FF90      		pop r15
 2952 0456 EF90      		pop r14
 2953               	.LVL253:
 2954 0458 DF90      		pop r13
 2955 045a CF90      		pop r12
 2956 045c BF90      		pop r11
 2957 045e AF90      		pop r10
 2958 0460 9F90      		pop r9
 2959 0462 8F90      		pop r8
 2960 0464 7F90      		pop r7
 2961               	.LVL254:
 2962 0466 6F90      		pop r6
 2963               	.LVL255:
 2964 0468 5F90      		pop r5
 2965 046a 4F90      		pop r4
 2966 046c 0895      		ret
 2967               	.LFE11:
 2969               		.section	.text.tcp_tmr,"ax",@progbits
 2970               	.global	tcp_tmr
 2972               	tcp_tmr:
 2973               	.LFB2:
 2974               	.LSM312:
 2975               	/* prologue: function */
 2976               	/* frame size = 0 */
 2977               	.LSM313:
 2978 0000 0E94 0000 		call tcp_fasttmr
 2979               	.LSM314:
 2980 0004 8091 0000 		lds r24,tcp_timer
 2981 0008 8F5F      		subi r24,lo8(-(1))
 2982 000a 8093 0000 		sts tcp_timer,r24
 2983 000e 80FF      		sbrs r24,0
 2984 0010 00C0      		rjmp .L188
 2985               	.LSM315:
 2986 0012 0E94 0000 		call tcp_slowtmr
 2987               	.L188:
 2988 0016 0895      		ret
 2989               	.LFE2:
 2991               		.section	.text.tcp_close,"ax",@progbits
 2992               	.global	tcp_close
 2994               	tcp_close:
 2995               	.LFB3:
 2996               	.LSM316:
 2997               	.LVL256:
 2998 0000 1F93      		push r17
 2999 0002 CF93      		push r28
 3000 0004 DF93      		push r29
 3001               	/* prologue: function */
 3002               	/* frame size = 0 */
 3003 0006 EC01      		movw r28,r24
 3004               	.LSM317:
 3005 0008 8E85      		ldd r24,Y+14
 3006               	.LVL257:
 3007 000a 8230      		cpi r24,lo8(2)
 3008 000c 01F4      		brne .+2
 3009 000e 00C0      		rjmp .L193
 3010 0010 8330      		cpi r24,lo8(3)
 3011 0012 00F4      		brsh .L197
 3012 0014 8823      		tst r24
 3013 0016 01F0      		breq .L191
 3014 0018 8130      		cpi r24,lo8(1)
 3015 001a 01F0      		breq .+2
 3016 001c 00C0      		rjmp .L208
 3017 001e 00C0      		rjmp .L212
 3018               	.L197:
 3019 0020 8430      		cpi r24,lo8(4)
 3020 0022 01F4      		brne .+2
 3021 0024 00C0      		rjmp .L195
 3022 0026 8430      		cpi r24,lo8(4)
 3023 0028 00F4      		brsh .+2
 3024 002a 00C0      		rjmp .L195
 3025 002c 8730      		cpi r24,lo8(7)
 3026 002e 01F4      		brne .L208
 3027 0030 00C0      		rjmp .L196
 3028               	.L191:
 3029               	.LSM318:
 3030 0032 E091 0000 		lds r30,tcp_bound_pcbs
 3031 0036 F091 0000 		lds r31,(tcp_bound_pcbs)+1
 3032 003a EC17      		cp r30,r28
 3033 003c FD07      		cpc r31,r29
 3034 003e 01F4      		brne .L199
 3035 0040 8C85      		ldd r24,Y+12
 3036 0042 9D85      		ldd r25,Y+13
 3037 0044 9093 0000 		sts (tcp_bound_pcbs)+1,r25
 3038 0048 8093 0000 		sts tcp_bound_pcbs,r24
 3039 004c 00C0      		rjmp .L200
 3040               	.L199:
 3041 004e F093 0000 		sts (tcp_tmp_pcb)+1,r31
 3042 0052 E093 0000 		sts tcp_tmp_pcb,r30
 3043 0056 00C0      		rjmp .L201
 3044               	.L203:
 3045 0058 8485      		ldd r24,Z+12
 3046 005a 9585      		ldd r25,Z+13
 3047 005c 0097      		sbiw r24,0
 3048 005e 01F0      		breq .L202
 3049 0060 8C17      		cp r24,r28
 3050 0062 9D07      		cpc r25,r29
 3051 0064 01F4      		brne .L202
 3052 0066 E093 0000 		sts tcp_tmp_pcb,r30
 3053 006a F093 0000 		sts tcp_tmp_pcb+1,r31
 3054 006e 8C85      		ldd r24,Y+12
 3055 0070 9D85      		ldd r25,Y+13
 3056 0072 9587      		std Z+13,r25
 3057 0074 8487      		std Z+12,r24
 3058 0076 00C0      		rjmp .L200
 3059               	.L202:
 3060 0078 FC01      		movw r30,r24
 3061               	.L201:
 3062 007a 3097      		sbiw r30,0
 3063 007c 01F4      		brne .L203
 3064 007e 1092 0000 		sts (tcp_tmp_pcb)+1,__zero_reg__
 3065 0082 1092 0000 		sts tcp_tmp_pcb,__zero_reg__
 3066               	.L200:
 3067 0086 1D86      		std Y+13,__zero_reg__
 3068 0088 1C86      		std Y+12,__zero_reg__
 3069 008a 00C0      		rjmp .L209
 3070               	.L212:
 3071               	.LSM319:
 3072 008c 80E0      		ldi r24,lo8(tcp_listen_pcbs)
 3073 008e 90E0      		ldi r25,hi8(tcp_listen_pcbs)
 3074 0090 BE01      		movw r22,r28
 3075 0092 0E94 0000 		call tcp_pcb_remove
 3076               	.LSM320:
 3077 0096 83E0      		ldi r24,lo8(3)
 3078               	.L207:
 3079 0098 BE01      		movw r22,r28
 3080 009a 0E94 0000 		call memp_free
 3081               	.L208:
 3082 009e 10E0      		ldi r17,lo8(0)
 3083               	.LVL258:
 3084 00a0 00C0      		rjmp .L204
 3085               	.LVL259:
 3086               	.L193:
 3087               	.LSM321:
 3088 00a2 80E0      		ldi r24,lo8(tcp_active_pcbs)
 3089 00a4 90E0      		ldi r25,hi8(tcp_active_pcbs)
 3090 00a6 BE01      		movw r22,r28
 3091 00a8 0E94 0000 		call tcp_pcb_remove
 3092               	.L209:
 3093               	.LSM322:
 3094 00ac 82E0      		ldi r24,lo8(2)
 3095 00ae 00C0      		rjmp .L207
 3096               	.L195:
 3097               	.LSM323:
 3098 00b0 CE01      		movw r24,r28
 3099 00b2 61E0      		ldi r22,lo8(1)
 3100 00b4 0E94 0000 		call tcp_send_ctrl
 3101 00b8 182F      		mov r17,r24
 3102               	.LVL260:
 3103               	.LSM324:
 3104 00ba 8823      		tst r24
 3105 00bc 01F4      		brne .L198
 3106               	.LVL261:
 3107               	.LSM325:
 3108 00be 85E0      		ldi r24,lo8(5)
 3109               	.LVL262:
 3110 00c0 00C0      		rjmp .L206
 3111               	.LVL263:
 3112               	.L196:
 3113               	.LSM326:
 3114 00c2 CE01      		movw r24,r28
 3115 00c4 61E0      		ldi r22,lo8(1)
 3116 00c6 0E94 0000 		call tcp_send_ctrl
 3117 00ca 182F      		mov r17,r24
 3118               	.LVL264:
 3119               	.LSM327:
 3120 00cc 8823      		tst r24
 3121 00ce 01F4      		brne .L198
 3122               	.LVL265:
 3123               	.LSM328:
 3124 00d0 89E0      		ldi r24,lo8(9)
 3125               	.LVL266:
 3126               	.L206:
 3127 00d2 8E87      		std Y+14,r24
 3128               	.LVL267:
 3129               	.L198:
 3130               	.LSM329:
 3131 00d4 2097      		sbiw r28,0
 3132 00d6 01F0      		breq .L204
 3133 00d8 1123      		tst r17
 3134 00da 01F4      		brne .L204
 3135               	.LSM330:
 3136 00dc CE01      		movw r24,r28
 3137 00de 0E94 0000 		call tcp_output
 3138               	.LVL268:
 3139               	.L204:
 3140               	.LSM331:
 3141 00e2 812F      		mov r24,r17
 3142               	/* epilogue start */
 3143 00e4 DF91      		pop r29
 3144 00e6 CF91      		pop r28
 3145               	.LVL269:
 3146 00e8 1F91      		pop r17
 3147               	.LVL270:
 3148 00ea 0895      		ret
 3149               	.LFE3:
 3151               		.section	.text.tcp_recv_null,"ax",@progbits
 3153               	tcp_recv_null:
 3154               	.LFB17:
 3155               	.LSM332:
 3156               	.LVL271:
 3157               	/* prologue: function */
 3158               	/* frame size = 0 */
 3159               	.LSM333:
 3160 0000 4115      		cp r20,__zero_reg__
 3161 0002 5105      		cpc r21,__zero_reg__
 3162 0004 01F0      		breq .L214
 3163               	.LSM334:
 3164 0006 CA01      		movw r24,r20
 3165               	.LVL272:
 3166 0008 0E94 0000 		call pbuf_free
 3167               	.LVL273:
 3168 000c 00C0      		rjmp .L218
 3169               	.LVL274:
 3170               	.L214:
 3171               	.LSM335:
 3172 000e 2223      		tst r18
 3173 0010 01F0      		breq .L216
 3174               	.L218:
 3175 0012 80E0      		ldi r24,lo8(0)
 3176               	.LVL275:
 3177 0014 0895      		ret
 3178               	.LVL276:
 3179               	.L216:
 3180               	.LSM336:
 3181 0016 CB01      		movw r24,r22
 3182               	.LVL277:
 3183 0018 0E94 0000 		call tcp_close
 3184               	.LVL278:
 3185               	.LSM337:
 3186 001c 0895      		ret
 3187               	.LFE17:
 3189               	.global	tcp_backoff
 3190               		.data
 3193               	tcp_backoff:
 3194 0000 01        		.byte	1
 3195 0001 02        		.byte	2
 3196 0002 03        		.byte	3
 3197 0003 04        		.byte	4
 3198 0004 05        		.byte	5
 3199 0005 06        		.byte	6
 3200 0006 07        		.byte	7
 3201 0007 07        		.byte	7
 3202 0008 07        		.byte	7
 3203 0009 07        		.byte	7
 3204 000a 07        		.byte	7
 3205 000b 07        		.byte	7
 3206 000c 07        		.byte	7
 3207               	.global	tcp_persist_backoff
 3210               	tcp_persist_backoff:
 3211 000d 03        		.byte	3
 3212 000e 06        		.byte	6
 3213 000f 0C        		.byte	12
 3214 0010 18        		.byte	24
 3215 0011 30        		.byte	48
 3216 0012 60        		.byte	96
 3217 0013 78        		.byte	120
 3220               	iss.2489:
 3221 0014 6E        		.byte	110
 3222 0015 19        		.byte	25
 3223 0016 00        		.byte	0
 3224 0017 00        		.byte	0
 3227               	port.2195:
 3228 0018 0010      		.word	4096
 3229               		.lcomm tcp_timer,1
 3230               		.comm tcp_ticks,4,1
 3231               		.comm tcp_listen_pcbs,2,1
 3232               		.comm tcp_active_pcbs,2,1
 3233               		.comm tcp_tw_pcbs,2,1
 3234               		.comm tcp_tmp_pcb,2,1
 3235               		.comm tcp_bound_pcbs,2,1
 3476               	.Letext0:
DEFINED SYMBOLS
                            *ABS*:00000000 tcp.c
C:\DOCUME~1\ADMINI~1\LOCALS~1\Temp/cchD4KeF.s:2      *ABS*:0000003f __SREG__
C:\DOCUME~1\ADMINI~1\LOCALS~1\Temp/cchD4KeF.s:3      *ABS*:0000003e __SP_H__
C:\DOCUME~1\ADMINI~1\LOCALS~1\Temp/cchD4KeF.s:4      *ABS*:0000003d __SP_L__
C:\DOCUME~1\ADMINI~1\LOCALS~1\Temp/cchD4KeF.s:5      *ABS*:00000034 __CCP__
C:\DOCUME~1\ADMINI~1\LOCALS~1\Temp/cchD4KeF.s:6      *ABS*:00000000 __tmp_reg__
C:\DOCUME~1\ADMINI~1\LOCALS~1\Temp/cchD4KeF.s:7      *ABS*:00000001 __zero_reg__
C:\DOCUME~1\ADMINI~1\LOCALS~1\Temp/cchD4KeF.s:18     .text.tcp_accept_null:00000000 tcp_accept_null
C:\DOCUME~1\ADMINI~1\LOCALS~1\Temp/cchD4KeF.s:33     .text.tcp_new_port:00000000 tcp_new_port
                            *COM*:00000002 tcp_active_pcbs
                            *COM*:00000002 tcp_tw_pcbs
                            *COM*:00000002 tcp_listen_pcbs
C:\DOCUME~1\ADMINI~1\LOCALS~1\Temp/cchD4KeF.s:3227   .data:00000018 port.2195
C:\DOCUME~1\ADMINI~1\LOCALS~1\Temp/cchD4KeF.s:139    .text.tcp_bind:00000000 tcp_bind
                            *COM*:00000002 tcp_bound_pcbs
C:\DOCUME~1\ADMINI~1\LOCALS~1\Temp/cchD4KeF.s:425    .text.tcp_setprio:00000000 tcp_setprio
C:\DOCUME~1\ADMINI~1\LOCALS~1\Temp/cchD4KeF.s:442    .text.tcp_arg:00000000 tcp_arg
C:\DOCUME~1\ADMINI~1\LOCALS~1\Temp/cchD4KeF.s:460    .text.tcp_recv:00000000 tcp_recv
C:\DOCUME~1\ADMINI~1\LOCALS~1\Temp/cchD4KeF.s:480    .text.tcp_sent:00000000 tcp_sent
C:\DOCUME~1\ADMINI~1\LOCALS~1\Temp/cchD4KeF.s:500    .text.tcp_err:00000000 tcp_err
C:\DOCUME~1\ADMINI~1\LOCALS~1\Temp/cchD4KeF.s:520    .text.tcp_accept:00000000 tcp_accept
C:\DOCUME~1\ADMINI~1\LOCALS~1\Temp/cchD4KeF.s:538    .text.tcp_poll:00000000 tcp_poll
C:\DOCUME~1\ADMINI~1\LOCALS~1\Temp/cchD4KeF.s:563    .text.tcp_next_iss:00000000 tcp_next_iss
                            *COM*:00000004 tcp_ticks
C:\DOCUME~1\ADMINI~1\LOCALS~1\Temp/cchD4KeF.s:3220   .data:00000014 iss.2489
C:\DOCUME~1\ADMINI~1\LOCALS~1\Temp/cchD4KeF.s:595    .text.tcp_eff_send_mss:00000000 tcp_eff_send_mss
C:\DOCUME~1\ADMINI~1\LOCALS~1\Temp/cchD4KeF.s:640    .text.tcp_recved:00000000 tcp_recved
C:\DOCUME~1\ADMINI~1\LOCALS~1\Temp/cchD4KeF.s:736    .text.tcp_fasttmr:00000000 tcp_fasttmr
C:\DOCUME~1\ADMINI~1\LOCALS~1\Temp/cchD4KeF.s:824    .text.tcp_seg_copy:00000000 tcp_seg_copy
C:\DOCUME~1\ADMINI~1\LOCALS~1\Temp/cchD4KeF.s:883    .text.tcp_seg_free:00000000 tcp_seg_free
C:\DOCUME~1\ADMINI~1\LOCALS~1\Temp/cchD4KeF.s:937    .text.tcp_segs_free:00000000 tcp_segs_free
C:\DOCUME~1\ADMINI~1\LOCALS~1\Temp/cchD4KeF.s:988    .text.tcp_pcb_purge:00000000 tcp_pcb_purge
C:\DOCUME~1\ADMINI~1\LOCALS~1\Temp/cchD4KeF.s:1084   .text.tcp_pcb_remove:00000000 tcp_pcb_remove
                            *COM*:00000002 tcp_tmp_pcb
C:\DOCUME~1\ADMINI~1\LOCALS~1\Temp/cchD4KeF.s:1173   .text.tcp_listen_with_backlog:00000000 tcp_listen_with_backlog
C:\DOCUME~1\ADMINI~1\LOCALS~1\Temp/cchD4KeF.s:1338   .text.tcp_connect:00000000 tcp_connect
C:\DOCUME~1\ADMINI~1\LOCALS~1\Temp/cchD4KeF.s:1666   .text.tcp_abort:00000000 tcp_abort
C:\DOCUME~1\ADMINI~1\LOCALS~1\Temp/cchD4KeF.s:1913   .text.tcp_alloc:00000000 tcp_alloc
C:\DOCUME~1\ADMINI~1\LOCALS~1\Temp/cchD4KeF.s:3153   .text.tcp_recv_null:00000000 tcp_recv_null
C:\DOCUME~1\ADMINI~1\LOCALS~1\Temp/cchD4KeF.s:2276   .text.tcp_new:00000000 tcp_new
C:\DOCUME~1\ADMINI~1\LOCALS~1\Temp/cchD4KeF.s:2292   .text.tcp_slowtmr:00000000 tcp_slowtmr
C:\DOCUME~1\ADMINI~1\LOCALS~1\Temp/cchD4KeF.s:3210   .data:0000000d tcp_persist_backoff
C:\DOCUME~1\ADMINI~1\LOCALS~1\Temp/cchD4KeF.s:3193   .data:00000000 tcp_backoff
C:\DOCUME~1\ADMINI~1\LOCALS~1\Temp/cchD4KeF.s:2972   .text.tcp_tmr:00000000 tcp_tmr
                             .bss:00000000 tcp_timer
C:\DOCUME~1\ADMINI~1\LOCALS~1\Temp/cchD4KeF.s:2994   .text.tcp_close:00000000 tcp_close

UNDEFINED SYMBOLS
ip_route
tcp_output
pbuf_free
memp_malloc
pbuf_ref
memp_free
htonl
tcp_enqueue
tcp_rst
tcp_zero_window_probe
tcp_rexmit_rto
__udivmodsi4
__mulsi3
tcp_keepalive
tcp_send_ctrl
__do_copy_data
__do_clear_bss
