   1               		.file	"tcp_in.c"
   2               	__SREG__ = 0x3f
   3               	__SP_H__ = 0x3e
   4               	__SP_L__ = 0x3d
   5               	__CCP__  = 0x34
   6               	__tmp_reg__ = 0
   7               	__zero_reg__ = 1
  15               	.Ltext0:
  16               		.section	.text.tcp_parseopt,"ax",@progbits
  18               	tcp_parseopt:
  19               	.LFB7:
  20               	.LSM0:
  21               	.LVL0:
  22 0000 AF92      		push r10
  23 0002 BF92      		push r11
  24 0004 CF92      		push r12
  25 0006 DF92      		push r13
  26 0008 FF92      		push r15
  27 000a 0F93      		push r16
  28 000c 1F93      		push r17
  29 000e CF93      		push r28
  30 0010 DF93      		push r29
  31               	/* prologue: function */
  32               	/* frame size = 0 */
  33 0012 5C01      		movw r10,r24
  34               	.LSM1:
  35 0014 E091 0000 		lds r30,tcphdr
  36 0018 F091 0000 		lds r31,(tcphdr)+1
  37 001c 34E1      		ldi r19,lo8(20)
  38 001e C32E      		mov r12,r19
  39 0020 D12C      		mov r13,__zero_reg__
  40               	.LVL1:
  41 0022 CE0E      		add r12,r30
  42 0024 DF1E      		adc r13,r31
  43               	.LSM2:
  44 0026 8485      		ldd r24,Z+12
  45 0028 9585      		ldd r25,Z+13
  46               	.LVL2:
  47 002a 0E94 0000 		call ntohs
  48 002e 292F      		mov r18,r25
  49 0030 2295      		swap r18
  50 0032 2F70      		andi r18,lo8(15)
  51 0034 30E0      		ldi r19,lo8(0)
  52 0036 2630      		cpi r18,6
  53 0038 3105      		cpc r19,__zero_reg__
  54 003a 00F0      		brlo .L8
  55 003c FF24      		clr r15
  56               	.LVL3:
  57 003e 00C0      		rjmp .L9
  58               	.L7:
  59               	.LSM3:
  60 0040 F601      		movw r30,r12
  61 0042 EC0F      		add r30,r28
  62 0044 FD1F      		adc r31,r29
  63 0046 8081      		ld r24,Z
  64               	.LVL4:
  65               	.LSM4:
  66 0048 8823      		tst r24
  67 004a 01F0      		breq .L8
  68               	.LSM5:
  69 004c 8130      		cpi r24,lo8(1)
  70 004e 01F4      		brne .L4
  71               	.LSM6:
  72 0050 F394      		inc r15
  73 0052 00C0      		rjmp .L9
  74               	.L4:
  75               	.LSM7:
  76 0054 8230      		cpi r24,lo8(2)
  77 0056 01F4      		brne .L5
  78 0058 8181      		ldd r24,Z+1
  79               	.LVL5:
  80 005a 8430      		cpi r24,lo8(4)
  81 005c 01F4      		brne .L5
  82               	.LSM8:
  83 005e 9281      		ldd r25,Z+2
  84 0060 80E0      		ldi r24,lo8(0)
  85 0062 2381      		ldd r18,Z+3
  86 0064 30E0      		ldi r19,lo8(0)
  87 0066 282B      		or r18,r24
  88 0068 392B      		or r19,r25
  89 006a 2138      		cpi r18,129
  90 006c 3105      		cpc r19,__zero_reg__
  91 006e 00F0      		brlo .L6
  92 0070 20E8      		ldi r18,lo8(128)
  93 0072 30E0      		ldi r19,hi8(128)
  94               	.L6:
  95 0074 F501      		movw r30,r10
  96 0076 30A7      		std Z+40,r19
  97 0078 27A3      		std Z+39,r18
  98 007a 00C0      		rjmp .L8
  99               	.LVL6:
 100               	.L5:
 101               	.LSM9:
 102 007c CC0D      		add r28,r12
 103 007e DD1D      		adc r29,r13
 104 0080 8981      		ldd r24,Y+1
 105               	.LVL7:
 106 0082 8823      		tst r24
 107 0084 01F0      		breq .L8
 108               	.LSM10:
 109 0086 F80E      		add r15,r24
 110               	.LVL8:
 111               	.L9:
 112               	.LSM11:
 113 0088 CF2D      		mov r28,r15
 114 008a D0E0      		ldi r29,lo8(0)
 115 008c E091 0000 		lds r30,tcphdr
 116 0090 F091 0000 		lds r31,(tcphdr)+1
 117 0094 8485      		ldd r24,Z+12
 118 0096 9585      		ldd r25,Z+13
 119               	.LVL9:
 120 0098 0E94 0000 		call ntohs
 121 009c 092F      		mov r16,r25
 122 009e 0295      		swap r16
 123 00a0 0F70      		andi r16,lo8(15)
 124 00a2 10E0      		ldi r17,lo8(0)
 125 00a4 C801      		movw r24,r16
 126 00a6 0597      		sbiw r24,5
 127 00a8 880F      		lsl r24
 128 00aa 991F      		rol r25
 129 00ac 880F      		lsl r24
 130 00ae 991F      		rol r25
 131 00b0 C817      		cp r28,r24
 132 00b2 D907      		cpc r29,r25
 133 00b4 00F0      		brlo .L7
 134               	.LVL10:
 135               	.L8:
 136               	/* epilogue start */
 137               	.LSM12:
 138 00b6 DF91      		pop r29
 139 00b8 CF91      		pop r28
 140 00ba 1F91      		pop r17
 141 00bc 0F91      		pop r16
 142 00be FF90      		pop r15
 143               	.LVL11:
 144 00c0 DF90      		pop r13
 145 00c2 CF90      		pop r12
 146               	.LVL12:
 147 00c4 BF90      		pop r11
 148 00c6 AF90      		pop r10
 149               	.LVL13:
 150 00c8 0895      		ret
 151               	.LFE7:
 153               		.section	.text.tcp_receive,"ax",@progbits
 155               	tcp_receive:
 156               	.LFB6:
 157               	.LSM13:
 158               	.LVL14:
 159 0000 2F92      		push r2
 160 0002 3F92      		push r3
 161 0004 4F92      		push r4
 162 0006 5F92      		push r5
 163 0008 6F92      		push r6
 164 000a 7F92      		push r7
 165 000c 8F92      		push r8
 166 000e 9F92      		push r9
 167 0010 AF92      		push r10
 168 0012 BF92      		push r11
 169 0014 CF92      		push r12
 170 0016 DF92      		push r13
 171 0018 EF92      		push r14
 172 001a FF92      		push r15
 173 001c 0F93      		push r16
 174 001e 1F93      		push r17
 175 0020 DF93      		push r29
 176 0022 CF93      		push r28
 177 0024 00D0      		rcall .
 178 0026 00D0      		rcall .
 179 0028 CDB7      		in r28,__SP_L__
 180 002a DEB7      		in r29,__SP_H__
 181               	/* prologue: function */
 182               	/* frame size = 4 */
 183 002c 9C83      		std Y+4,r25
 184 002e 8B83      		std Y+3,r24
 185               	.LSM14:
 186 0030 8091 0000 		lds r24,flags
 187               	.LVL15:
 188 0034 84FF      		sbrs r24,4
 189 0036 00C0      		rjmp .L11
 190               	.LSM15:
 191 0038 2B81      		ldd r18,Y+3
 192 003a 3C81      		ldd r19,Y+4
 193 003c 275B      		subi r18,lo8(-(73))
 194 003e 3F4F      		sbci r19,hi8(-(73))
 195 0040 D901      		movw r26,r18
 196 0042 6D91      		ld r22,X+
 197 0044 7D91      		ld r23,X+
 198 0046 ED90      		ld r14,X+
 199 0048 FD90      		ld r15,X+
 200 004a 0D91      		ld r16,X+
 201 004c 1C91      		ld r17,X
 202 004e 1397      		sbiw r26,3
 203 0050 AB54      		subi r26,lo8(-(-75))
 204 0052 B040      		sbci r27,hi8(-(-75))
 205 0054 BC83      		std Y+4,r27
 206 0056 AB83      		std Y+3,r26
 207               	.LVL16:
 208               	.LSM16:
 209 0058 2091 0000 		lds r18,seqno
 210 005c 3091 0000 		lds r19,(seqno)+1
 211 0060 4091 0000 		lds r20,(seqno)+2
 212 0064 5091 0000 		lds r21,(seqno)+3
 213 0068 D801      		movw r26,r16
 214 006a C701      		movw r24,r14
 215 006c 821B      		sub r24,r18
 216 006e 930B      		sbc r25,r19
 217 0070 A40B      		sbc r26,r20
 218 0072 B50B      		sbc r27,r21
 219 0074 B7FD      		sbrc r27,7
 220 0076 00C0      		rjmp .L12
 221 0078 E216      		cp r14,r18
 222 007a F306      		cpc r15,r19
 223 007c 0407      		cpc r16,r20
 224 007e 1507      		cpc r17,r21
 225 0080 01F4      		brne .L13
 226 0082 EB81      		ldd r30,Y+3
 227 0084 FC81      		ldd r31,Y+4
 228 0086 E15B      		subi r30,lo8(-(79))
 229 0088 FF4F      		sbci r31,hi8(-(79))
 230 008a 8081      		ld r24,Z
 231 008c 9181      		ldd r25,Z+1
 232 008e A281      		ldd r26,Z+2
 233 0090 B381      		ldd r27,Z+3
 234 0092 EF54      		subi r30,lo8(-(-79))
 235 0094 F040      		sbci r31,hi8(-(-79))
 236 0096 FC83      		std Y+4,r31
 237 0098 EB83      		std Y+3,r30
 238               	.LVL17:
 239 009a 2091 0000 		lds r18,ackno
 240 009e 3091 0000 		lds r19,(ackno)+1
 241 00a2 4091 0000 		lds r20,(ackno)+2
 242 00a6 5091 0000 		lds r21,(ackno)+3
 243 00aa 821B      		sub r24,r18
 244 00ac 930B      		sbc r25,r19
 245 00ae A40B      		sbc r26,r20
 246 00b0 B50B      		sbc r27,r21
 247 00b2 B7FD      		sbrc r27,7
 248 00b4 00C0      		rjmp .L12
 249               	.L13:
 250 00b6 2B81      		ldd r18,Y+3
 251 00b8 3C81      		ldd r19,Y+4
 252 00ba 215B      		subi r18,lo8(-(79))
 253 00bc 3F4F      		sbci r19,hi8(-(79))
 254 00be D901      		movw r26,r18
 255 00c0 2D91      		ld r18,X+
 256 00c2 3D91      		ld r19,X+
 257 00c4 4D91      		ld r20,X+
 258 00c6 5C91      		ld r21,X
 259 00c8 1397      		sbiw r26,3
 260 00ca AF54      		subi r26,lo8(-(-79))
 261 00cc B040      		sbci r27,hi8(-(-79))
 262 00ce BC83      		std Y+4,r27
 263 00d0 AB83      		std Y+3,r26
 264               	.LVL18:
 265 00d2 8091 0000 		lds r24,ackno
 266 00d6 9091 0000 		lds r25,(ackno)+1
 267 00da A091 0000 		lds r26,(ackno)+2
 268 00de B091 0000 		lds r27,(ackno)+3
 269 00e2 2817      		cp r18,r24
 270 00e4 3907      		cpc r19,r25
 271 00e6 4A07      		cpc r20,r26
 272 00e8 5B07      		cpc r21,r27
 273 00ea 01F0      		breq .+2
 274 00ec 00C0      		rjmp .L14
 275 00ee E091 0000 		lds r30,tcphdr
 276 00f2 F091 0000 		lds r31,(tcphdr)+1
 277 00f6 8685      		ldd r24,Z+14
 278 00f8 9785      		ldd r25,Z+15
 279 00fa 6817      		cp r22,r24
 280 00fc 7907      		cpc r23,r25
 281 00fe 00F4      		brsh .L14
 282               	.L12:
 283               	.LSM17:
 284 0100 EB81      		ldd r30,Y+3
 285 0102 FC81      		ldd r31,Y+4
 286 0104 E75B      		subi r30,lo8(-(73))
 287 0106 FF4F      		sbci r31,hi8(-(73))
 288 0108 FC83      		std Y+4,r31
 289 010a EB83      		std Y+3,r30
 290               	.LVL19:
 291 010c E091 0000 		lds r30,tcphdr
 292 0110 F091 0000 		lds r31,(tcphdr)+1
 293 0114 2685      		ldd r18,Z+14
 294 0116 3785      		ldd r19,Z+15
 295 0118 AB81      		ldd r26,Y+3
 296 011a BC81      		ldd r27,Y+4
 297 011c 2D93      		st X+,r18
 298 011e 3D93      		st X+,r19
 299 0120 BC83      		std Y+4,r27
 300 0122 AB83      		std Y+3,r26
 301               	.LVL20:
 302               	.LSM18:
 303 0124 8091 0000 		lds r24,seqno
 304 0128 9091 0000 		lds r25,(seqno)+1
 305 012c A091 0000 		lds r26,(seqno)+2
 306 0130 B091 0000 		lds r27,(seqno)+3
 307 0134 EB81      		ldd r30,Y+3
 308 0136 FC81      		ldd r31,Y+4
 309 0138 8193      		st Z+,r24
 310 013a 9193      		st Z+,r25
 311 013c A193      		st Z+,r26
 312 013e B193      		st Z+,r27
 313               	.LSM19:
 314 0140 8091 0000 		lds r24,ackno
 315 0144 9091 0000 		lds r25,(ackno)+1
 316 0148 A091 0000 		lds r26,(ackno)+2
 317 014c B091 0000 		lds r27,(ackno)+3
 318 0150 8083      		st Z,r24
 319 0152 9183      		std Z+1,r25
 320 0154 A283      		std Z+2,r26
 321 0156 B383      		std Z+3,r27
 322 0158 EF54      		subi r30,lo8(-(-79))
 323 015a F040      		sbci r31,hi8(-(-79))
 324 015c FC83      		std Y+4,r31
 325 015e EB83      		std Y+3,r30
 326               	.LVL21:
 327               	.LSM20:
 328 0160 232B      		or r18,r19
 329 0162 01F0      		breq .L14
 330 0164 E758      		subi r30,lo8(-(121))
 331 0166 FF4F      		sbci r31,hi8(-(121))
 332 0168 8081      		ld r24,Z
 333 016a 8111      		cpse r24,__zero_reg__
 334               	.LSM21:
 335 016c 1082      		st Z,__zero_reg__
 336               	.L14:
 337               	.LSM22:
 338 016e EB81      		ldd r30,Y+3
 339 0170 FC81      		ldd r31,Y+4
 340 0172 80AD      		ldd r24,Z+56
 341 0174 91AD      		ldd r25,Z+57
 342 0176 A2AD      		ldd r26,Z+58
 343 0178 B3AD      		ldd r27,Z+59
 344 017a 2091 0000 		lds r18,ackno
 345 017e 3091 0000 		lds r19,(ackno)+1
 346 0182 4091 0000 		lds r20,(ackno)+2
 347 0186 5091 0000 		lds r21,(ackno)+3
 348 018a 8217      		cp r24,r18
 349 018c 9307      		cpc r25,r19
 350 018e A407      		cpc r26,r20
 351 0190 B507      		cpc r27,r21
 352 0192 01F0      		breq .+2
 353 0194 00C0      		rjmp .L15
 354               	.LSM23:
 355 0196 E95A      		subi r30,lo8(-(87))
 356 0198 FF4F      		sbci r31,hi8(-(87))
 357 019a 1182      		std Z+1,__zero_reg__
 358 019c 1082      		st Z,__zero_reg__
 359 019e E755      		subi r30,lo8(-(-87))
 360 01a0 F040      		sbci r31,hi8(-(-87))
 361               	.LSM24:
 362 01a2 A9E4      		ldi r26,lo8(73)
 363 01a4 CA2E      		mov r12,r26
 364 01a6 D12C      		mov r13,__zero_reg__
 365 01a8 CE0E      		add r12,r30
 366 01aa DF1E      		adc r13,r31
 367 01ac D601      		movw r26,r12
 368 01ae 8D91      		ld r24,X+
 369 01b0 9C91      		ld r25,X
 370 01b2 A0E0      		ldi r26,lo8(0)
 371 01b4 B0E0      		ldi r27,hi8(0)
 372 01b6 E55B      		subi r30,lo8(-(75))
 373 01b8 FF4F      		sbci r31,hi8(-(75))
 374 01ba 2081      		ld r18,Z
 375 01bc 3181      		ldd r19,Z+1
 376 01be 4281      		ldd r20,Z+2
 377 01c0 5381      		ldd r21,Z+3
 378 01c2 EB54      		subi r30,lo8(-(-75))
 379 01c4 F040      		sbci r31,hi8(-(-75))
 380 01c6 FC83      		std Y+4,r31
 381 01c8 EB83      		std Y+3,r30
 382               	.LVL22:
 383 01ca 820F      		add r24,r18
 384 01cc 931F      		adc r25,r19
 385 01ce A41F      		adc r26,r20
 386 01d0 B51F      		adc r27,r21
 387 01d2 9B01      		movw r18,r22
 388 01d4 40E0      		ldi r20,lo8(0)
 389 01d6 50E0      		ldi r21,hi8(0)
 390 01d8 2E0D      		add r18,r14
 391 01da 3F1D      		adc r19,r15
 392 01dc 401F      		adc r20,r16
 393 01de 511F      		adc r21,r17
 394 01e0 8217      		cp r24,r18
 395 01e2 9307      		cpc r25,r19
 396 01e4 A407      		cpc r26,r20
 397 01e6 B507      		cpc r27,r21
 398 01e8 01F0      		breq .+2
 399 01ea 00C0      		rjmp .L92
 400               	.LSM25:
 401 01ec 84AD      		ldd r24,Z+60
 402 01ee 8F5F      		subi r24,lo8(-(1))
 403 01f0 84AF      		std Z+60,r24
 404               	.LSM26:
 405 01f2 8330      		cpi r24,lo8(3)
 406 01f4 00F4      		brsh .+2
 407 01f6 00C0      		rjmp .L92
 408 01f8 E15A      		subi r30,lo8(-(95))
 409 01fa FF4F      		sbci r31,hi8(-(95))
 410 01fc 8081      		ld r24,Z
 411 01fe 9181      		ldd r25,Z+1
 412 0200 EF55      		subi r30,lo8(-(-95))
 413 0202 F040      		sbci r31,hi8(-(-95))
 414 0204 FC83      		std Y+4,r31
 415 0206 EB83      		std Y+3,r30
 416               	.LVL23:
 417 0208 892B      		or r24,r25
 418 020a 01F4      		brne .+2
 419 020c 00C0      		rjmp .L92
 420               	.LSM27:
 421 020e 8689      		ldd r24,Z+22
 422 0210 82FD      		sbrc r24,2
 423 0212 00C0      		rjmp .L17
 424               	.LSM28:
 425 0214 CF01      		movw r24,r30
 426 0216 0E94 0000 		call tcp_rexmit
 427               	.LSM29:
 428 021a EB81      		ldd r30,Y+3
 429 021c FC81      		ldd r31,Y+4
 430 021e 25AD      		ldd r18,Z+61
 431 0220 36AD      		ldd r19,Z+62
 432 0222 D601      		movw r26,r12
 433 0224 8D91      		ld r24,X+
 434 0226 9C91      		ld r25,X
 435 0228 FF96      		adiw r30,63
 436 022a 8217      		cp r24,r18
 437 022c 9307      		cpc r25,r19
 438 022e 00F4      		brsh .L18
 439               	.LSM30:
 440 0230 9695      		lsr r25
 441 0232 8795      		ror r24
 442 0234 9183      		std Z+1,r25
 443 0236 8083      		st Z,r24
 444 0238 00C0      		rjmp .L19
 445               	.L18:
 446               	.LSM31:
 447 023a 3695      		lsr r19
 448 023c 2795      		ror r18
 449 023e 3183      		std Z+1,r19
 450 0240 2083      		st Z,r18
 451               	.L19:
 452               	.LSM32:
 453 0242 EB81      		ldd r30,Y+3
 454 0244 FC81      		ldd r31,Y+4
 455 0246 27A1      		ldd r18,Z+39
 456 0248 30A5      		ldd r19,Z+40
 457 024a 220F      		lsl r18
 458 024c 331F      		rol r19
 459 024e FF96      		adiw r30,63
 460 0250 8081      		ld r24,Z
 461 0252 9181      		ldd r25,Z+1
 462 0254 8217      		cp r24,r18
 463 0256 9307      		cpc r25,r19
 464 0258 00F4      		brsh .L20
 465               	.LSM33:
 466 025a 3183      		std Z+1,r19
 467 025c 2083      		st Z,r18
 468               	.L20:
 469               	.LSM34:
 470 025e AB81      		ldd r26,Y+3
 471 0260 BC81      		ldd r27,Y+4
 472 0262 9796      		adiw r26,39
 473 0264 2D91      		ld r18,X+
 474 0266 3C91      		ld r19,X
 475 0268 9897      		sbiw r26,39+1
 476 026a C901      		movw r24,r18
 477 026c 880F      		lsl r24
 478 026e 991F      		rol r25
 479 0270 820F      		add r24,r18
 480 0272 931F      		adc r25,r19
 481 0274 DF96      		adiw r26,63
 482 0276 2D91      		ld r18,X+
 483 0278 3C91      		ld r19,X
 484 027a 1197      		sbiw r26,1
 485 027c DF97      		sbiw r26,63
 486 027e BC83      		std Y+4,r27
 487 0280 AB83      		std Y+3,r26
 488               	.LVL24:
 489 0282 820F      		add r24,r18
 490 0284 931F      		adc r25,r19
 491 0286 DE96      		adiw r26,61+1
 492 0288 9C93      		st X,r25
 493 028a 8E93      		st -X,r24
 494 028c DD97      		sbiw r26,61
 495               	.LSM35:
 496 028e 5696      		adiw r26,22
 497 0290 8C91      		ld r24,X
 498 0292 5697      		sbiw r26,22
 499 0294 8460      		ori r24,lo8(4)
 500 0296 5696      		adiw r26,22
 501 0298 8C93      		st X,r24
 502 029a 00C0      		rjmp .L92
 503               	.L17:
 504               	.LSM36:
 505 029c EB81      		ldd r30,Y+3
 506 029e FC81      		ldd r31,Y+4
 507 02a0 85AD      		ldd r24,Z+61
 508 02a2 96AD      		ldd r25,Z+62
 509 02a4 27A1      		ldd r18,Z+39
 510 02a6 30A5      		ldd r19,Z+40
 511 02a8 280F      		add r18,r24
 512 02aa 391F      		adc r19,r25
 513 02ac 8217      		cp r24,r18
 514 02ae 9307      		cpc r25,r19
 515 02b0 00F0      		brlo .+2
 516 02b2 00C0      		rjmp .L92
 517               	.LSM37:
 518 02b4 36AF      		std Z+62,r19
 519 02b6 25AF      		std Z+61,r18
 520 02b8 00C0      		rjmp .L92
 521               	.L15:
 522               	.LSM38:
 523 02ba 8095      		com r24
 524 02bc 9095      		com r25
 525 02be A095      		com r26
 526 02c0 B095      		com r27
 527 02c2 820F      		add r24,r18
 528 02c4 931F      		adc r25,r19
 529 02c6 A41F      		adc r26,r20
 530 02c8 B51F      		adc r27,r21
 531 02ca B7FD      		sbrc r27,7
 532 02cc 00C0      		rjmp .L21
 533 02ce 6B81      		ldd r22,Y+3
 534 02d0 7C81      		ldd r23,Y+4
 535 02d2 6B5B      		subi r22,lo8(-(69))
 536 02d4 7F4F      		sbci r23,hi8(-(69))
 537 02d6 FB01      		movw r30,r22
 538 02d8 8081      		ld r24,Z
 539 02da 9181      		ldd r25,Z+1
 540 02dc A281      		ldd r26,Z+2
 541 02de B381      		ldd r27,Z+3
 542 02e0 E554      		subi r30,lo8(-(-69))
 543 02e2 F040      		sbci r31,hi8(-(-69))
 544 02e4 FC83      		std Y+4,r31
 545 02e6 EB83      		std Y+3,r30
 546               	.LVL25:
 547 02e8 281B      		sub r18,r24
 548 02ea 390B      		sbc r19,r25
 549 02ec 4A0B      		sbc r20,r26
 550 02ee 5B0B      		sbc r21,r27
 551 02f0 1216      		cp __zero_reg__,r18
 552 02f2 1306      		cpc __zero_reg__,r19
 553 02f4 1406      		cpc __zero_reg__,r20
 554 02f6 1506      		cpc __zero_reg__,r21
 555 02f8 04F4      		brge .+2
 556 02fa 00C0      		rjmp .L21
 557               	.LSM39:
 558 02fc 8689      		ldd r24,Z+22
 559 02fe 82FF      		sbrs r24,2
 560 0300 00C0      		rjmp .L22
 561               	.LSM40:
 562 0302 8B7F      		andi r24,lo8(-5)
 563 0304 868B      		std Z+22,r24
 564               	.LSM41:
 565 0306 FF96      		adiw r30,63
 566 0308 8081      		ld r24,Z
 567 030a 9181      		ldd r25,Z+1
 568 030c FF97      		sbiw r30,63
 569 030e FC83      		std Y+4,r31
 570 0310 EB83      		std Y+3,r30
 571               	.LVL26:
 572 0312 96AF      		std Z+62,r25
 573 0314 85AF      		std Z+61,r24
 574               	.L22:
 575               	.LSM42:
 576 0316 AB81      		ldd r26,Y+3
 577 0318 BC81      		ldd r27,Y+4
 578 031a D796      		adiw r26,55
 579 031c 1C92      		st X,__zero_reg__
 580 031e D797      		sbiw r26,55
 581               	.LSM43:
 582 0320 D196      		adiw r26,49
 583 0322 8D91      		ld r24,X+
 584 0324 9C91      		ld r25,X
 585 0326 D297      		sbiw r26,49+1
 586 0328 23E0      		ldi r18,3
 587 032a 9595      	1:	asr r25
 588 032c 8795      		ror r24
 589 032e 2A95      		dec r18
 590 0330 01F4      		brne 1b
 591 0332 D396      		adiw r26,51
 592 0334 2D91      		ld r18,X+
 593 0336 3C91      		ld r19,X
 594 0338 D497      		sbiw r26,51+1
 595 033a 820F      		add r24,r18
 596 033c 931F      		adc r25,r19
 597 033e D696      		adiw r26,53+1
 598 0340 9C93      		st X,r25
 599 0342 8E93      		st -X,r24
 600 0344 D597      		sbiw r26,53
 601               	.LSM44:
 602 0346 2091 0000 		lds r18,ackno
 603 034a 3091 0000 		lds r19,(ackno)+1
 604 034e D896      		adiw r26,56
 605 0350 8D91      		ld r24,X+
 606 0352 9C91      		ld r25,X
 607 0354 D997      		sbiw r26,56+1
 608 0356 281B      		sub r18,r24
 609 0358 390B      		sbc r19,r25
 610 035a A95A      		subi r26,lo8(-(87))
 611 035c BF4F      		sbci r27,hi8(-(87))
 612 035e 1196      		adiw r26,1
 613 0360 3C93      		st X,r19
 614 0362 2E93      		st -X,r18
 615 0364 A755      		subi r26,lo8(-(-87))
 616 0366 B040      		sbci r27,hi8(-(-87))
 617 0368 BC83      		std Y+4,r27
 618 036a AB83      		std Y+3,r26
 619               	.LVL27:
 620               	.LSM45:
 621 036c FD01      		movw r30,r26
 622 036e E75A      		subi r30,lo8(-(89))
 623 0370 FF4F      		sbci r31,hi8(-(89))
 624 0372 8081      		ld r24,Z
 625 0374 9181      		ldd r25,Z+1
 626 0376 280F      		add r18,r24
 627 0378 391F      		adc r19,r25
 628 037a 3183      		std Z+1,r19
 629 037c 2083      		st Z,r18
 630               	.LSM46:
 631 037e DC96      		adiw r26,60
 632 0380 1C92      		st X,__zero_reg__
 633               	.LSM47:
 634 0382 8091 0000 		lds r24,ackno
 635 0386 9091 0000 		lds r25,(ackno)+1
 636 038a A091 0000 		lds r26,(ackno)+2
 637 038e B091 0000 		lds r27,(ackno)+3
 638 0392 EB81      		ldd r30,Y+3
 639 0394 FC81      		ldd r31,Y+4
 640 0396 80AF      		std Z+56,r24
 641 0398 91AF      		std Z+57,r25
 642 039a A2AF      		std Z+58,r26
 643 039c B3AF      		std Z+59,r27
 644               	.LSM48:
 645 039e 8685      		ldd r24,Z+14
 646 03a0 8430      		cpi r24,lo8(4)
 647 03a2 00F4      		brsh .+2
 648 03a4 00C0      		rjmp .L23
 649               	.LSM49:
 650 03a6 DF01      		movw r26,r30
 651 03a8 05AC      		ldd __tmp_reg__,Z+61
 652 03aa F6AD      		ldd r31,Z+62
 653 03ac E02D      		mov r30,__tmp_reg__
 654 03ae DF96      		adiw r26,63
 655 03b0 8D91      		ld r24,X+
 656 03b2 9C91      		ld r25,X
 657 03b4 1197      		sbiw r26,1
 658 03b6 DF97      		sbiw r26,63
 659 03b8 BC83      		std Y+4,r27
 660 03ba AB83      		std Y+3,r26
 661               	.LVL28:
 662 03bc 9796      		adiw r26,39
 663 03be 2D91      		ld r18,X+
 664 03c0 3C91      		ld r19,X
 665 03c2 9897      		sbiw r26,39+1
 666 03c4 E817      		cp r30,r24
 667 03c6 F907      		cpc r31,r25
 668 03c8 00F4      		brsh .L24
 669               	.LSM50:
 670 03ca CF01      		movw r24,r30
 671 03cc 820F      		add r24,r18
 672 03ce 931F      		adc r25,r19
 673 03d0 E817      		cp r30,r24
 674 03d2 F907      		cpc r31,r25
 675 03d4 00F4      		brsh .L23
 676               	.LSM51:
 677 03d6 DE96      		adiw r26,61+1
 678 03d8 9C93      		st X,r25
 679 03da 8E93      		st -X,r24
 680 03dc DD97      		sbiw r26,61
 681 03de 00C0      		rjmp .L23
 682               	.L24:
 683               	.LBB2:
 684               	.LSM52:
 685 03e0 229F      		mul r18,r18
 686 03e2 C001      		movw r24,r0
 687 03e4 239F      		mul r18,r19
 688 03e6 900D      		add r25,r0
 689 03e8 329F      		mul r19,r18
 690 03ea 900D      		add r25,r0
 691 03ec 1124      		clr r1
 692 03ee BF01      		movw r22,r30
 693 03f0 0E94 0000 		call __udivmodhi4
 694 03f4 6E0F      		add r22,r30
 695 03f6 7F1F      		adc r23,r31
 696               	.LVL29:
 697               	.LSM53:
 698 03f8 E617      		cp r30,r22
 699 03fa F707      		cpc r31,r23
 700 03fc 00F4      		brsh .L23
 701               	.LSM54:
 702 03fe EB81      		ldd r30,Y+3
 703 0400 FC81      		ldd r31,Y+4
 704 0402 76AF      		std Z+62,r23
 705 0404 65AF      		std Z+61,r22
 706 0406 00C0      		rjmp .L23
 707               	.LVL30:
 708               	.L28:
 709               	.LBE2:
 710               	.LSM55:
 711 0408 D601      		movw r26,r12
 712 040a 0D91      		ld r16,X+
 713 040c 1C91      		ld r17,X
 714 040e 1197      		sbiw r26,1
 715               	.LSM56:
 716 0410 F801      		movw r30,r16
 717 0412 8081      		ld r24,Z
 718 0414 9181      		ldd r25,Z+1
 719 0416 8D93      		st X+,r24
 720 0418 9C93      		st X,r25
 721               	.LSM57:
 722 041a 8281      		ldd r24,Z+2
 723 041c 9381      		ldd r25,Z+3
 724 041e 0E94 0000 		call pbuf_clen
 725               	.LSM58:
 726 0422 D401      		movw r26,r8
 727 0424 ED90      		ld r14,X+
 728 0426 FC90      		ld r15,X
 729 0428 F801      		movw r30,r16
 730 042a 8281      		ldd r24,Z+2
 731 042c 9381      		ldd r25,Z+3
 732 042e 0E94 0000 		call pbuf_clen
 733 0432 E81A      		sub r14,r24
 734 0434 F108      		sbc r15,__zero_reg__
 735 0436 D401      		movw r26,r8
 736 0438 ED92      		st X+,r14
 737 043a FC92      		st X,r15
 738               	.LSM59:
 739 043c C801      		movw r24,r16
 740 043e 0E94 0000 		call tcp_seg_free
 741 0442 00C0      		rjmp .L95
 742               	.LVL31:
 743               	.L23:
 744               	.LSM60:
 745 0444 9FE5      		ldi r25,lo8(95)
 746 0446 C92E      		mov r12,r25
 747 0448 D12C      		mov r13,__zero_reg__
 748 044a EB81      		ldd r30,Y+3
 749 044c FC81      		ldd r31,Y+4
 750 044e CE0E      		add r12,r30
 751 0450 DF1E      		adc r13,r31
 752               	.LSM61:
 753 0452 8BE5      		ldi r24,lo8(91)
 754 0454 882E      		mov r8,r24
 755 0456 912C      		mov r9,__zero_reg__
 756 0458 8E0E      		add r8,r30
 757 045a 9F1E      		adc r9,r31
 758               	.LVL32:
 759               	.L95:
 760               	.LSM62:
 761 045c D601      		movw r26,r12
 762 045e ED91      		ld r30,X+
 763 0460 FC91      		ld r31,X
 764 0462 3097      		sbiw r30,0
 765 0464 01F4      		brne .+2
 766 0466 00C0      		rjmp .L25
 767 0468 0084      		ldd __tmp_reg__,Z+8
 768 046a F185      		ldd r31,Z+9
 769 046c E02D      		mov r30,__tmp_reg__
 770 046e 6481      		ldd r22,Z+4
 771 0470 7581      		ldd r23,Z+5
 772 0472 8681      		ldd r24,Z+6
 773 0474 9781      		ldd r25,Z+7
 774               	.LVL33:
 775 0476 0E94 0000 		call ntohl
 776 047a 7B01      		movw r14,r22
 777 047c 8C01      		movw r16,r24
 778 047e D601      		movw r26,r12
 779 0480 ED91      		ld r30,X+
 780 0482 FC91      		ld r31,X
 781 0484 A680      		ldd r10,Z+6
 782 0486 B780      		ldd r11,Z+7
 783 0488 0084      		ldd __tmp_reg__,Z+8
 784 048a F185      		ldd r31,Z+9
 785 048c E02D      		mov r30,__tmp_reg__
 786 048e 8485      		ldd r24,Z+12
 787 0490 9585      		ldd r25,Z+13
 788 0492 0E94 0000 		call ntohs
 789 0496 80FD      		sbrc r24,0
 790 0498 00C0      		rjmp .L26
 791 049a D601      		movw r26,r12
 792 049c ED91      		ld r30,X+
 793 049e FC91      		ld r31,X
 794 04a0 0084      		ldd __tmp_reg__,Z+8
 795 04a2 F185      		ldd r31,Z+9
 796 04a4 E02D      		mov r30,__tmp_reg__
 797 04a6 8485      		ldd r24,Z+12
 798 04a8 9585      		ldd r25,Z+13
 799 04aa 0E94 0000 		call ntohs
 800 04ae 81FD      		sbrc r24,1
 801 04b0 00C0      		rjmp .L26
 802 04b2 20E0      		ldi r18,lo8(0)
 803 04b4 30E0      		ldi r19,hi8(0)
 804 04b6 00C0      		rjmp .L27
 805               	.L26:
 806 04b8 21E0      		ldi r18,lo8(1)
 807 04ba 30E0      		ldi r19,hi8(1)
 808               	.L27:
 809 04bc 8091 0000 		lds r24,ackno
 810 04c0 9091 0000 		lds r25,(ackno)+1
 811 04c4 A091 0000 		lds r26,(ackno)+2
 812 04c8 B091 0000 		lds r27,(ackno)+3
 813 04cc E81A      		sub r14,r24
 814 04ce F90A      		sbc r15,r25
 815 04d0 0A0B      		sbc r16,r26
 816 04d2 1B0B      		sbc r17,r27
 817 04d4 2A0D      		add r18,r10
 818 04d6 3B1D      		adc r19,r11
 819 04d8 C901      		movw r24,r18
 820 04da A0E0      		ldi r26,lo8(0)
 821 04dc B0E0      		ldi r27,hi8(0)
 822 04de 8E0D      		add r24,r14
 823 04e0 9F1D      		adc r25,r15
 824 04e2 A01F      		adc r26,r16
 825 04e4 B11F      		adc r27,r17
 826 04e6 1816      		cp __zero_reg__,r24
 827 04e8 1906      		cpc __zero_reg__,r25
 828 04ea 1A06      		cpc __zero_reg__,r26
 829 04ec 1B06      		cpc __zero_reg__,r27
 830 04ee 04F0      		brlt .+2
 831 04f0 00C0      		rjmp .L28
 832               	.LVL34:
 833               	.L25:
 834               	.LSM63:
 835 04f2 EB81      		ldd r30,Y+3
 836 04f4 FC81      		ldd r31,Y+4
 837 04f6 E15A      		subi r30,lo8(-(95))
 838 04f8 FF4F      		sbci r31,hi8(-(95))
 839 04fa 8081      		ld r24,Z
 840 04fc 9181      		ldd r25,Z+1
 841 04fe EF55      		subi r30,lo8(-(-95))
 842 0500 F040      		sbci r31,hi8(-(-95))
 843 0502 FC83      		std Y+4,r31
 844 0504 EB83      		std Y+3,r30
 845               	.LVL35:
 846 0506 892B      		or r24,r25
 847 0508 01F4      		brne .L29
 848               	.LSM64:
 849 050a 8FEF      		ldi r24,lo8(-1)
 850 050c 9FEF      		ldi r25,hi8(-1)
 851 050e 96A3      		std Z+38,r25
 852 0510 85A3      		std Z+37,r24
 853 0512 00C0      		rjmp .L30
 854               	.L29:
 855               	.LSM65:
 856 0514 AB81      		ldd r26,Y+3
 857 0516 BC81      		ldd r27,Y+4
 858 0518 9696      		adiw r26,37+1
 859 051a 1C92      		st X,__zero_reg__
 860 051c 1E92      		st -X,__zero_reg__
 861 051e 9597      		sbiw r26,37
 862               	.L30:
 863               	.LSM66:
 864 0520 EB81      		ldd r30,Y+3
 865 0522 FC81      		ldd r31,Y+4
 866 0524 13A2      		std Z+35,__zero_reg__
 867 0526 00C0      		rjmp .L92
 868               	.LVL36:
 869               	.L21:
 870               	.LSM67:
 871 0528 2B81      		ldd r18,Y+3
 872 052a 3C81      		ldd r19,Y+4
 873 052c 295A      		subi r18,lo8(-(87))
 874 052e 3F4F      		sbci r19,hi8(-(87))
 875 0530 D901      		movw r26,r18
 876 0532 1196      		adiw r26,1
 877 0534 1C92      		st X,__zero_reg__
 878 0536 1E92      		st -X,__zero_reg__
 879 0538 A755      		subi r26,lo8(-(-87))
 880 053a B040      		sbci r27,hi8(-(-87))
 881 053c BC83      		std Y+4,r27
 882 053e AB83      		std Y+3,r26
 883               	.LVL37:
 884 0540 00C0      		rjmp .L92
 885               	.LVL38:
 886               	.L34:
 887               	.LSM68:
 888 0542 F401      		movw r30,r8
 889 0544 0081      		ld r16,Z
 890 0546 1181      		ldd r17,Z+1
 891               	.LSM69:
 892 0548 D801      		movw r26,r16
 893 054a 8D91      		ld r24,X+
 894 054c 9C91      		ld r25,X
 895 054e 1197      		sbiw r26,1
 896 0550 9183      		std Z+1,r25
 897 0552 8083      		st Z,r24
 898               	.LSM70:
 899 0554 1296      		adiw r26,2
 900 0556 8D91      		ld r24,X+
 901 0558 9C91      		ld r25,X
 902 055a 1397      		sbiw r26,2+1
 903 055c 0E94 0000 		call pbuf_clen
 904               	.LSM71:
 905 0560 F201      		movw r30,r4
 906 0562 E080      		ld r14,Z
 907 0564 F180      		ldd r15,Z+1
 908 0566 D801      		movw r26,r16
 909 0568 1296      		adiw r26,2
 910 056a 8D91      		ld r24,X+
 911 056c 9C91      		ld r25,X
 912 056e 1397      		sbiw r26,2+1
 913 0570 0E94 0000 		call pbuf_clen
 914 0574 E81A      		sub r14,r24
 915 0576 F108      		sbc r15,__zero_reg__
 916 0578 F201      		movw r30,r4
 917 057a F182      		std Z+1,r15
 918 057c E082      		st Z,r14
 919               	.LSM72:
 920 057e C801      		movw r24,r16
 921 0580 0E94 0000 		call tcp_seg_free
 922               	.LSM73:
 923 0584 D401      		movw r26,r8
 924 0586 ED91      		ld r30,X+
 925 0588 FC91      		ld r31,X
 926 058a 3097      		sbiw r30,0
 927 058c 01F0      		breq .L94
 928               	.LSM74:
 929 058e 0084      		ldd __tmp_reg__,Z+8
 930 0590 F185      		ldd r31,Z+9
 931 0592 E02D      		mov r30,__tmp_reg__
 932 0594 6481      		ldd r22,Z+4
 933 0596 7581      		ldd r23,Z+5
 934 0598 8681      		ldd r24,Z+6
 935 059a 9781      		ldd r25,Z+7
 936 059c 0E94 0000 		call htonl
 937 05a0 F101      		movw r30,r2
 938 05a2 6083      		st Z,r22
 939 05a4 7183      		std Z+1,r23
 940 05a6 8283      		std Z+2,r24
 941 05a8 9383      		std Z+3,r25
 942 05aa 00C0      		rjmp .L94
 943               	.LVL39:
 944               	.L92:
 945               	.LSM75:
 946 05ac 0DE5      		ldi r16,lo8(93)
 947 05ae 802E      		mov r8,r16
 948 05b0 912C      		mov r9,__zero_reg__
 949               	.LVL40:
 950 05b2 2B81      		ldd r18,Y+3
 951 05b4 3C81      		ldd r19,Y+4
 952 05b6 820E      		add r8,r18
 953 05b8 931E      		adc r9,r19
 954 05ba 2B5B      		subi r18,lo8(-(69))
 955 05bc 3F4F      		sbci r19,hi8(-(69))
 956 05be 3A83      		std Y+2,r19
 957 05c0 2983      		std Y+1,r18
 958               	.LSM76:
 959 05c2 1BE5      		ldi r17,lo8(91)
 960 05c4 412E      		mov r4,r17
 961 05c6 512C      		mov r5,__zero_reg__
 962 05c8 4B81      		ldd r20,Y+3
 963 05ca 5C81      		ldd r21,Y+4
 964 05cc 440E      		add r4,r20
 965 05ce 551E      		adc r5,r21
 966               	.LSM77:
 967 05d0 B1E4      		ldi r27,lo8(65)
 968 05d2 2B2E      		mov r2,r27
 969 05d4 312C      		mov r3,__zero_reg__
 970 05d6 240E      		add r2,r20
 971 05d8 351E      		adc r3,r21
 972               	.LVL41:
 973               	.L94:
 974               	.LSM78:
 975 05da D401      		movw r26,r8
 976 05dc ED91      		ld r30,X+
 977 05de FC91      		ld r31,X
 978 05e0 3097      		sbiw r30,0
 979 05e2 01F4      		brne .+2
 980 05e4 00C0      		rjmp .L31
 981 05e6 E090 0000 		lds r14,ackno
 982 05ea F090 0000 		lds r15,(ackno)+1
 983 05ee 0091 0000 		lds r16,(ackno)+2
 984 05f2 1091 0000 		lds r17,(ackno)+3
 985 05f6 0084      		ldd __tmp_reg__,Z+8
 986 05f8 F185      		ldd r31,Z+9
 987 05fa E02D      		mov r30,__tmp_reg__
 988 05fc 6481      		ldd r22,Z+4
 989 05fe 7581      		ldd r23,Z+5
 990 0600 8681      		ldd r24,Z+6
 991 0602 9781      		ldd r25,Z+7
 992               	.LVL42:
 993 0604 0E94 0000 		call ntohl
 994 0608 5B01      		movw r10,r22
 995 060a 6C01      		movw r12,r24
 996 060c D401      		movw r26,r8
 997 060e ED91      		ld r30,X+
 998 0610 FC91      		ld r31,X
 999 0612 6680      		ldd r6,Z+6
 1000 0614 7780      		ldd r7,Z+7
 1001 0616 0084      		ldd __tmp_reg__,Z+8
 1002 0618 F185      		ldd r31,Z+9
 1003 061a E02D      		mov r30,__tmp_reg__
 1004 061c 8485      		ldd r24,Z+12
 1005 061e 9585      		ldd r25,Z+13
 1006 0620 0E94 0000 		call ntohs
 1007 0624 80FD      		sbrc r24,0
 1008 0626 00C0      		rjmp .L32
 1009 0628 D401      		movw r26,r8
 1010 062a ED91      		ld r30,X+
 1011 062c FC91      		ld r31,X
 1012 062e 0084      		ldd __tmp_reg__,Z+8
 1013 0630 F185      		ldd r31,Z+9
 1014 0632 E02D      		mov r30,__tmp_reg__
 1015 0634 8485      		ldd r24,Z+12
 1016 0636 9585      		ldd r25,Z+13
 1017 0638 0E94 0000 		call ntohs
 1018 063c 81FD      		sbrc r24,1
 1019 063e 00C0      		rjmp .L32
 1020 0640 80E0      		ldi r24,lo8(0)
 1021 0642 90E0      		ldi r25,hi8(0)
 1022 0644 00C0      		rjmp .L33
 1023               	.L32:
 1024 0646 81E0      		ldi r24,lo8(1)
 1025 0648 90E0      		ldi r25,hi8(1)
 1026               	.L33:
 1027 064a EA18      		sub r14,r10
 1028 064c FB08      		sbc r15,r11
 1029 064e 0C09      		sbc r16,r12
 1030 0650 1D09      		sbc r17,r13
 1031 0652 860D      		add r24,r6
 1032 0654 971D      		adc r25,r7
 1033 0656 A0E0      		ldi r26,lo8(0)
 1034 0658 B0E0      		ldi r27,hi8(0)
 1035 065a E81A      		sub r14,r24
 1036 065c F90A      		sbc r15,r25
 1037 065e 0A0B      		sbc r16,r26
 1038 0660 1B0B      		sbc r17,r27
 1039 0662 17FD      		sbrc r17,7
 1040 0664 00C0      		rjmp .L31
 1041 0666 8091 0000 		lds r24,ackno
 1042 066a 9091 0000 		lds r25,(ackno)+1
 1043 066e A091 0000 		lds r26,(ackno)+2
 1044 0672 B091 0000 		lds r27,(ackno)+3
 1045 0676 E981      		ldd r30,Y+1
 1046 0678 FA81      		ldd r31,Y+2
 1047 067a 2081      		ld r18,Z
 1048 067c 3181      		ldd r19,Z+1
 1049 067e 4281      		ldd r20,Z+2
 1050 0680 5381      		ldd r21,Z+3
 1051 0682 821B      		sub r24,r18
 1052 0684 930B      		sbc r25,r19
 1053 0686 A40B      		sbc r26,r20
 1054 0688 B50B      		sbc r27,r21
 1055 068a 1816      		cp __zero_reg__,r24
 1056 068c 1906      		cpc __zero_reg__,r25
 1057 068e 1A06      		cpc __zero_reg__,r26
 1058 0690 1B06      		cpc __zero_reg__,r27
 1059 0692 04F0      		brlt .+2
 1060 0694 00C0      		rjmp .L34
 1061               	.LVL43:
 1062               	.L31:
 1063               	.LSM79:
 1064 0696 AB81      		ldd r26,Y+3
 1065 0698 BC81      		ldd r27,Y+4
 1066 069a 9996      		adiw r26,41
 1067 069c ED90      		ld r14,X+
 1068 069e FD90      		ld r15,X+
 1069 06a0 0D91      		ld r16,X+
 1070 06a2 1C91      		ld r17,X
 1071 06a4 9C97      		sbiw r26,41+3
 1072 06a6 E114      		cp r14,__zero_reg__
 1073 06a8 F104      		cpc r15,__zero_reg__
 1074 06aa 0105      		cpc r16,__zero_reg__
 1075 06ac 1105      		cpc r17,__zero_reg__
 1076 06ae 01F4      		brne .+2
 1077 06b0 00C0      		rjmp .L11
 1078 06b2 9D96      		adiw r26,45
 1079 06b4 8D91      		ld r24,X+
 1080 06b6 9D91      		ld r25,X+
 1081 06b8 0D90      		ld __tmp_reg__,X+
 1082 06ba BC91      		ld r27,X
 1083 06bc A02D      		mov r26,__tmp_reg__
 1084 06be 2091 0000 		lds r18,ackno
 1085 06c2 3091 0000 		lds r19,(ackno)+1
 1086 06c6 4091 0000 		lds r20,(ackno)+2
 1087 06ca 5091 0000 		lds r21,(ackno)+3
 1088 06ce 821B      		sub r24,r18
 1089 06d0 930B      		sbc r25,r19
 1090 06d2 A40B      		sbc r26,r20
 1091 06d4 B50B      		sbc r27,r21
 1092 06d6 B7FF      		sbrs r27,7
 1093 06d8 00C0      		rjmp .L11
 1094               	.LSM80:
 1095 06da 4091 0000 		lds r20,tcp_ticks
 1096 06de 5091 0000 		lds r21,(tcp_ticks)+1
 1097               	.LVL44:
 1098 06e2 4E19      		sub r20,r14
 1099 06e4 5F09      		sbc r21,r15
 1100               	.LSM81:
 1101 06e6 EB81      		ldd r30,Y+3
 1102 06e8 FC81      		ldd r31,Y+4
 1103 06ea 81A9      		ldd r24,Z+49
 1104 06ec 92A9      		ldd r25,Z+50
 1105 06ee 9C01      		movw r18,r24
 1106 06f0 A3E0      		ldi r26,3
 1107 06f2 3595      	1:	asr r19
 1108 06f4 2795      		ror r18
 1109 06f6 AA95      		dec r26
 1110 06f8 01F4      		brne 1b
 1111 06fa 421B      		sub r20,r18
 1112 06fc 530B      		sbc r21,r19
 1113               	.LSM82:
 1114 06fe 840F      		add r24,r20
 1115 0700 951F      		adc r25,r21
 1116 0702 92AB      		std Z+50,r25
 1117 0704 81AB      		std Z+49,r24
 1118               	.LSM83:
 1119 0706 23A9      		ldd r18,Z+51
 1120 0708 34A9      		ldd r19,Z+52
 1121               	.LSM84:
 1122 070a C901      		movw r24,r18
 1123 070c 9595      		asr r25
 1124 070e 8795      		ror r24
 1125 0710 9595      		asr r25
 1126 0712 8795      		ror r24
 1127 0714 281B      		sub r18,r24
 1128 0716 390B      		sbc r19,r25
 1129 0718 57FF      		sbrs r21,7
 1130 071a 00C0      		rjmp .L35
 1131 071c 5095      		com r21
 1132 071e 4195      		neg r20
 1133 0720 5F4F      		sbci r21,lo8(-1)
 1134               	.LVL45:
 1135               	.L35:
 1136 0722 240F      		add r18,r20
 1137 0724 351F      		adc r19,r21
 1138 0726 AB81      		ldd r26,Y+3
 1139 0728 BC81      		ldd r27,Y+4
 1140 072a D496      		adiw r26,51+1
 1141 072c 3C93      		st X,r19
 1142 072e 2E93      		st -X,r18
 1143 0730 D397      		sbiw r26,51
 1144               	.LSM85:
 1145 0732 D196      		adiw r26,49
 1146 0734 8D91      		ld r24,X+
 1147 0736 9C91      		ld r25,X
 1148 0738 D297      		sbiw r26,49+1
 1149 073a E3E0      		ldi r30,3
 1150 073c 9595      	1:	asr r25
 1151 073e 8795      		ror r24
 1152 0740 EA95      		dec r30
 1153 0742 01F4      		brne 1b
 1154 0744 280F      		add r18,r24
 1155 0746 391F      		adc r19,r25
 1156 0748 D696      		adiw r26,53+1
 1157 074a 3C93      		st X,r19
 1158 074c 2E93      		st -X,r18
 1159 074e D597      		sbiw r26,53
 1160               	.LSM86:
 1161 0750 FD01      		movw r30,r26
 1162 0752 11A6      		std Z+41,__zero_reg__
 1163 0754 12A6      		std Z+42,__zero_reg__
 1164 0756 13A6      		std Z+43,__zero_reg__
 1165 0758 14A6      		std Z+44,__zero_reg__
 1166               	.L11:
 1167               	.LSM87:
 1168 075a 2091 0000 		lds r18,tcplen
 1169 075e 3091 0000 		lds r19,(tcplen)+1
 1170 0762 E090 0000 		lds r14,seqno
 1171 0766 F090 0000 		lds r15,(seqno)+1
 1172 076a 0091 0000 		lds r16,(seqno)+2
 1173 076e 1091 0000 		lds r17,(seqno)+3
 1174 0772 AB81      		ldd r26,Y+3
 1175 0774 BC81      		ldd r27,Y+4
 1176 0776 5796      		adiw r26,23
 1177 0778 AD90      		ld r10,X+
 1178 077a BD90      		ld r11,X+
 1179 077c CD90      		ld r12,X+
 1180 077e DC90      		ld r13,X
 1181 0780 5A97      		sbiw r26,23+3
 1182 0782 2115      		cp r18,__zero_reg__
 1183 0784 3105      		cpc r19,__zero_reg__
 1184 0786 01F4      		brne .+2
 1185 0788 00C0      		rjmp .L36
 1186               	.LSM88:
 1187 078a D801      		movw r26,r16
 1188 078c C701      		movw r24,r14
 1189 078e 8095      		com r24
 1190 0790 9095      		com r25
 1191 0792 A095      		com r26
 1192 0794 B095      		com r27
 1193 0796 8A0D      		add r24,r10
 1194 0798 9B1D      		adc r25,r11
 1195 079a AC1D      		adc r26,r12
 1196 079c BD1D      		adc r27,r13
 1197 079e B7FD      		sbrc r27,7
 1198 07a0 00C0      		rjmp .L37
 1199 07a2 D601      		movw r26,r12
 1200 07a4 C501      		movw r24,r10
 1201 07a6 0196      		adiw r24,1
 1202 07a8 A11D      		adc r26,__zero_reg__
 1203 07aa B11D      		adc r27,__zero_reg__
 1204 07ac 8E19      		sub r24,r14
 1205 07ae 9F09      		sbc r25,r15
 1206 07b0 A00B      		sbc r26,r16
 1207 07b2 B10B      		sbc r27,r17
 1208 07b4 40E0      		ldi r20,lo8(0)
 1209 07b6 50E0      		ldi r21,hi8(0)
 1210               	.LVL46:
 1211 07b8 821B      		sub r24,r18
 1212 07ba 930B      		sbc r25,r19
 1213 07bc A40B      		sbc r26,r20
 1214 07be B50B      		sbc r27,r21
 1215 07c0 1816      		cp __zero_reg__,r24
 1216 07c2 1906      		cpc __zero_reg__,r25
 1217 07c4 1A06      		cpc __zero_reg__,r26
 1218 07c6 1B06      		cpc __zero_reg__,r27
 1219 07c8 04F4      		brge .+2
 1220 07ca 00C0      		rjmp .L37
 1221               	.LSM89:
 1222 07cc A601      		movw r20,r12
 1223 07ce 9501      		movw r18,r10
 1224               	.LVL47:
 1225 07d0 2E19      		sub r18,r14
 1226 07d2 3F09      		sbc r19,r15
 1227 07d4 400B      		sbc r20,r16
 1228 07d6 510B      		sbc r21,r17
 1229               	.LSM90:
 1230 07d8 0091 0000 		lds r16,inseg+2
 1231 07dc 1091 0000 		lds r17,(inseg+2)+1
 1232               	.LVL48:
 1233               	.LSM91:
 1234 07e0 F801      		movw r30,r16
 1235 07e2 8681      		ldd r24,Z+6
 1236 07e4 9781      		ldd r25,Z+7
 1237 07e6 A0E0      		ldi r26,lo8(0)
 1238 07e8 B0E0      		ldi r27,hi8(0)
 1239 07ea 8217      		cp r24,r18
 1240 07ec 9307      		cpc r25,r19
 1241 07ee A407      		cpc r26,r20
 1242 07f0 B507      		cpc r27,r21
 1243 07f2 04F4      		brge .L38
 1244               	.LSM92:
 1245 07f4 6481      		ldd r22,Z+4
 1246 07f6 7581      		ldd r23,Z+5
 1247               	.LVL49:
 1248 07f8 621B      		sub r22,r18
 1249 07fa 730B      		sbc r23,r19
 1250 07fc 00C0      		rjmp .L39
 1251               	.L40:
 1252               	.LSM93:
 1253 07fe 281B      		sub r18,r24
 1254 0800 390B      		sbc r19,r25
 1255 0802 4A0B      		sbc r20,r26
 1256 0804 5B0B      		sbc r21,r27
 1257               	.LSM94:
 1258 0806 D801      		movw r26,r16
 1259 0808 1596      		adiw r26,4+1
 1260 080a 7C93      		st X,r23
 1261 080c 6E93      		st -X,r22
 1262 080e 1497      		sbiw r26,4
 1263               	.LSM95:
 1264 0810 1796      		adiw r26,6+1
 1265 0812 1C92      		st X,__zero_reg__
 1266 0814 1E92      		st -X,__zero_reg__
 1267 0816 1697      		sbiw r26,6
 1268               	.LSM96:
 1269 0818 0D91      		ld r16,X+
 1270 081a 1C91      		ld r17,X
 1271               	.L39:
 1272               	.LSM97:
 1273 081c F801      		movw r30,r16
 1274 081e 8681      		ldd r24,Z+6
 1275 0820 9781      		ldd r25,Z+7
 1276 0822 A0E0      		ldi r26,lo8(0)
 1277 0824 B0E0      		ldi r27,hi8(0)
 1278 0826 8217      		cp r24,r18
 1279 0828 9307      		cpc r25,r19
 1280 082a A407      		cpc r26,r20
 1281 082c B507      		cpc r27,r21
 1282 082e 04F0      		brlt .L40
 1283               	.LSM98:
 1284 0830 6627      		clr r22
 1285 0832 7727      		clr r23
 1286 0834 621B      		sub r22,r18
 1287 0836 730B      		sbc r23,r19
 1288               	.LVL50:
 1289 0838 C801      		movw r24,r16
 1290               	.LVL51:
 1291 083a 00C0      		rjmp .L97
 1292               	.LVL52:
 1293               	.L38:
 1294               	.LSM99:
 1295 083c 6627      		clr r22
 1296 083e 7727      		clr r23
 1297 0840 621B      		sub r22,r18
 1298 0842 730B      		sbc r23,r19
 1299               	.LVL53:
 1300 0844 C801      		movw r24,r16
 1301               	.L97:
 1302 0846 0E94 0000 		call pbuf_header
 1303               	.LVL54:
 1304               	.LSM100:
 1305 084a D801      		movw r26,r16
 1306 084c 1296      		adiw r26,2
 1307 084e 8D91      		ld r24,X+
 1308 0850 9C91      		ld r25,X
 1309 0852 1397      		sbiw r26,2+1
 1310 0854 9093 0000 		sts (inseg+4)+1,r25
 1311 0858 8093 0000 		sts inseg+4,r24
 1312               	.LSM101:
 1313 085c 8091 0000 		lds r24,seqno
 1314 0860 9091 0000 		lds r25,(seqno)+1
 1315 0864 2091 0000 		lds r18,inseg+6
 1316 0868 3091 0000 		lds r19,(inseg+6)+1
 1317 086c 820F      		add r24,r18
 1318 086e 931F      		adc r25,r19
 1319 0870 EB81      		ldd r30,Y+3
 1320 0872 FC81      		ldd r31,Y+4
 1321 0874 2789      		ldd r18,Z+23
 1322 0876 308D      		ldd r19,Z+24
 1323 0878 821B      		sub r24,r18
 1324 087a 930B      		sbc r25,r19
 1325 087c 9093 0000 		sts (inseg+6)+1,r25
 1326 0880 8093 0000 		sts inseg+6,r24
 1327               	.LSM102:
 1328 0884 2091 0000 		lds r18,inseg+8
 1329 0888 3091 0000 		lds r19,(inseg+8)+1
 1330 088c 8789      		ldd r24,Z+23
 1331 088e 908D      		ldd r25,Z+24
 1332 0890 A18D      		ldd r26,Z+25
 1333 0892 B28D      		ldd r27,Z+26
 1334 0894 8093 0000 		sts seqno,r24
 1335 0898 9093 0000 		sts (seqno)+1,r25
 1336 089c A093 0000 		sts (seqno)+2,r26
 1337 08a0 B093 0000 		sts (seqno)+3,r27
 1338 08a4 F901      		movw r30,r18
 1339 08a6 8483      		std Z+4,r24
 1340 08a8 9583      		std Z+5,r25
 1341 08aa A683      		std Z+6,r26
 1342 08ac B783      		std Z+7,r27
 1343 08ae 00C0      		rjmp .L42
 1344               	.LVL55:
 1345               	.L37:
 1346               	.LSM103:
 1347 08b0 EA18      		sub r14,r10
 1348 08b2 FB08      		sbc r15,r11
 1349 08b4 0C09      		sbc r16,r12
 1350 08b6 1D09      		sbc r17,r13
 1351 08b8 17FF      		sbrs r17,7
 1352 08ba 00C0      		rjmp .L42
 1353               	.LSM104:
 1354 08bc AB81      		ldd r26,Y+3
 1355 08be BC81      		ldd r27,Y+4
 1356 08c0 5696      		adiw r26,22
 1357 08c2 8C91      		ld r24,X
 1358 08c4 5697      		sbiw r26,22
 1359 08c6 8260      		ori r24,lo8(2)
 1360 08c8 5696      		adiw r26,22
 1361 08ca 8C93      		st X,r24
 1362 08cc 8B81      		ldd r24,Y+3
 1363 08ce 9C81      		ldd r25,Y+4
 1364 08d0 0E94 0000 		call tcp_output
 1365               	.LVL56:
 1366               	.L42:
 1367               	.LSM105:
 1368 08d4 E090 0000 		lds r14,seqno
 1369 08d8 F090 0000 		lds r15,(seqno)+1
 1370 08dc 0091 0000 		lds r16,(seqno)+2
 1371 08e0 1091 0000 		lds r17,(seqno)+3
 1372 08e4 EB81      		ldd r30,Y+3
 1373 08e6 FC81      		ldd r31,Y+4
 1374 08e8 A788      		ldd r10,Z+23
 1375 08ea B08C      		ldd r11,Z+24
 1376 08ec C18C      		ldd r12,Z+25
 1377 08ee D28C      		ldd r13,Z+26
 1378 08f0 D801      		movw r26,r16
 1379 08f2 C701      		movw r24,r14
 1380 08f4 8A19      		sub r24,r10
 1381 08f6 9B09      		sbc r25,r11
 1382 08f8 AC09      		sbc r26,r12
 1383 08fa BD09      		sbc r27,r13
 1384 08fc B7FD      		sbrc r27,7
 1385 08fe 00C0      		rjmp .L89
 1386 0900 A801      		movw r20,r16
 1387 0902 9701      		movw r18,r14
 1388 0904 2F5F      		subi r18,lo8(-(1))
 1389 0906 3F4F      		sbci r19,hi8(-(1))
 1390 0908 4F4F      		sbci r20,hlo8(-(1))
 1391 090a 5F4F      		sbci r21,hhi8(-(1))
 1392 090c 2A19      		sub r18,r10
 1393 090e 3B09      		sbc r19,r11
 1394 0910 4C09      		sbc r20,r12
 1395 0912 5D09      		sbc r21,r13
 1396 0914 858D      		ldd r24,Z+29
 1397 0916 968D      		ldd r25,Z+30
 1398 0918 A0E0      		ldi r26,lo8(0)
 1399 091a B0E0      		ldi r27,hi8(0)
 1400 091c 281B      		sub r18,r24
 1401 091e 390B      		sbc r19,r25
 1402 0920 4A0B      		sbc r20,r26
 1403 0922 5B0B      		sbc r21,r27
 1404 0924 1216      		cp __zero_reg__,r18
 1405 0926 1306      		cpc __zero_reg__,r19
 1406 0928 1406      		cpc __zero_reg__,r20
 1407 092a 1506      		cpc __zero_reg__,r21
 1408 092c 04F4      		brge .+2
 1409 092e 00C0      		rjmp .L89
 1410 0930 71E6      		ldi r23,lo8(97)
 1411 0932 472E      		mov r4,r23
 1412 0934 512C      		mov r5,__zero_reg__
 1413 0936 4E0E      		add r4,r30
 1414 0938 5F1E      		adc r5,r31
 1415               	.LSM106:
 1416 093a AE14      		cp r10,r14
 1417 093c BF04      		cpc r11,r15
 1418 093e C006      		cpc r12,r16
 1419 0940 D106      		cpc r13,r17
 1420 0942 01F0      		breq .+2
 1421 0944 00C0      		rjmp .L44
 1422               	.LSM107:
 1423 0946 D201      		movw r26,r4
 1424 0948 0D91      		ld r16,X+
 1425 094a 1C91      		ld r17,X
 1426               	.LVL57:
 1427 094c 0115      		cp r16,__zero_reg__
 1428 094e 1105      		cpc r17,__zero_reg__
 1429 0950 01F4      		brne .+2
 1430 0952 00C0      		rjmp .L45
 1431 0954 D801      		movw r26,r16
 1432 0956 1896      		adiw r26,8
 1433 0958 ED91      		ld r30,X+
 1434 095a FC91      		ld r31,X
 1435 095c 1997      		sbiw r26,8+1
 1436 095e 6480      		ldd r6,Z+4
 1437 0960 7580      		ldd r7,Z+5
 1438 0962 8680      		ldd r8,Z+6
 1439 0964 9780      		ldd r9,Z+7
 1440 0966 A401      		movw r20,r8
 1441 0968 9301      		movw r18,r6
 1442 096a 2A19      		sub r18,r10
 1443 096c 3B09      		sbc r19,r11
 1444 096e 4C09      		sbc r20,r12
 1445 0970 5D09      		sbc r21,r13
 1446 0972 8091 0000 		lds r24,inseg+6
 1447 0976 9091 0000 		lds r25,(inseg+6)+1
 1448 097a A0E0      		ldi r26,lo8(0)
 1449 097c B0E0      		ldi r27,hi8(0)
 1450 097e 281B      		sub r18,r24
 1451 0980 390B      		sbc r19,r25
 1452 0982 4A0B      		sbc r20,r26
 1453 0984 5B0B      		sbc r21,r27
 1454 0986 1216      		cp __zero_reg__,r18
 1455 0988 1306      		cpc __zero_reg__,r19
 1456 098a 1406      		cpc __zero_reg__,r20
 1457 098c 1506      		cpc __zero_reg__,r21
 1458 098e 04F0      		brlt .L45
 1459               	.LSM108:
 1460 0990 F801      		movw r30,r16
 1461 0992 8681      		ldd r24,Z+6
 1462 0994 9781      		ldd r25,Z+7
 1463 0996 892B      		or r24,r25
 1464 0998 01F0      		breq .L46
 1465               	.LSM109:
 1466 099a B301      		movw r22,r6
 1467               	.LVL58:
 1468 099c 6A19      		sub r22,r10
 1469 099e 7B09      		sbc r23,r11
 1470 09a0 7093 0000 		sts (inseg+6)+1,r23
 1471 09a4 6093 0000 		sts inseg+6,r22
 1472               	.LSM110:
 1473 09a8 8091 0000 		lds r24,inseg+2
 1474 09ac 9091 0000 		lds r25,(inseg+2)+1
 1475 09b0 0E94 0000 		call pbuf_realloc
 1476               	.LVL59:
 1477 09b4 00C0      		rjmp .L45
 1478               	.LVL60:
 1479               	.L46:
 1480               	.LSM111:
 1481 09b6 E091 0000 		lds r30,inseg+8
 1482 09ba F091 0000 		lds r31,(inseg+8)+1
 1483 09be 8485      		ldd r24,Z+12
 1484 09c0 9585      		ldd r25,Z+13
 1485 09c2 0E94 0000 		call ntohs
 1486               	.LVL61:
 1487 09c6 8C01      		movw r16,r24
 1488 09c8 D201      		movw r26,r4
 1489 09ca ED91      		ld r30,X+
 1490 09cc FC91      		ld r31,X
 1491 09ce 0084      		ldd __tmp_reg__,Z+8
 1492 09d0 F185      		ldd r31,Z+9
 1493 09d2 E02D      		mov r30,__tmp_reg__
 1494 09d4 8485      		ldd r24,Z+12
 1495 09d6 9585      		ldd r25,Z+13
 1496 09d8 0E94 0000 		call ntohs
 1497 09dc 0827      		eor r16,r24
 1498 09de 1927      		eor r17,r25
 1499 09e0 0370      		andi r16,lo8(3)
 1500 09e2 1070      		andi r17,hi8(3)
 1501 09e4 012B      		or r16,r17
 1502 09e6 01F4      		brne .L45
 1503               	.LBB3:
 1504               	.LSM112:
 1505 09e8 D201      		movw r26,r4
 1506 09ea ED91      		ld r30,X+
 1507 09ec FC91      		ld r31,X
 1508 09ee 1197      		sbiw r26,1
 1509               	.LVL62:
 1510               	.LSM113:
 1511 09f0 8081      		ld r24,Z
 1512 09f2 9181      		ldd r25,Z+1
 1513 09f4 8D93      		st X+,r24
 1514 09f6 9C93      		st X,r25
 1515               	.LSM114:
 1516 09f8 84E0      		ldi r24,lo8(4)
 1517 09fa BF01      		movw r22,r30
 1518 09fc 0E94 0000 		call memp_free
 1519               	.LVL63:
 1520               	.L45:
 1521               	.LBE3:
 1522               	.LSM115:
 1523 0a00 0091 0000 		lds r16,inseg+6
 1524 0a04 1091 0000 		lds r17,(inseg+6)+1
 1525 0a08 E091 0000 		lds r30,inseg+8
 1526 0a0c F091 0000 		lds r31,(inseg+8)+1
 1527 0a10 8485      		ldd r24,Z+12
 1528 0a12 9585      		ldd r25,Z+13
 1529 0a14 0E94 0000 		call ntohs
 1530               	.LVL64:
 1531 0a18 80FD      		sbrc r24,0
 1532 0a1a 00C0      		rjmp .L47
 1533 0a1c E091 0000 		lds r30,inseg+8
 1534 0a20 F091 0000 		lds r31,(inseg+8)+1
 1535 0a24 8485      		ldd r24,Z+12
 1536 0a26 9585      		ldd r25,Z+13
 1537 0a28 0E94 0000 		call ntohs
 1538 0a2c 81FD      		sbrc r24,1
 1539 0a2e 00C0      		rjmp .L47
 1540 0a30 20E0      		ldi r18,lo8(0)
 1541 0a32 30E0      		ldi r19,hi8(0)
 1542 0a34 00C0      		rjmp .L48
 1543               	.L47:
 1544 0a36 21E0      		ldi r18,lo8(1)
 1545 0a38 30E0      		ldi r19,hi8(1)
 1546               	.L48:
 1547 0a3a 200F      		add r18,r16
 1548 0a3c 311F      		adc r19,r17
 1549 0a3e 3093 0000 		sts (tcplen)+1,r19
 1550 0a42 2093 0000 		sts tcplen,r18
 1551               	.LSM116:
 1552 0a46 EB81      		ldd r30,Y+3
 1553 0a48 FC81      		ldd r31,Y+4
 1554 0a4a 8685      		ldd r24,Z+14
 1555 0a4c 8730      		cpi r24,lo8(7)
 1556 0a4e 01F0      		breq .L49
 1557               	.LSM117:
 1558 0a50 40E0      		ldi r20,lo8(0)
 1559 0a52 50E0      		ldi r21,hi8(0)
 1560 0a54 8789      		ldd r24,Z+23
 1561 0a56 908D      		ldd r25,Z+24
 1562 0a58 A18D      		ldd r26,Z+25
 1563 0a5a B28D      		ldd r27,Z+26
 1564 0a5c 820F      		add r24,r18
 1565 0a5e 931F      		adc r25,r19
 1566 0a60 A41F      		adc r26,r20
 1567 0a62 B51F      		adc r27,r21
 1568 0a64 878B      		std Z+23,r24
 1569 0a66 908F      		std Z+24,r25
 1570 0a68 A18F      		std Z+25,r26
 1571 0a6a B28F      		std Z+26,r27
 1572               	.L49:
 1573               	.LSM118:
 1574 0a6c AB81      		ldd r26,Y+3
 1575 0a6e BC81      		ldd r27,Y+4
 1576 0a70 5B96      		adiw r26,27
 1577 0a72 8D91      		ld r24,X+
 1578 0a74 9C91      		ld r25,X
 1579 0a76 5C97      		sbiw r26,27+1
 1580 0a78 2091 0000 		lds r18,tcplen
 1581 0a7c 3091 0000 		lds r19,(tcplen)+1
 1582 0a80 8217      		cp r24,r18
 1583 0a82 9307      		cpc r25,r19
 1584 0a84 00F4      		brsh .L50
 1585               	.LSM119:
 1586 0a86 5C96      		adiw r26,27+1
 1587 0a88 1C92      		st X,__zero_reg__
 1588 0a8a 1E92      		st -X,__zero_reg__
 1589 0a8c 5B97      		sbiw r26,27
 1590 0a8e 00C0      		rjmp .L51
 1591               	.L50:
 1592               	.LSM120:
 1593 0a90 821B      		sub r24,r18
 1594 0a92 930B      		sbc r25,r19
 1595 0a94 EB81      		ldd r30,Y+3
 1596 0a96 FC81      		ldd r31,Y+4
 1597 0a98 948F      		std Z+28,r25
 1598 0a9a 838F      		std Z+27,r24
 1599               	.L51:
 1600               	.LSM121:
 1601 0a9c AB81      		ldd r26,Y+3
 1602 0a9e BC81      		ldd r27,Y+4
 1603 0aa0 5D96      		adiw r26,29
 1604 0aa2 8D91      		ld r24,X+
 1605 0aa4 9C91      		ld r25,X
 1606 0aa6 5E97      		sbiw r26,29+1
 1607 0aa8 2091 0000 		lds r18,tcplen
 1608 0aac 3091 0000 		lds r19,(tcplen)+1
 1609 0ab0 8217      		cp r24,r18
 1610 0ab2 9307      		cpc r25,r19
 1611 0ab4 00F4      		brsh .L52
 1612               	.LSM122:
 1613 0ab6 5E96      		adiw r26,29+1
 1614 0ab8 1C92      		st X,__zero_reg__
 1615 0aba 1E92      		st -X,__zero_reg__
 1616 0abc 5D97      		sbiw r26,29
 1617 0abe 00C0      		rjmp .L53
 1618               	.L52:
 1619               	.LSM123:
 1620 0ac0 821B      		sub r24,r18
 1621 0ac2 930B      		sbc r25,r19
 1622 0ac4 EB81      		ldd r30,Y+3
 1623 0ac6 FC81      		ldd r31,Y+4
 1624 0ac8 968F      		std Z+30,r25
 1625 0aca 858F      		std Z+29,r24
 1626               	.L53:
 1627               	.LSM124:
 1628 0acc E091 0000 		lds r30,inseg+2
 1629 0ad0 F091 0000 		lds r31,(inseg+2)+1
 1630 0ad4 8481      		ldd r24,Z+4
 1631 0ad6 9581      		ldd r25,Z+5
 1632 0ad8 892B      		or r24,r25
 1633 0ada 01F0      		breq .L54
 1634               	.LSM125:
 1635 0adc F093 0000 		sts (recv_data)+1,r31
 1636 0ae0 E093 0000 		sts recv_data,r30
 1637               	.LSM126:
 1638 0ae4 1092 0000 		sts (inseg+2)+1,__zero_reg__
 1639 0ae8 1092 0000 		sts inseg+2,__zero_reg__
 1640               	.L54:
 1641               	.LSM127:
 1642 0aec E091 0000 		lds r30,inseg+8
 1643 0af0 F091 0000 		lds r31,(inseg+8)+1
 1644 0af4 8485      		ldd r24,Z+12
 1645 0af6 9585      		ldd r25,Z+13
 1646 0af8 0E94 0000 		call ntohs
 1647 0afc 80FF      		sbrs r24,0
 1648 0afe 00C0      		rjmp .L55
 1649               	.LSM128:
 1650 0b00 80E2      		ldi r24,lo8(32)
 1651 0b02 8093 0000 		sts recv_flags,r24
 1652 0b06 00C0      		rjmp .L55
 1653               	.L75:
 1654               	.LSM129:
 1655 0b08 E092 0000 		sts seqno,r14
 1656 0b0c F092 0000 		sts (seqno)+1,r15
 1657 0b10 0093 0000 		sts (seqno)+2,r16
 1658 0b14 1093 0000 		sts (seqno)+3,r17
 1659               	.LSM130:
 1660 0b18 D601      		movw r26,r12
 1661 0b1a 1696      		adiw r26,6
 1662 0b1c AD90      		ld r10,X+
 1663 0b1e BC90      		ld r11,X
 1664 0b20 1797      		sbiw r26,6+1
 1665 0b22 8485      		ldd r24,Z+12
 1666 0b24 9585      		ldd r25,Z+13
 1667 0b26 0E94 0000 		call ntohs
 1668 0b2a 80FD      		sbrc r24,0
 1669 0b2c 00C0      		rjmp .L56
 1670 0b2e D601      		movw r26,r12
 1671 0b30 1896      		adiw r26,8
 1672 0b32 ED91      		ld r30,X+
 1673 0b34 FC91      		ld r31,X
 1674 0b36 1997      		sbiw r26,8+1
 1675 0b38 8485      		ldd r24,Z+12
 1676 0b3a 9585      		ldd r25,Z+13
 1677 0b3c 0E94 0000 		call ntohs
 1678 0b40 81FD      		sbrc r24,1
 1679 0b42 00C0      		rjmp .L56
 1680 0b44 80E0      		ldi r24,lo8(0)
 1681 0b46 90E0      		ldi r25,hi8(0)
 1682 0b48 00C0      		rjmp .L57
 1683               	.L56:
 1684 0b4a 81E0      		ldi r24,lo8(1)
 1685 0b4c 90E0      		ldi r25,hi8(1)
 1686               	.L57:
 1687 0b4e 8A0D      		add r24,r10
 1688 0b50 9B1D      		adc r25,r11
 1689 0b52 A0E0      		ldi r26,lo8(0)
 1690 0b54 B0E0      		ldi r27,hi8(0)
 1691 0b56 8E0D      		add r24,r14
 1692 0b58 9F1D      		adc r25,r15
 1693 0b5a A01F      		adc r26,r16
 1694 0b5c B11F      		adc r27,r17
 1695 0b5e EB81      		ldd r30,Y+3
 1696 0b60 FC81      		ldd r31,Y+4
 1697 0b62 878B      		std Z+23,r24
 1698 0b64 908F      		std Z+24,r25
 1699 0b66 A18F      		std Z+25,r26
 1700 0b68 B28F      		std Z+26,r27
 1701               	.LSM131:
 1702 0b6a E38C      		ldd r14,Z+27
 1703 0b6c F48C      		ldd r15,Z+28
 1704 0b6e D601      		movw r26,r12
 1705 0b70 1696      		adiw r26,6
 1706 0b72 0D91      		ld r16,X+
 1707 0b74 1C91      		ld r17,X
 1708 0b76 1797      		sbiw r26,6+1
 1709 0b78 1896      		adiw r26,8
 1710 0b7a ED91      		ld r30,X+
 1711 0b7c FC91      		ld r31,X
 1712 0b7e 1997      		sbiw r26,8+1
 1713 0b80 8485      		ldd r24,Z+12
 1714 0b82 9585      		ldd r25,Z+13
 1715 0b84 0E94 0000 		call ntohs
 1716 0b88 80FD      		sbrc r24,0
 1717 0b8a 00C0      		rjmp .L58
 1718 0b8c D601      		movw r26,r12
 1719 0b8e 1896      		adiw r26,8
 1720 0b90 ED91      		ld r30,X+
 1721 0b92 FC91      		ld r31,X
 1722 0b94 1997      		sbiw r26,8+1
 1723 0b96 8485      		ldd r24,Z+12
 1724 0b98 9585      		ldd r25,Z+13
 1725 0b9a 0E94 0000 		call ntohs
 1726 0b9e 81FD      		sbrc r24,1
 1727 0ba0 00C0      		rjmp .L58
 1728 0ba2 80E0      		ldi r24,lo8(0)
 1729 0ba4 90E0      		ldi r25,hi8(0)
 1730 0ba6 00C0      		rjmp .L59
 1731               	.L58:
 1732 0ba8 81E0      		ldi r24,lo8(1)
 1733 0baa 90E0      		ldi r25,hi8(1)
 1734               	.L59:
 1735 0bac 800F      		add r24,r16
 1736 0bae 911F      		adc r25,r17
 1737 0bb0 E816      		cp r14,r24
 1738 0bb2 F906      		cpc r15,r25
 1739 0bb4 00F4      		brsh .L60
 1740               	.LSM132:
 1741 0bb6 EB81      		ldd r30,Y+3
 1742 0bb8 FC81      		ldd r31,Y+4
 1743 0bba 148E      		std Z+28,__zero_reg__
 1744 0bbc 138E      		std Z+27,__zero_reg__
 1745 0bbe 00C0      		rjmp .L61
 1746               	.L60:
 1747               	.LSM133:
 1748 0bc0 AB81      		ldd r26,Y+3
 1749 0bc2 BC81      		ldd r27,Y+4
 1750 0bc4 5B96      		adiw r26,27
 1751 0bc6 0D91      		ld r16,X+
 1752 0bc8 1C91      		ld r17,X
 1753 0bca 5C97      		sbiw r26,27+1
 1754 0bcc F601      		movw r30,r12
 1755 0bce E680      		ldd r14,Z+6
 1756 0bd0 F780      		ldd r15,Z+7
 1757 0bd2 0084      		ldd __tmp_reg__,Z+8
 1758 0bd4 F185      		ldd r31,Z+9
 1759 0bd6 E02D      		mov r30,__tmp_reg__
 1760 0bd8 8485      		ldd r24,Z+12
 1761 0bda 9585      		ldd r25,Z+13
 1762 0bdc 0E94 0000 		call ntohs
 1763 0be0 80FD      		sbrc r24,0
 1764 0be2 00C0      		rjmp .L62
 1765 0be4 D601      		movw r26,r12
 1766 0be6 1896      		adiw r26,8
 1767 0be8 ED91      		ld r30,X+
 1768 0bea FC91      		ld r31,X
 1769 0bec 1997      		sbiw r26,8+1
 1770 0bee 8485      		ldd r24,Z+12
 1771 0bf0 9585      		ldd r25,Z+13
 1772 0bf2 0E94 0000 		call ntohs
 1773 0bf6 81FD      		sbrc r24,1
 1774 0bf8 00C0      		rjmp .L62
 1775 0bfa 80E0      		ldi r24,lo8(0)
 1776 0bfc 90E0      		ldi r25,hi8(0)
 1777 0bfe 00C0      		rjmp .L63
 1778               	.L62:
 1779 0c00 81E0      		ldi r24,lo8(1)
 1780 0c02 90E0      		ldi r25,hi8(1)
 1781               	.L63:
 1782 0c04 0E19      		sub r16,r14
 1783 0c06 1F09      		sbc r17,r15
 1784 0c08 081B      		sub r16,r24
 1785 0c0a 190B      		sbc r17,r25
 1786 0c0c EB81      		ldd r30,Y+3
 1787 0c0e FC81      		ldd r31,Y+4
 1788 0c10 148F      		std Z+28,r17
 1789 0c12 038F      		std Z+27,r16
 1790               	.L61:
 1791               	.LSM134:
 1792 0c14 AB81      		ldd r26,Y+3
 1793 0c16 BC81      		ldd r27,Y+4
 1794 0c18 5D96      		adiw r26,29
 1795 0c1a ED90      		ld r14,X+
 1796 0c1c FC90      		ld r15,X
 1797 0c1e 5E97      		sbiw r26,29+1
 1798 0c20 F601      		movw r30,r12
 1799 0c22 0681      		ldd r16,Z+6
 1800 0c24 1781      		ldd r17,Z+7
 1801 0c26 0084      		ldd __tmp_reg__,Z+8
 1802 0c28 F185      		ldd r31,Z+9
 1803 0c2a E02D      		mov r30,__tmp_reg__
 1804 0c2c 8485      		ldd r24,Z+12
 1805 0c2e 9585      		ldd r25,Z+13
 1806 0c30 0E94 0000 		call ntohs
 1807 0c34 80FD      		sbrc r24,0
 1808 0c36 00C0      		rjmp .L64
 1809 0c38 D601      		movw r26,r12
 1810 0c3a 1896      		adiw r26,8
 1811 0c3c ED91      		ld r30,X+
 1812 0c3e FC91      		ld r31,X
 1813 0c40 1997      		sbiw r26,8+1
 1814 0c42 8485      		ldd r24,Z+12
 1815 0c44 9585      		ldd r25,Z+13
 1816 0c46 0E94 0000 		call ntohs
 1817 0c4a 81FD      		sbrc r24,1
 1818 0c4c 00C0      		rjmp .L64
 1819 0c4e 80E0      		ldi r24,lo8(0)
 1820 0c50 90E0      		ldi r25,hi8(0)
 1821 0c52 00C0      		rjmp .L65
 1822               	.L64:
 1823 0c54 81E0      		ldi r24,lo8(1)
 1824 0c56 90E0      		ldi r25,hi8(1)
 1825               	.L65:
 1826 0c58 800F      		add r24,r16
 1827 0c5a 911F      		adc r25,r17
 1828 0c5c E816      		cp r14,r24
 1829 0c5e F906      		cpc r15,r25
 1830 0c60 00F4      		brsh .L66
 1831               	.LSM135:
 1832 0c62 EB81      		ldd r30,Y+3
 1833 0c64 FC81      		ldd r31,Y+4
 1834 0c66 168E      		std Z+30,__zero_reg__
 1835 0c68 158E      		std Z+29,__zero_reg__
 1836 0c6a 00C0      		rjmp .L67
 1837               	.L66:
 1838               	.LSM136:
 1839 0c6c AB81      		ldd r26,Y+3
 1840 0c6e BC81      		ldd r27,Y+4
 1841 0c70 5D96      		adiw r26,29
 1842 0c72 0D91      		ld r16,X+
 1843 0c74 1C91      		ld r17,X
 1844 0c76 5E97      		sbiw r26,29+1
 1845 0c78 F601      		movw r30,r12
 1846 0c7a E680      		ldd r14,Z+6
 1847 0c7c F780      		ldd r15,Z+7
 1848 0c7e 0084      		ldd __tmp_reg__,Z+8
 1849 0c80 F185      		ldd r31,Z+9
 1850 0c82 E02D      		mov r30,__tmp_reg__
 1851 0c84 8485      		ldd r24,Z+12
 1852 0c86 9585      		ldd r25,Z+13
 1853 0c88 0E94 0000 		call ntohs
 1854 0c8c 80FD      		sbrc r24,0
 1855 0c8e 00C0      		rjmp .L68
 1856 0c90 D601      		movw r26,r12
 1857 0c92 1896      		adiw r26,8
 1858 0c94 ED91      		ld r30,X+
 1859 0c96 FC91      		ld r31,X
 1860 0c98 1997      		sbiw r26,8+1
 1861 0c9a 8485      		ldd r24,Z+12
 1862 0c9c 9585      		ldd r25,Z+13
 1863 0c9e 0E94 0000 		call ntohs
 1864 0ca2 81FD      		sbrc r24,1
 1865 0ca4 00C0      		rjmp .L68
 1866 0ca6 80E0      		ldi r24,lo8(0)
 1867 0ca8 90E0      		ldi r25,hi8(0)
 1868 0caa 00C0      		rjmp .L69
 1869               	.L68:
 1870 0cac 81E0      		ldi r24,lo8(1)
 1871 0cae 90E0      		ldi r25,hi8(1)
 1872               	.L69:
 1873 0cb0 0E19      		sub r16,r14
 1874 0cb2 1F09      		sbc r17,r15
 1875 0cb4 081B      		sub r16,r24
 1876 0cb6 190B      		sbc r17,r25
 1877 0cb8 EB81      		ldd r30,Y+3
 1878 0cba FC81      		ldd r31,Y+4
 1879 0cbc 168F      		std Z+30,r17
 1880 0cbe 058F      		std Z+29,r16
 1881               	.L67:
 1882               	.LSM137:
 1883 0cc0 D601      		movw r26,r12
 1884 0cc2 1296      		adiw r26,2
 1885 0cc4 ED91      		ld r30,X+
 1886 0cc6 FC91      		ld r31,X
 1887 0cc8 1397      		sbiw r26,2+1
 1888 0cca 8481      		ldd r24,Z+4
 1889 0ccc 9581      		ldd r25,Z+5
 1890 0cce 892B      		or r24,r25
 1891 0cd0 01F0      		breq .L70
 1892               	.LSM138:
 1893 0cd2 8091 0000 		lds r24,recv_data
 1894 0cd6 9091 0000 		lds r25,(recv_data)+1
 1895 0cda 0097      		sbiw r24,0
 1896 0cdc 01F0      		breq .L71
 1897               	.LSM139:
 1898 0cde BF01      		movw r22,r30
 1899 0ce0 0E94 0000 		call pbuf_cat
 1900 0ce4 00C0      		rjmp .L72
 1901               	.L71:
 1902               	.LSM140:
 1903 0ce6 F093 0000 		sts (recv_data)+1,r31
 1904 0cea E093 0000 		sts recv_data,r30
 1905               	.L72:
 1906               	.LSM141:
 1907 0cee F601      		movw r30,r12
 1908 0cf0 1382      		std Z+3,__zero_reg__
 1909 0cf2 1282      		std Z+2,__zero_reg__
 1910               	.L70:
 1911               	.LSM142:
 1912 0cf4 D601      		movw r26,r12
 1913 0cf6 1896      		adiw r26,8
 1914 0cf8 ED91      		ld r30,X+
 1915 0cfa FC91      		ld r31,X
 1916 0cfc 1997      		sbiw r26,8+1
 1917 0cfe 8485      		ldd r24,Z+12
 1918 0d00 9585      		ldd r25,Z+13
 1919 0d02 0E94 0000 		call ntohs
 1920 0d06 80FF      		sbrs r24,0
 1921 0d08 00C0      		rjmp .L73
 1922               	.LSM143:
 1923 0d0a 6092 0000 		sts recv_flags,r6
 1924               	.LSM144:
 1925 0d0e EB81      		ldd r30,Y+3
 1926 0d10 FC81      		ldd r31,Y+4
 1927 0d12 8685      		ldd r24,Z+14
 1928 0d14 8430      		cpi r24,lo8(4)
 1929 0d16 01F4      		brne .L73
 1930               	.LSM145:
 1931 0d18 7686      		std Z+14,r7
 1932               	.L73:
 1933               	.LSM146:
 1934 0d1a D601      		movw r26,r12
 1935 0d1c 8D91      		ld r24,X+
 1936 0d1e 9C91      		ld r25,X
 1937 0d20 F401      		movw r30,r8
 1938 0d22 9183      		std Z+1,r25
 1939 0d24 8083      		st Z,r24
 1940               	.LSM147:
 1941 0d26 C601      		movw r24,r12
 1942 0d28 0E94 0000 		call tcp_seg_free
 1943 0d2c 00C0      		rjmp .L96
 1944               	.L55:
 1945               	.LSM148:
 1946 0d2e 61E6      		ldi r22,lo8(97)
 1947 0d30 862E      		mov r8,r22
 1948 0d32 912C      		mov r9,__zero_reg__
 1949 0d34 2B81      		ldd r18,Y+3
 1950 0d36 3C81      		ldd r19,Y+4
 1951 0d38 820E      		add r8,r18
 1952 0d3a 931E      		adc r9,r19
 1953               	.LSM149:
 1954 0d3c 50E2      		ldi r21,lo8(32)
 1955 0d3e 652E      		mov r6,r21
 1956               	.LSM150:
 1957 0d40 47E0      		ldi r20,lo8(7)
 1958 0d42 742E      		mov r7,r20
 1959               	.L96:
 1960               	.LSM151:
 1961 0d44 D401      		movw r26,r8
 1962 0d46 CD90      		ld r12,X+
 1963 0d48 DC90      		ld r13,X
 1964 0d4a C114      		cp r12,__zero_reg__
 1965 0d4c D104      		cpc r13,__zero_reg__
 1966 0d4e 01F0      		breq .L74
 1967 0d50 D601      		movw r26,r12
 1968 0d52 1896      		adiw r26,8
 1969 0d54 ED91      		ld r30,X+
 1970 0d56 FC91      		ld r31,X
 1971 0d58 1997      		sbiw r26,8+1
 1972 0d5a E480      		ldd r14,Z+4
 1973 0d5c F580      		ldd r15,Z+5
 1974 0d5e 0681      		ldd r16,Z+6
 1975 0d60 1781      		ldd r17,Z+7
 1976 0d62 AB81      		ldd r26,Y+3
 1977 0d64 BC81      		ldd r27,Y+4
 1978 0d66 5796      		adiw r26,23
 1979 0d68 2D91      		ld r18,X+
 1980 0d6a 3D91      		ld r19,X+
 1981 0d6c 4D91      		ld r20,X+
 1982 0d6e 5C91      		ld r21,X
 1983 0d70 5A97      		sbiw r26,23+3
 1984 0d72 E216      		cp r14,r18
 1985 0d74 F306      		cpc r15,r19
 1986 0d76 0407      		cpc r16,r20
 1987 0d78 1507      		cpc r17,r21
 1988 0d7a 01F4      		brne .+2
 1989 0d7c 00C0      		rjmp .L75
 1990               	.L74:
 1991               	.LSM152:
 1992 0d7e EB81      		ldd r30,Y+3
 1993 0d80 FC81      		ldd r31,Y+4
 1994 0d82 8689      		ldd r24,Z+22
 1995 0d84 80FF      		sbrs r24,0
 1996 0d86 00C0      		rjmp .L76
 1997 0d88 8E7F      		andi r24,lo8(-2)
 1998 0d8a 8260      		ori r24,lo8(2)
 1999 0d8c 868B      		std Z+22,r24
 2000 0d8e 8B81      		ldd r24,Y+3
 2001 0d90 9C81      		ldd r25,Y+4
 2002 0d92 0E94 0000 		call tcp_output
 2003 0d96 00C0      		rjmp .L98
 2004               	.L76:
 2005 0d98 8160      		ori r24,lo8(1)
 2006 0d9a AB81      		ldd r26,Y+3
 2007 0d9c BC81      		ldd r27,Y+4
 2008 0d9e 5696      		adiw r26,22
 2009 0da0 8C93      		st X,r24
 2010               	.L98:
 2011 0da2 81E0      		ldi r24,lo8(1)
 2012               	.LVL65:
 2013 0da4 00C0      		rjmp .L77
 2014               	.LVL66:
 2015               	.L44:
 2016               	.LSM153:
 2017 0da6 EB81      		ldd r30,Y+3
 2018 0da8 FC81      		ldd r31,Y+4
 2019 0daa 8689      		ldd r24,Z+22
 2020 0dac 8260      		ori r24,lo8(2)
 2021 0dae 868B      		std Z+22,r24
 2022 0db0 8B81      		ldd r24,Y+3
 2023 0db2 9C81      		ldd r25,Y+4
 2024 0db4 0E94 0000 		call tcp_output
 2025               	.LVL67:
 2026               	.LSM154:
 2027 0db8 D201      		movw r26,r4
 2028 0dba CD90      		ld r12,X+
 2029 0dbc DC90      		ld r13,X
 2030               	.LVL68:
 2031 0dbe C114      		cp r12,__zero_reg__
 2032 0dc0 D104      		cpc r13,__zero_reg__
 2033 0dc2 01F4      		brne .L78
 2034               	.LSM155:
 2035 0dc4 80E0      		ldi r24,lo8(inseg)
 2036 0dc6 90E0      		ldi r25,hi8(inseg)
 2037 0dc8 0E94 0000 		call tcp_seg_copy
 2038 0dcc F201      		movw r30,r4
 2039 0dce 9183      		std Z+1,r25
 2040 0dd0 8083      		st Z,r24
 2041 0dd2 00C0      		rjmp .L80
 2042               	.L78:
 2043               	.LSM156:
 2044 0dd4 2091 0000 		lds r18,seqno
 2045 0dd8 3091 0000 		lds r19,(seqno)+1
 2046 0ddc 4091 0000 		lds r20,(seqno)+2
 2047 0de0 5091 0000 		lds r21,(seqno)+3
 2048               	.LSM157:
 2049 0de4 3901      		movw r6,r18
 2050 0de6 4A01      		movw r8,r20
 2051 0de8 0894      		sec
 2052 0dea 611C      		adc r6,__zero_reg__
 2053 0dec 711C      		adc r7,__zero_reg__
 2054 0dee 811C      		adc r8,__zero_reg__
 2055 0df0 911C      		adc r9,__zero_reg__
 2056 0df2 AA24      		clr r10
 2057 0df4 BB24      		clr r11
 2058               	.LVL69:
 2059               	.L88:
 2060               	.LSM158:
 2061 0df6 D601      		movw r26,r12
 2062 0df8 1896      		adiw r26,8
 2063 0dfa ED91      		ld r30,X+
 2064 0dfc FC91      		ld r31,X
 2065 0dfe 1997      		sbiw r26,8+1
 2066 0e00 E480      		ldd r14,Z+4
 2067 0e02 F580      		ldd r15,Z+5
 2068 0e04 0681      		ldd r16,Z+6
 2069 0e06 1781      		ldd r17,Z+7
 2070 0e08 2E15      		cp r18,r14
 2071 0e0a 3F05      		cpc r19,r15
 2072 0e0c 4007      		cpc r20,r16
 2073 0e0e 5107      		cpc r21,r17
 2074 0e10 01F0      		breq .+2
 2075 0e12 00C0      		rjmp .L79
 2076               	.LSM159:
 2077 0e14 2091 0000 		lds r18,inseg+6
 2078 0e18 3091 0000 		lds r19,(inseg+6)+1
 2079 0e1c 1696      		adiw r26,6
 2080 0e1e 8D91      		ld r24,X+
 2081 0e20 9C91      		ld r25,X
 2082 0e22 1797      		sbiw r26,6+1
 2083 0e24 8217      		cp r24,r18
 2084 0e26 9307      		cpc r25,r19
 2085 0e28 00F0      		brlo .+2
 2086 0e2a 00C0      		rjmp .L80
 2087               	.LSM160:
 2088 0e2c 80E0      		ldi r24,lo8(inseg)
 2089 0e2e 90E0      		ldi r25,hi8(inseg)
 2090 0e30 0E94 0000 		call tcp_seg_copy
 2091 0e34 8C01      		movw r16,r24
 2092               	.LVL70:
 2093               	.LSM161:
 2094 0e36 0097      		sbiw r24,0
 2095 0e38 01F0      		breq .L81
 2096               	.LVL71:
 2097               	.LSM162:
 2098 0e3a F601      		movw r30,r12
 2099 0e3c 8081      		ld r24,Z
 2100 0e3e 9181      		ldd r25,Z+1
 2101               	.LVL72:
 2102 0e40 D801      		movw r26,r16
 2103 0e42 8D93      		st X+,r24
 2104 0e44 9C93      		st X,r25
 2105               	.LSM163:
 2106 0e46 A114      		cp r10,__zero_reg__
 2107 0e48 B104      		cpc r11,__zero_reg__
 2108 0e4a 01F0      		breq .L82
 2109               	.LSM164:
 2110 0e4c F501      		movw r30,r10
 2111 0e4e 1183      		std Z+1,r17
 2112 0e50 0083      		st Z,r16
 2113 0e52 00C0      		rjmp .L81
 2114               	.L82:
 2115               	.LSM165:
 2116 0e54 2B81      		ldd r18,Y+3
 2117 0e56 3C81      		ldd r19,Y+4
 2118 0e58 2F59      		subi r18,lo8(-(97))
 2119 0e5a 3F4F      		sbci r19,hi8(-(97))
 2120 0e5c D901      		movw r26,r18
 2121 0e5e 0D93      		st X+,r16
 2122 0e60 1C93      		st X,r17
 2123               	.LVL73:
 2124               	.L81:
 2125               	.LSM166:
 2126 0e62 C601      		movw r24,r12
 2127 0e64 0E94 0000 		call tcp_seg_free
 2128               	.LSM167:
 2129 0e68 D801      		movw r26,r16
 2130 0e6a ED91      		ld r30,X+
 2131 0e6c FC91      		ld r31,X
 2132 0e6e 1197      		sbiw r26,1
 2133 0e70 3097      		sbiw r30,0
 2134 0e72 01F4      		brne .+2
 2135 0e74 00C0      		rjmp .L80
 2136               	.LSM168:
 2137 0e76 C090 0000 		lds r12,seqno
 2138 0e7a D090 0000 		lds r13,(seqno)+1
 2139 0e7e E090 0000 		lds r14,(seqno)+2
 2140 0e82 F090 0000 		lds r15,(seqno)+3
 2141               	.LVL74:
 2142 0e86 0084      		ldd __tmp_reg__,Z+8
 2143 0e88 F185      		ldd r31,Z+9
 2144 0e8a E02D      		mov r30,__tmp_reg__
 2145 0e8c 2481      		ldd r18,Z+4
 2146 0e8e 3581      		ldd r19,Z+5
 2147 0e90 4681      		ldd r20,Z+6
 2148 0e92 5781      		ldd r21,Z+7
 2149 0e94 1696      		adiw r26,6
 2150 0e96 8D91      		ld r24,X+
 2151 0e98 9C91      		ld r25,X
 2152 0e9a 1797      		sbiw r26,6+1
 2153 0e9c A0E0      		ldi r26,lo8(0)
 2154 0e9e B0E0      		ldi r27,hi8(0)
 2155 0ea0 821B      		sub r24,r18
 2156 0ea2 930B      		sbc r25,r19
 2157 0ea4 A40B      		sbc r26,r20
 2158 0ea6 B50B      		sbc r27,r21
 2159 0ea8 8C0D      		add r24,r12
 2160 0eaa 9D1D      		adc r25,r13
 2161 0eac AE1D      		adc r26,r14
 2162 0eae BF1D      		adc r27,r15
 2163 0eb0 1816      		cp __zero_reg__,r24
 2164 0eb2 1906      		cpc __zero_reg__,r25
 2165 0eb4 1A06      		cpc __zero_reg__,r26
 2166 0eb6 1B06      		cpc __zero_reg__,r27
 2167 0eb8 04F0      		brlt .+2
 2168 0eba 00C0      		rjmp .L80
 2169               	.LSM169:
 2170 0ebc B901      		movw r22,r18
 2171 0ebe 6C19      		sub r22,r12
 2172 0ec0 7D09      		sbc r23,r13
 2173 0ec2 F801      		movw r30,r16
 2174 0ec4 00C0      		rjmp .L99
 2175               	.LVL75:
 2176               	.L79:
 2177               	.LSM170:
 2178 0ec6 A114      		cp r10,__zero_reg__
 2179 0ec8 B104      		cpc r11,__zero_reg__
 2180 0eca 01F4      		brne .L83
 2181               	.LSM171:
 2182 0ecc DA01      		movw r26,r20
 2183 0ece C901      		movw r24,r18
 2184 0ed0 8E19      		sub r24,r14
 2185 0ed2 9F09      		sbc r25,r15
 2186 0ed4 A00B      		sbc r26,r16
 2187 0ed6 B10B      		sbc r27,r17
 2188 0ed8 B7FF      		sbrs r27,7
 2189 0eda 00C0      		rjmp .L84
 2190               	.LSM172:
 2191 0edc 8091 0000 		lds r24,inseg+6
 2192 0ee0 9091 0000 		lds r25,(inseg+6)+1
 2193 0ee4 A0E0      		ldi r26,lo8(0)
 2194 0ee6 B0E0      		ldi r27,hi8(0)
 2195 0ee8 820F      		add r24,r18
 2196 0eea 931F      		adc r25,r19
 2197 0eec A41F      		adc r26,r20
 2198 0eee B51F      		adc r27,r21
 2199 0ef0 8E19      		sub r24,r14
 2200 0ef2 9F09      		sbc r25,r15
 2201 0ef4 A00B      		sbc r26,r16
 2202 0ef6 B10B      		sbc r27,r17
 2203 0ef8 1816      		cp __zero_reg__,r24
 2204 0efa 1906      		cpc __zero_reg__,r25
 2205 0efc 1A06      		cpc __zero_reg__,r26
 2206 0efe 1B06      		cpc __zero_reg__,r27
 2207 0f00 04F4      		brge .L85
 2208               	.LSM173:
 2209 0f02 B701      		movw r22,r14
 2210 0f04 621B      		sub r22,r18
 2211 0f06 730B      		sbc r23,r19
 2212 0f08 7093 0000 		sts (inseg+6)+1,r23
 2213 0f0c 6093 0000 		sts inseg+6,r22
 2214               	.LSM174:
 2215 0f10 8091 0000 		lds r24,inseg+2
 2216 0f14 9091 0000 		lds r25,(inseg+2)+1
 2217 0f18 0E94 0000 		call pbuf_realloc
 2218               	.L85:
 2219               	.LSM175:
 2220 0f1c 80E0      		ldi r24,lo8(inseg)
 2221 0f1e 90E0      		ldi r25,hi8(inseg)
 2222 0f20 0E94 0000 		call tcp_seg_copy
 2223 0f24 FC01      		movw r30,r24
 2224               	.LVL76:
 2225               	.LSM176:
 2226 0f26 0097      		sbiw r24,0
 2227 0f28 01F4      		brne .+2
 2228 0f2a 00C0      		rjmp .L80
 2229               	.LVL77:
 2230               	.LSM177:
 2231 0f2c D182      		std Z+1,r13
 2232 0f2e C082      		st Z,r12
 2233               	.LSM178:
 2234 0f30 2B81      		ldd r18,Y+3
 2235 0f32 3C81      		ldd r19,Y+4
 2236 0f34 2F59      		subi r18,lo8(-(97))
 2237 0f36 3F4F      		sbci r19,hi8(-(97))
 2238 0f38 D901      		movw r26,r18
 2239 0f3a 8D93      		st X+,r24
 2240 0f3c 9C93      		st X,r25
 2241 0f3e 00C0      		rjmp .L80
 2242               	.LVL78:
 2243               	.L83:
 2244               	.LSM179:
 2245 0f40 D501      		movw r26,r10
 2246 0f42 1896      		adiw r26,8
 2247 0f44 ED91      		ld r30,X+
 2248 0f46 FC91      		ld r31,X
 2249 0f48 1997      		sbiw r26,8+1
 2250 0f4a 8481      		ldd r24,Z+4
 2251 0f4c 9581      		ldd r25,Z+5
 2252 0f4e A681      		ldd r26,Z+6
 2253 0f50 B781      		ldd r27,Z+7
 2254 0f52 8095      		com r24
 2255 0f54 9095      		com r25
 2256 0f56 A095      		com r26
 2257 0f58 B095      		com r27
 2258 0f5a 820F      		add r24,r18
 2259 0f5c 931F      		adc r25,r19
 2260 0f5e A41F      		adc r26,r20
 2261 0f60 B51F      		adc r27,r21
 2262 0f62 B7FD      		sbrc r27,7
 2263 0f64 00C0      		rjmp .L84
 2264 0f66 D401      		movw r26,r8
 2265 0f68 C301      		movw r24,r6
 2266 0f6a 8E19      		sub r24,r14
 2267 0f6c 9F09      		sbc r25,r15
 2268 0f6e A00B      		sbc r26,r16
 2269 0f70 B10B      		sbc r27,r17
 2270 0f72 1816      		cp __zero_reg__,r24
 2271 0f74 1906      		cpc __zero_reg__,r25
 2272 0f76 1A06      		cpc __zero_reg__,r26
 2273 0f78 1B06      		cpc __zero_reg__,r27
 2274 0f7a 04F4      		brge .+2
 2275 0f7c 00C0      		rjmp .L84
 2276               	.LSM180:
 2277 0f7e 8091 0000 		lds r24,inseg+6
 2278 0f82 9091 0000 		lds r25,(inseg+6)+1
 2279 0f86 A0E0      		ldi r26,lo8(0)
 2280 0f88 B0E0      		ldi r27,hi8(0)
 2281 0f8a 820F      		add r24,r18
 2282 0f8c 931F      		adc r25,r19
 2283 0f8e A41F      		adc r26,r20
 2284 0f90 B51F      		adc r27,r21
 2285 0f92 8E19      		sub r24,r14
 2286 0f94 9F09      		sbc r25,r15
 2287 0f96 A00B      		sbc r26,r16
 2288 0f98 B10B      		sbc r27,r17
 2289 0f9a 1816      		cp __zero_reg__,r24
 2290 0f9c 1906      		cpc __zero_reg__,r25
 2291 0f9e 1A06      		cpc __zero_reg__,r26
 2292 0fa0 1B06      		cpc __zero_reg__,r27
 2293 0fa2 04F4      		brge .L86
 2294               	.LSM181:
 2295 0fa4 B701      		movw r22,r14
 2296 0fa6 621B      		sub r22,r18
 2297 0fa8 730B      		sbc r23,r19
 2298 0faa 7093 0000 		sts (inseg+6)+1,r23
 2299 0fae 6093 0000 		sts inseg+6,r22
 2300               	.LSM182:
 2301 0fb2 8091 0000 		lds r24,inseg+2
 2302 0fb6 9091 0000 		lds r25,(inseg+2)+1
 2303 0fba 0E94 0000 		call pbuf_realloc
 2304               	.L86:
 2305               	.LSM183:
 2306 0fbe 80E0      		ldi r24,lo8(inseg)
 2307 0fc0 90E0      		ldi r25,hi8(inseg)
 2308 0fc2 0E94 0000 		call tcp_seg_copy
 2309 0fc6 FC01      		movw r30,r24
 2310               	.LVL79:
 2311               	.LSM184:
 2312 0fc8 0097      		sbiw r24,0
 2313 0fca 01F4      		brne .+2
 2314 0fcc 00C0      		rjmp .L80
 2315               	.LVL80:
 2316               	.LSM185:
 2317 0fce D182      		std Z+1,r13
 2318 0fd0 C082      		st Z,r12
 2319               	.LSM186:
 2320 0fd2 D501      		movw r26,r10
 2321 0fd4 1196      		adiw r26,1
 2322 0fd6 9C93      		st X,r25
 2323 0fd8 8E93      		st -X,r24
 2324               	.LSM187:
 2325 0fda 1896      		adiw r26,8
 2326 0fdc ED91      		ld r30,X+
 2327 0fde FC91      		ld r31,X
 2328 0fe0 1997      		sbiw r26,8+1
 2329 0fe2 E480      		ldd r14,Z+4
 2330 0fe4 F580      		ldd r15,Z+5
 2331 0fe6 0681      		ldd r16,Z+6
 2332 0fe8 1781      		ldd r17,Z+7
 2333 0fea 2091 0000 		lds r18,seqno
 2334 0fee 3091 0000 		lds r19,(seqno)+1
 2335 0ff2 4091 0000 		lds r20,(seqno)+2
 2336 0ff6 5091 0000 		lds r21,(seqno)+3
 2337 0ffa 1696      		adiw r26,6
 2338 0ffc 8D91      		ld r24,X+
 2339 0ffe 9C91      		ld r25,X
 2340 1000 1797      		sbiw r26,6+1
 2341               	.LVL81:
 2342 1002 A0E0      		ldi r26,lo8(0)
 2343 1004 B0E0      		ldi r27,hi8(0)
 2344 1006 821B      		sub r24,r18
 2345 1008 930B      		sbc r25,r19
 2346 100a A40B      		sbc r26,r20
 2347 100c B50B      		sbc r27,r21
 2348 100e 8E0D      		add r24,r14
 2349 1010 9F1D      		adc r25,r15
 2350 1012 A01F      		adc r26,r16
 2351 1014 B11F      		adc r27,r17
 2352 1016 1816      		cp __zero_reg__,r24
 2353 1018 1906      		cpc __zero_reg__,r25
 2354 101a 1A06      		cpc __zero_reg__,r26
 2355 101c 1B06      		cpc __zero_reg__,r27
 2356 101e 04F0      		brlt .+2
 2357 1020 00C0      		rjmp .L80
 2358               	.LSM188:
 2359 1022 B901      		movw r22,r18
 2360 1024 6E19      		sub r22,r14
 2361 1026 7F09      		sbc r23,r15
 2362 1028 F501      		movw r30,r10
 2363 102a 00C0      		rjmp .L99
 2364               	.L84:
 2365               	.LSM189:
 2366 102c D601      		movw r26,r12
 2367 102e 8D91      		ld r24,X+
 2368 1030 9C91      		ld r25,X
 2369               	.LVL82:
 2370 1032 5601      		movw r10,r12
 2371 1034 0097      		sbiw r24,0
 2372 1036 01F0      		breq .L87
 2373 1038 6C01      		movw r12,r24
 2374 103a 00C0      		rjmp .L88
 2375               	.L87:
 2376 103c 2E19      		sub r18,r14
 2377 103e 3F09      		sbc r19,r15
 2378 1040 400B      		sbc r20,r16
 2379 1042 510B      		sbc r21,r17
 2380 1044 1216      		cp __zero_reg__,r18
 2381 1046 1306      		cpc __zero_reg__,r19
 2382 1048 1406      		cpc __zero_reg__,r20
 2383 104a 1506      		cpc __zero_reg__,r21
 2384 104c 04F0      		brlt .+2
 2385 104e 00C0      		rjmp .L80
 2386               	.LSM190:
 2387 1050 80E0      		ldi r24,lo8(inseg)
 2388 1052 90E0      		ldi r25,hi8(inseg)
 2389               	.LVL83:
 2390 1054 0E94 0000 		call tcp_seg_copy
 2391 1058 F601      		movw r30,r12
 2392 105a 9183      		std Z+1,r25
 2393 105c 8083      		st Z,r24
 2394               	.LSM191:
 2395 105e 892B      		or r24,r25
 2396 1060 01F4      		brne .+2
 2397 1062 00C0      		rjmp .L80
 2398               	.LSM192:
 2399 1064 0084      		ldd __tmp_reg__,Z+8
 2400 1066 F185      		ldd r31,Z+9
 2401 1068 E02D      		mov r30,__tmp_reg__
 2402 106a E480      		ldd r14,Z+4
 2403 106c F580      		ldd r15,Z+5
 2404 106e 0681      		ldd r16,Z+6
 2405 1070 1781      		ldd r17,Z+7
 2406 1072 2091 0000 		lds r18,seqno
 2407 1076 3091 0000 		lds r19,(seqno)+1
 2408 107a 4091 0000 		lds r20,(seqno)+2
 2409 107e 5091 0000 		lds r21,(seqno)+3
 2410 1082 D601      		movw r26,r12
 2411 1084 1696      		adiw r26,6
 2412 1086 8D91      		ld r24,X+
 2413 1088 9C91      		ld r25,X
 2414 108a 1797      		sbiw r26,6+1
 2415 108c A0E0      		ldi r26,lo8(0)
 2416 108e B0E0      		ldi r27,hi8(0)
 2417 1090 821B      		sub r24,r18
 2418 1092 930B      		sbc r25,r19
 2419 1094 A40B      		sbc r26,r20
 2420 1096 B50B      		sbc r27,r21
 2421 1098 8E0D      		add r24,r14
 2422 109a 9F1D      		adc r25,r15
 2423 109c A01F      		adc r26,r16
 2424 109e B11F      		adc r27,r17
 2425 10a0 1816      		cp __zero_reg__,r24
 2426 10a2 1906      		cpc __zero_reg__,r25
 2427 10a4 1A06      		cpc __zero_reg__,r26
 2428 10a6 1B06      		cpc __zero_reg__,r27
 2429 10a8 04F4      		brge .L80
 2430               	.LSM193:
 2431 10aa B901      		movw r22,r18
 2432 10ac 6E19      		sub r22,r14
 2433 10ae 7F09      		sbc r23,r15
 2434 10b0 F601      		movw r30,r12
 2435               	.LVL84:
 2436               	.L99:
 2437 10b2 7783      		std Z+7,r23
 2438 10b4 6683      		std Z+6,r22
 2439               	.LSM194:
 2440 10b6 8281      		ldd r24,Z+2
 2441 10b8 9381      		ldd r25,Z+3
 2442 10ba 0E94 0000 		call pbuf_realloc
 2443 10be 00C0      		rjmp .L80
 2444               	.LVL85:
 2445               	.L36:
 2446               	.LSM195:
 2447 10c0 D801      		movw r26,r16
 2448 10c2 C701      		movw r24,r14
 2449 10c4 8A19      		sub r24,r10
 2450 10c6 9B09      		sbc r25,r11
 2451 10c8 AC09      		sbc r26,r12
 2452 10ca BD09      		sbc r27,r13
 2453 10cc B7FD      		sbrc r27,7
 2454 10ce 00C0      		rjmp .L89
 2455 10d0 0894      		sec
 2456 10d2 E11C      		adc r14,__zero_reg__
 2457 10d4 F11C      		adc r15,__zero_reg__
 2458 10d6 011D      		adc r16,__zero_reg__
 2459 10d8 111D      		adc r17,__zero_reg__
 2460 10da EA18      		sub r14,r10
 2461 10dc FB08      		sbc r15,r11
 2462 10de 0C09      		sbc r16,r12
 2463 10e0 1D09      		sbc r17,r13
 2464 10e2 EB81      		ldd r30,Y+3
 2465 10e4 FC81      		ldd r31,Y+4
 2466 10e6 838D      		ldd r24,Z+27
 2467 10e8 948D      		ldd r25,Z+28
 2468 10ea A0E0      		ldi r26,lo8(0)
 2469 10ec B0E0      		ldi r27,hi8(0)
 2470 10ee E81A      		sub r14,r24
 2471 10f0 F90A      		sbc r15,r25
 2472 10f2 0A0B      		sbc r16,r26
 2473 10f4 1B0B      		sbc r17,r27
 2474 10f6 1E14      		cp __zero_reg__,r14
 2475 10f8 1F04      		cpc __zero_reg__,r15
 2476 10fa 1006      		cpc __zero_reg__,r16
 2477 10fc 1106      		cpc __zero_reg__,r17
 2478 10fe 04F4      		brge .L80
 2479               	.LVL86:
 2480               	.L89:
 2481               	.LSM196:
 2482 1100 AB81      		ldd r26,Y+3
 2483 1102 BC81      		ldd r27,Y+4
 2484 1104 5696      		adiw r26,22
 2485 1106 8C91      		ld r24,X
 2486 1108 5697      		sbiw r26,22
 2487 110a 8260      		ori r24,lo8(2)
 2488 110c 5696      		adiw r26,22
 2489 110e 8C93      		st X,r24
 2490 1110 8B81      		ldd r24,Y+3
 2491 1112 9C81      		ldd r25,Y+4
 2492 1114 0E94 0000 		call tcp_output
 2493               	.LVL87:
 2494               	.L80:
 2495 1118 80E0      		ldi r24,lo8(0)
 2496               	.LVL88:
 2497               	.L77:
 2498               	.LVL89:
 2499               	/* epilogue start */
 2500               	.LSM197:
 2501 111a 0F90      		pop __tmp_reg__
 2502 111c 0F90      		pop __tmp_reg__
 2503 111e 0F90      		pop __tmp_reg__
 2504 1120 0F90      		pop __tmp_reg__
 2505 1122 CF91      		pop r28
 2506 1124 DF91      		pop r29
 2507 1126 1F91      		pop r17
 2508 1128 0F91      		pop r16
 2509               	.LVL90:
 2510 112a FF90      		pop r15
 2511 112c EF90      		pop r14
 2512 112e DF90      		pop r13
 2513 1130 CF90      		pop r12
 2514               	.LVL91:
 2515 1132 BF90      		pop r11
 2516 1134 AF90      		pop r10
 2517               	.LVL92:
 2518 1136 9F90      		pop r9
 2519 1138 8F90      		pop r8
 2520 113a 7F90      		pop r7
 2521 113c 6F90      		pop r6
 2522 113e 5F90      		pop r5
 2523 1140 4F90      		pop r4
 2524 1142 3F90      		pop r3
 2525 1144 2F90      		pop r2
 2526 1146 0895      		ret
 2527               	.LFE6:
 2529               		.section	.text.tcp_input,"ax",@progbits
 2530               	.global	tcp_input
 2532               	tcp_input:
 2533               	.LFB2:
 2534               	.LSM198:
 2535               	.LVL93:
 2536 0000 2F92      		push r2
 2537 0002 3F92      		push r3
 2538 0004 4F92      		push r4
 2539 0006 5F92      		push r5
 2540 0008 6F92      		push r6
 2541 000a 7F92      		push r7
 2542 000c 8F92      		push r8
 2543 000e 9F92      		push r9
 2544 0010 AF92      		push r10
 2545 0012 BF92      		push r11
 2546 0014 CF92      		push r12
 2547 0016 DF92      		push r13
 2548 0018 EF92      		push r14
 2549 001a FF92      		push r15
 2550 001c 0F93      		push r16
 2551 001e 1F93      		push r17
 2552 0020 DF93      		push r29
 2553 0022 CF93      		push r28
 2554 0024 00D0      		rcall .
 2555 0026 00D0      		rcall .
 2556 0028 CDB7      		in r28,__SP_L__
 2557 002a DEB7      		in r29,__SP_H__
 2558               	/* prologue: function */
 2559               	/* frame size = 4 */
 2560 002c 3C01      		movw r6,r24
 2561 002e 7B01      		movw r14,r22
 2562               	.LSM199:
 2563 0030 8091 0000 		lds r24,lwip_stats+134
 2564 0034 9091 0000 		lds r25,(lwip_stats+134)+1
 2565               	.LVL94:
 2566 0038 0196      		adiw r24,1
 2567 003a 9093 0000 		sts (lwip_stats+134)+1,r25
 2568 003e 8093 0000 		sts lwip_stats+134,r24
 2569               	.LSM200:
 2570 0042 D301      		movw r26,r6
 2571 0044 1296      		adiw r26,2
 2572 0046 0D91      		ld r16,X+
 2573 0048 1C91      		ld r17,X
 2574 004a 1397      		sbiw r26,2+1
 2575 004c 1093 0000 		sts (iphdr)+1,r17
 2576 0050 0093 0000 		sts iphdr,r16
 2577               	.LSM201:
 2578 0054 F801      		movw r30,r16
 2579 0056 8081      		ld r24,Z
 2580 0058 9181      		ldd r25,Z+1
 2581 005a 0E94 0000 		call ntohs
 2582               	.LVL95:
 2583 005e 292F      		mov r18,r25
 2584 0060 30E0      		ldi r19,lo8(0)
 2585 0062 2F70      		andi r18,lo8(15)
 2586 0064 3070      		andi r19,hi8(15)
 2587 0066 220F      		lsl r18
 2588 0068 331F      		rol r19
 2589 006a 220F      		lsl r18
 2590 006c 331F      		rol r19
 2591 006e 020F      		add r16,r18
 2592 0070 131F      		adc r17,r19
 2593 0072 1093 0000 		sts (tcphdr)+1,r17
 2594 0076 0093 0000 		sts tcphdr,r16
 2595               	.LSM202:
 2596 007a E091 0000 		lds r30,iphdr
 2597 007e F091 0000 		lds r31,(iphdr)+1
 2598 0082 8081      		ld r24,Z
 2599 0084 9181      		ldd r25,Z+1
 2600 0086 0E94 0000 		call ntohs
 2601 008a 692F      		mov r22,r25
 2602 008c 70E0      		ldi r23,lo8(0)
 2603 008e 6F70      		andi r22,lo8(15)
 2604 0090 7070      		andi r23,hi8(15)
 2605 0092 660F      		lsl r22
 2606 0094 771F      		rol r23
 2607 0096 660F      		lsl r22
 2608 0098 771F      		rol r23
 2609 009a 7095      		com r23
 2610 009c 6195      		neg r22
 2611 009e 7F4F      		sbci r23,lo8(-1)
 2612 00a0 C301      		movw r24,r6
 2613 00a2 0E94 0000 		call pbuf_header
 2614 00a6 8823      		tst r24
 2615 00a8 01F0      		breq .+2
 2616 00aa 00C0      		rjmp .L200
 2617 00ac D301      		movw r26,r6
 2618 00ae 1496      		adiw r26,4
 2619 00b0 8D91      		ld r24,X+
 2620 00b2 9C91      		ld r25,X
 2621 00b4 1597      		sbiw r26,4+1
 2622 00b6 4497      		sbiw r24,20
 2623 00b8 00F4      		brsh .+2
 2624 00ba 00C0      		rjmp .L200
 2625               	.L102:
 2626               	.LSM203:
 2627 00bc 8091 0000 		lds r24,iphdr
 2628 00c0 9091 0000 		lds r25,(iphdr)+1
 2629 00c4 4096      		adiw r24,16
 2630 00c6 B701      		movw r22,r14
 2631 00c8 0E94 0000 		call ip_addr_isbroadcast
 2632 00cc 8823      		tst r24
 2633 00ce 01F4      		brne .L104
 2634 00d0 E091 0000 		lds r30,iphdr
 2635 00d4 F091 0000 		lds r31,(iphdr)+1
 2636 00d8 E088      		ldd r14,Z+16
 2637 00da F188      		ldd r15,Z+17
 2638 00dc 0289      		ldd r16,Z+18
 2639 00de 1389      		ldd r17,Z+19
 2640               	.LVL96:
 2641 00e0 60E0      		ldi r22,lo8(-268435456)
 2642 00e2 70E0      		ldi r23,hi8(-268435456)
 2643 00e4 80E0      		ldi r24,hlo8(-268435456)
 2644 00e6 90EF      		ldi r25,hhi8(-268435456)
 2645 00e8 0E94 0000 		call ntohl
 2646 00ec 5B01      		movw r10,r22
 2647 00ee 6C01      		movw r12,r24
 2648 00f0 60E0      		ldi r22,lo8(-536870912)
 2649 00f2 70E0      		ldi r23,hi8(-536870912)
 2650 00f4 80E0      		ldi r24,hlo8(-536870912)
 2651 00f6 90EE      		ldi r25,hhi8(-536870912)
 2652 00f8 0E94 0000 		call ntohl
 2653 00fc EA20      		and r14,r10
 2654 00fe FB20      		and r15,r11
 2655 0100 0C21      		and r16,r12
 2656 0102 1D21      		and r17,r13
 2657 0104 E616      		cp r14,r22
 2658 0106 F706      		cpc r15,r23
 2659 0108 0807      		cpc r16,r24
 2660 010a 1907      		cpc r17,r25
 2661 010c 01F4      		brne .L105
 2662               	.LVL97:
 2663               	.L104:
 2664               	.LSM204:
 2665 010e 8091 0000 		lds r24,lwip_stats+148
 2666 0112 9091 0000 		lds r25,(lwip_stats+148)+1
 2667 0116 0196      		adiw r24,1
 2668 0118 9093 0000 		sts (lwip_stats+148)+1,r25
 2669 011c 8093 0000 		sts lwip_stats+148,r24
 2670 0120 00C0      		rjmp .L194
 2671               	.LVL98:
 2672               	.L105:
 2673               	.LSM205:
 2674 0122 6091 0000 		lds r22,iphdr
 2675 0126 7091 0000 		lds r23,(iphdr)+1
 2676 012a AB01      		movw r20,r22
 2677 012c 405F      		subi r20,lo8(-(16))
 2678 012e 5F4F      		sbci r21,hi8(-(16))
 2679 0130 F301      		movw r30,r6
 2680 0132 0481      		ldd r16,Z+4
 2681 0134 1581      		ldd r17,Z+5
 2682 0136 C301      		movw r24,r6
 2683 0138 645F      		subi r22,lo8(-(12))
 2684 013a 7F4F      		sbci r23,hi8(-(12))
 2685 013c 26E0      		ldi r18,lo8(6)
 2686 013e 0E94 0000 		call inet_chksum_pseudo
 2687 0142 892B      		or r24,r25
 2688 0144 01F0      		breq .L106
 2689               	.LSM206:
 2690 0146 8091 0000 		lds r24,lwip_stats+140
 2691 014a 9091 0000 		lds r25,(lwip_stats+140)+1
 2692 014e 0196      		adiw r24,1
 2693 0150 9093 0000 		sts (lwip_stats+140)+1,r25
 2694 0154 8093 0000 		sts lwip_stats+140,r24
 2695 0158 00C0      		rjmp .L194
 2696               	.L106:
 2697               	.LSM207:
 2698 015a E091 0000 		lds r30,tcphdr
 2699 015e F091 0000 		lds r31,(tcphdr)+1
 2700 0162 8485      		ldd r24,Z+12
 2701 0164 9585      		ldd r25,Z+13
 2702 0166 0E94 0000 		call ntohs
 2703               	.LSM208:
 2704 016a 692F      		mov r22,r25
 2705 016c 6295      		swap r22
 2706 016e 6F70      		andi r22,lo8(15)
 2707 0170 70E0      		ldi r23,lo8(0)
 2708 0172 660F      		lsl r22
 2709 0174 771F      		rol r23
 2710 0176 660F      		lsl r22
 2711 0178 771F      		rol r23
 2712 017a 7095      		com r23
 2713 017c 6195      		neg r22
 2714 017e 7F4F      		sbci r23,lo8(-1)
 2715 0180 C301      		movw r24,r6
 2716 0182 0E94 0000 		call pbuf_header
 2717 0186 8823      		tst r24
 2718 0188 01F0      		breq .L107
 2719               	.LVL99:
 2720               	.L200:
 2721               	.LSM209:
 2722 018a 8091 0000 		lds r24,lwip_stats+142
 2723 018e 9091 0000 		lds r25,(lwip_stats+142)+1
 2724 0192 0196      		adiw r24,1
 2725 0194 9093 0000 		sts (lwip_stats+142)+1,r25
 2726 0198 8093 0000 		sts lwip_stats+142,r24
 2727 019c 00C0      		rjmp .L194
 2728               	.LVL100:
 2729               	.L107:
 2730               	.LSM210:
 2731 019e 0091 0000 		lds r16,tcphdr
 2732 01a2 1091 0000 		lds r17,(tcphdr)+1
 2733 01a6 D801      		movw r26,r16
 2734 01a8 8D91      		ld r24,X+
 2735 01aa 9C91      		ld r25,X
 2736 01ac 0E94 0000 		call ntohs
 2737 01b0 F801      		movw r30,r16
 2738 01b2 9183      		std Z+1,r25
 2739 01b4 8083      		st Z,r24
 2740               	.LSM211:
 2741 01b6 0091 0000 		lds r16,tcphdr
 2742 01ba 1091 0000 		lds r17,(tcphdr)+1
 2743 01be D801      		movw r26,r16
 2744 01c0 1296      		adiw r26,2
 2745 01c2 8D91      		ld r24,X+
 2746 01c4 9C91      		ld r25,X
 2747 01c6 1397      		sbiw r26,2+1
 2748 01c8 0E94 0000 		call ntohs
 2749 01cc F801      		movw r30,r16
 2750 01ce 9383      		std Z+3,r25
 2751 01d0 8283      		std Z+2,r24
 2752               	.LSM212:
 2753 01d2 0091 0000 		lds r16,tcphdr
 2754 01d6 1091 0000 		lds r17,(tcphdr)+1
 2755 01da D801      		movw r26,r16
 2756 01dc 1496      		adiw r26,4
 2757 01de 6D91      		ld r22,X+
 2758 01e0 7D91      		ld r23,X+
 2759 01e2 8D91      		ld r24,X+
 2760 01e4 9C91      		ld r25,X
 2761 01e6 1797      		sbiw r26,4+3
 2762 01e8 0E94 0000 		call ntohl
 2763 01ec F801      		movw r30,r16
 2764 01ee 6483      		std Z+4,r22
 2765 01f0 7583      		std Z+5,r23
 2766 01f2 8683      		std Z+6,r24
 2767 01f4 9783      		std Z+7,r25
 2768 01f6 6093 0000 		sts seqno,r22
 2769 01fa 7093 0000 		sts (seqno)+1,r23
 2770 01fe 8093 0000 		sts (seqno)+2,r24
 2771 0202 9093 0000 		sts (seqno)+3,r25
 2772               	.LSM213:
 2773 0206 0091 0000 		lds r16,tcphdr
 2774 020a 1091 0000 		lds r17,(tcphdr)+1
 2775 020e D801      		movw r26,r16
 2776 0210 1896      		adiw r26,8
 2777 0212 6D91      		ld r22,X+
 2778 0214 7D91      		ld r23,X+
 2779 0216 8D91      		ld r24,X+
 2780 0218 9C91      		ld r25,X
 2781 021a 1B97      		sbiw r26,8+3
 2782 021c 0E94 0000 		call ntohl
 2783 0220 F801      		movw r30,r16
 2784 0222 6087      		std Z+8,r22
 2785 0224 7187      		std Z+9,r23
 2786 0226 8287      		std Z+10,r24
 2787 0228 9387      		std Z+11,r25
 2788 022a 6093 0000 		sts ackno,r22
 2789 022e 7093 0000 		sts (ackno)+1,r23
 2790 0232 8093 0000 		sts (ackno)+2,r24
 2791 0236 9093 0000 		sts (ackno)+3,r25
 2792               	.LSM214:
 2793 023a 0091 0000 		lds r16,tcphdr
 2794 023e 1091 0000 		lds r17,(tcphdr)+1
 2795 0242 D801      		movw r26,r16
 2796 0244 1E96      		adiw r26,14
 2797 0246 8D91      		ld r24,X+
 2798 0248 9C91      		ld r25,X
 2799 024a 1F97      		sbiw r26,14+1
 2800 024c 0E94 0000 		call ntohs
 2801 0250 F801      		movw r30,r16
 2802 0252 9787      		std Z+15,r25
 2803 0254 8687      		std Z+14,r24
 2804               	.LSM215:
 2805 0256 E091 0000 		lds r30,tcphdr
 2806 025a F091 0000 		lds r31,(tcphdr)+1
 2807 025e 8485      		ldd r24,Z+12
 2808 0260 9585      		ldd r25,Z+13
 2809 0262 0E94 0000 		call ntohs
 2810 0266 8F73      		andi r24,lo8(63)
 2811 0268 8093 0000 		sts flags,r24
 2812               	.LSM216:
 2813 026c D301      		movw r26,r6
 2814 026e 1496      		adiw r26,4
 2815 0270 2D91      		ld r18,X+
 2816 0272 3C91      		ld r19,X
 2817 0274 1597      		sbiw r26,4+1
 2818 0276 90E0      		ldi r25,lo8(0)
 2819 0278 80FF      		sbrs r24,0
 2820 027a 00C0      		rjmp .L108
 2821 027c 81E0      		ldi r24,lo8(1)
 2822 027e 90E0      		ldi r25,hi8(1)
 2823 0280 00C0      		rjmp .L109
 2824               	.L108:
 2825 0282 9695      		lsr r25
 2826 0284 8795      		ror r24
 2827 0286 8170      		andi r24,lo8(1)
 2828 0288 9070      		andi r25,hi8(1)
 2829               	.L109:
 2830 028a 6C01      		movw r12,r24
 2831 028c C20E      		add r12,r18
 2832 028e D31E      		adc r13,r19
 2833 0290 D092 0000 		sts (tcplen)+1,r13
 2834 0294 C092 0000 		sts tcplen,r12
 2835               	.LSM217:
 2836 0298 8090 0000 		lds r8,tcp_active_pcbs
 2837 029c 9090 0000 		lds r9,(tcp_active_pcbs)+1
 2838               	.LVL101:
 2839               	.LSM218:
 2840 02a0 6091 0000 		lds r22,tcphdr
 2841 02a4 7091 0000 		lds r23,(tcphdr)+1
 2842 02a8 E090 0000 		lds r14,iphdr
 2843 02ac F090 0000 		lds r15,(iphdr)+1
 2844 02b0 E0E0      		ldi r30,lo8(0)
 2845 02b2 F0E0      		ldi r31,hi8(0)
 2846               	.LVL102:
 2847 02b4 00C0      		rjmp .L110
 2848               	.LVL103:
 2849               	.L113:
 2850               	.LSM219:
 2851 02b6 D401      		movw r26,r8
 2852 02b8 5496      		adiw r26,20
 2853 02ba 2D91      		ld r18,X+
 2854 02bc 3C91      		ld r19,X
 2855 02be 5597      		sbiw r26,20+1
 2856 02c0 DB01      		movw r26,r22
 2857 02c2 8D91      		ld r24,X+
 2858 02c4 9C91      		ld r25,X
 2859 02c6 2817      		cp r18,r24
 2860 02c8 3907      		cpc r19,r25
 2861 02ca 01F0      		breq .+2
 2862 02cc 00C0      		rjmp .L111
 2863               	.LSM220:
 2864 02ce D401      		movw r26,r8
 2865 02d0 5296      		adiw r26,18
 2866 02d2 2D91      		ld r18,X+
 2867 02d4 3C91      		ld r19,X
 2868 02d6 5397      		sbiw r26,18+1
 2869 02d8 DB01      		movw r26,r22
 2870 02da 1296      		adiw r26,2
 2871 02dc 8D91      		ld r24,X+
 2872 02de 9C91      		ld r25,X
 2873 02e0 1397      		sbiw r26,2+1
 2874 02e2 2817      		cp r18,r24
 2875 02e4 3907      		cpc r19,r25
 2876 02e6 01F4      		brne .L111
 2877 02e8 D401      		movw r26,r8
 2878 02ea 1496      		adiw r26,4
 2879 02ec 2D91      		ld r18,X+
 2880 02ee 3D91      		ld r19,X+
 2881 02f0 4D91      		ld r20,X+
 2882 02f2 5C91      		ld r21,X
 2883 02f4 1797      		sbiw r26,4+3
 2884 02f6 D701      		movw r26,r14
 2885 02f8 1C96      		adiw r26,12
 2886 02fa 2D90      		ld r2,X+
 2887 02fc 3D90      		ld r3,X+
 2888 02fe 4D90      		ld r4,X+
 2889 0300 5C90      		ld r5,X
 2890 0302 1F97      		sbiw r26,12+3
 2891 0304 2215      		cp r18,r2
 2892 0306 3305      		cpc r19,r3
 2893 0308 4405      		cpc r20,r4
 2894 030a 5505      		cpc r21,r5
 2895 030c 01F4      		brne .L111
 2896 030e D401      		movw r26,r8
 2897 0310 2D91      		ld r18,X+
 2898 0312 3D91      		ld r19,X+
 2899 0314 4D91      		ld r20,X+
 2900 0316 5C91      		ld r21,X
 2901 0318 D701      		movw r26,r14
 2902 031a 5096      		adiw r26,16
 2903 031c 2D90      		ld r2,X+
 2904 031e 3D90      		ld r3,X+
 2905 0320 4D90      		ld r4,X+
 2906 0322 5C90      		ld r5,X
 2907 0324 5397      		sbiw r26,16+3
 2908 0326 2215      		cp r18,r2
 2909 0328 3305      		cpc r19,r3
 2910 032a 4405      		cpc r20,r4
 2911 032c 5505      		cpc r21,r5
 2912 032e 01F4      		brne .L111
 2913               	.LSM221:
 2914 0330 3097      		sbiw r30,0
 2915 0332 01F4      		brne .+2
 2916 0334 00C0      		rjmp .L112
 2917               	.LSM222:
 2918 0336 D401      		movw r26,r8
 2919 0338 1C96      		adiw r26,12
 2920 033a 8D91      		ld r24,X+
 2921 033c 9C91      		ld r25,X
 2922 033e 1D97      		sbiw r26,12+1
 2923 0340 9587      		std Z+13,r25
 2924 0342 8487      		std Z+12,r24
 2925               	.LSM223:
 2926 0344 8091 0000 		lds r24,tcp_active_pcbs
 2927 0348 9091 0000 		lds r25,(tcp_active_pcbs)+1
 2928 034c 1D96      		adiw r26,12+1
 2929 034e 9C93      		st X,r25
 2930 0350 8E93      		st -X,r24
 2931 0352 1C97      		sbiw r26,12
 2932               	.LSM224:
 2933 0354 9092 0000 		sts (tcp_active_pcbs)+1,r9
 2934 0358 8092 0000 		sts tcp_active_pcbs,r8
 2935 035c 00C0      		rjmp .L112
 2936               	.L111:
 2937               	.LSM225:
 2938 035e F401      		movw r30,r8
 2939 0360 8485      		ldd r24,Z+12
 2940               	.LVL104:
 2941 0362 9585      		ldd r25,Z+13
 2942 0364 9C01      		movw r18,r24
 2943               	.LVL105:
 2944 0366 4901      		movw r8,r18
 2945               	.LVL106:
 2946               	.L110:
 2947 0368 8114      		cp r8,__zero_reg__
 2948 036a 9104      		cpc r9,__zero_reg__
 2949 036c 01F0      		breq .+2
 2950 036e 00C0      		rjmp .L113
 2951 0370 00C0      		rjmp .L205
 2952               	.LVL107:
 2953               	.L118:
 2954               	.LSM226:
 2955 0372 F801      		movw r30,r16
 2956               	.LVL108:
 2957 0374 2489      		ldd r18,Z+20
 2958 0376 3589      		ldd r19,Z+21
 2959 0378 DB01      		movw r26,r22
 2960 037a 8D91      		ld r24,X+
 2961 037c 9C91      		ld r25,X
 2962 037e 1197      		sbiw r26,1
 2963 0380 2817      		cp r18,r24
 2964 0382 3907      		cpc r19,r25
 2965 0384 01F0      		breq .+2
 2966 0386 00C0      		rjmp .L115
 2967 0388 2289      		ldd r18,Z+18
 2968 038a 3389      		ldd r19,Z+19
 2969 038c 1296      		adiw r26,2
 2970 038e 8D91      		ld r24,X+
 2971 0390 9C91      		ld r25,X
 2972 0392 1397      		sbiw r26,2+1
 2973 0394 2817      		cp r18,r24
 2974 0396 3907      		cpc r19,r25
 2975 0398 01F0      		breq .+2
 2976 039a 00C0      		rjmp .L115
 2977 039c 2481      		ldd r18,Z+4
 2978 039e 3581      		ldd r19,Z+5
 2979 03a0 4681      		ldd r20,Z+6
 2980 03a2 5781      		ldd r21,Z+7
 2981 03a4 F701      		movw r30,r14
 2982 03a6 8485      		ldd r24,Z+12
 2983 03a8 9585      		ldd r25,Z+13
 2984 03aa A685      		ldd r26,Z+14
 2985 03ac B785      		ldd r27,Z+15
 2986 03ae 2817      		cp r18,r24
 2987 03b0 3907      		cpc r19,r25
 2988 03b2 4A07      		cpc r20,r26
 2989 03b4 5B07      		cpc r21,r27
 2990 03b6 01F0      		breq .+2
 2991 03b8 00C0      		rjmp .L115
 2992 03ba D801      		movw r26,r16
 2993 03bc 2D91      		ld r18,X+
 2994 03be 3D91      		ld r19,X+
 2995 03c0 4D91      		ld r20,X+
 2996 03c2 5C91      		ld r21,X
 2997 03c4 8089      		ldd r24,Z+16
 2998 03c6 9189      		ldd r25,Z+17
 2999 03c8 A289      		ldd r26,Z+18
 3000 03ca B389      		ldd r27,Z+19
 3001 03cc 2817      		cp r18,r24
 3002 03ce 3907      		cpc r19,r25
 3003 03d0 4A07      		cpc r20,r26
 3004 03d2 5B07      		cpc r21,r27
 3005 03d4 01F4      		brne .L115
 3006               	.LBB11:
 3007               	.LBB12:
 3008               	.LSM227:
 3009 03d6 9601      		movw r18,r12
 3010 03d8 40E0      		ldi r20,lo8(0)
 3011 03da 50E0      		ldi r21,hi8(0)
 3012 03dc 8091 0000 		lds r24,seqno
 3013 03e0 9091 0000 		lds r25,(seqno)+1
 3014 03e4 A091 0000 		lds r26,(seqno)+2
 3015 03e8 B091 0000 		lds r27,(seqno)+3
 3016 03ec 280F      		add r18,r24
 3017 03ee 391F      		adc r19,r25
 3018 03f0 4A1F      		adc r20,r26
 3019 03f2 5B1F      		adc r21,r27
 3020 03f4 F801      		movw r30,r16
 3021 03f6 8789      		ldd r24,Z+23
 3022 03f8 908D      		ldd r25,Z+24
 3023 03fa A18D      		ldd r26,Z+25
 3024 03fc B28D      		ldd r27,Z+26
 3025 03fe 6901      		movw r12,r18
 3026 0400 7A01      		movw r14,r20
 3027 0402 C81A      		sub r12,r24
 3028 0404 D90A      		sbc r13,r25
 3029 0406 EA0A      		sbc r14,r26
 3030 0408 FB0A      		sbc r15,r27
 3031 040a 1C14      		cp __zero_reg__,r12
 3032 040c 1D04      		cpc __zero_reg__,r13
 3033 040e 1E04      		cpc __zero_reg__,r14
 3034 0410 1F04      		cpc __zero_reg__,r15
 3035 0412 04F4      		brge .L116
 3036               	.LSM228:
 3037 0414 D801      		movw r26,r16
 3038 0416 5796      		adiw r26,23
 3039 0418 2D93      		st X+,r18
 3040 041a 3D93      		st X+,r19
 3041 041c 4D93      		st X+,r20
 3042 041e 5C93      		st X,r21
 3043 0420 5A97      		sbiw r26,23+3
 3044               	.L116:
 3045               	.LSM229:
 3046 0422 8091 0000 		lds r24,tcplen
 3047 0426 9091 0000 		lds r25,(tcplen)+1
 3048 042a 892B      		or r24,r25
 3049 042c 01F0      		breq .L117
 3050               	.LSM230:
 3051 042e F801      		movw r30,r16
 3052 0430 8689      		ldd r24,Z+22
 3053 0432 8260      		ori r24,lo8(2)
 3054 0434 868B      		std Z+22,r24
 3055 0436 C801      		movw r24,r16
 3056 0438 0E94 0000 		call tcp_output
 3057               	.LVL109:
 3058               	.L117:
 3059               	.LSM231:
 3060 043c C801      		movw r24,r16
 3061 043e 00C0      		rjmp .L198
 3062               	.L115:
 3063               	.LBE12:
 3064               	.LBE11:
 3065               	.LSM232:
 3066 0440 D801      		movw r26,r16
 3067 0442 1C96      		adiw r26,12
 3068 0444 0D91      		ld r16,X+
 3069 0446 1C91      		ld r17,X
 3070 0448 1D97      		sbiw r26,12+1
 3071               	.LVL110:
 3072               	.L190:
 3073 044a 0115      		cp r16,__zero_reg__
 3074 044c 1105      		cpc r17,__zero_reg__
 3075 044e 01F0      		breq .+2
 3076 0450 00C0      		rjmp .L118
 3077               	.LSM233:
 3078 0452 0091 0000 		lds r16,tcp_listen_pcbs
 3079 0456 1091 0000 		lds r17,(tcp_listen_pcbs)+1
 3080               	.LVL111:
 3081 045a E0E0      		ldi r30,lo8(0)
 3082 045c F0E0      		ldi r31,hi8(0)
 3083               	.LVL112:
 3084 045e 00C0      		rjmp .L119
 3085               	.L130:
 3086               	.LSM234:
 3087 0460 D801      		movw r26,r16
 3088 0462 2D91      		ld r18,X+
 3089 0464 3D91      		ld r19,X+
 3090 0466 4D91      		ld r20,X+
 3091 0468 5C91      		ld r21,X
 3092 046a 2115      		cp r18,__zero_reg__
 3093 046c 3105      		cpc r19,__zero_reg__
 3094 046e 4105      		cpc r20,__zero_reg__
 3095 0470 5105      		cpc r21,__zero_reg__
 3096 0472 01F0      		breq .L120
 3097 0474 D701      		movw r26,r14
 3098 0476 5096      		adiw r26,16
 3099 0478 AD90      		ld r10,X+
 3100 047a BD90      		ld r11,X+
 3101 047c CD90      		ld r12,X+
 3102 047e DC90      		ld r13,X
 3103 0480 5397      		sbiw r26,16+3
 3104 0482 2A15      		cp r18,r10
 3105 0484 3B05      		cpc r19,r11
 3106 0486 4C05      		cpc r20,r12
 3107 0488 5D05      		cpc r21,r13
 3108 048a 01F0      		breq .+2
 3109 048c 00C0      		rjmp .L121
 3110               	.L120:
 3111 048e D801      		movw r26,r16
 3112 0490 5296      		adiw r26,18
 3113 0492 2D91      		ld r18,X+
 3114 0494 3C91      		ld r19,X
 3115 0496 5397      		sbiw r26,18+1
 3116 0498 DB01      		movw r26,r22
 3117 049a 1296      		adiw r26,2
 3118 049c 8D91      		ld r24,X+
 3119 049e 9C91      		ld r25,X
 3120 04a0 1397      		sbiw r26,2+1
 3121 04a2 2817      		cp r18,r24
 3122 04a4 3907      		cpc r19,r25
 3123 04a6 01F0      		breq .+2
 3124 04a8 00C0      		rjmp .L121
 3125               	.LSM235:
 3126 04aa 3097      		sbiw r30,0
 3127 04ac 01F0      		breq .L122
 3128               	.LSM236:
 3129 04ae D801      		movw r26,r16
 3130 04b0 1C96      		adiw r26,12
 3131 04b2 8D91      		ld r24,X+
 3132 04b4 9C91      		ld r25,X
 3133 04b6 1D97      		sbiw r26,12+1
 3134 04b8 9587      		std Z+13,r25
 3135 04ba 8487      		std Z+12,r24
 3136               	.LSM237:
 3137 04bc 8091 0000 		lds r24,tcp_listen_pcbs
 3138 04c0 9091 0000 		lds r25,(tcp_listen_pcbs)+1
 3139 04c4 1D96      		adiw r26,12+1
 3140 04c6 9C93      		st X,r25
 3141 04c8 8E93      		st -X,r24
 3142 04ca 1C97      		sbiw r26,12
 3143               	.LSM238:
 3144 04cc 1093 0000 		sts (tcp_listen_pcbs)+1,r17
 3145 04d0 0093 0000 		sts tcp_listen_pcbs,r16
 3146               	.L122:
 3147               	.LBB13:
 3148               	.LBB14:
 3149               	.LSM239:
 3150 04d4 8091 0000 		lds r24,flags
 3151 04d8 84FF      		sbrs r24,4
 3152 04da 00C0      		rjmp .L123
 3153               	.LSM240:
 3154 04dc 0091 0000 		lds r16,iphdr
 3155 04e0 1091 0000 		lds r17,(iphdr)+1
 3156               	.LVL113:
 3157 04e4 E091 0000 		lds r30,tcphdr
 3158 04e8 F091 0000 		lds r31,(tcphdr)+1
 3159               	.LVL114:
 3160 04ec 6091 0000 		lds r22,ackno
 3161 04f0 7091 0000 		lds r23,(ackno)+1
 3162 04f4 8091 0000 		lds r24,(ackno)+2
 3163 04f8 9091 0000 		lds r25,(ackno)+3
 3164 04fc 6F5F      		subi r22,lo8(-(1))
 3165 04fe 7F4F      		sbci r23,hi8(-(1))
 3166 0500 8F4F      		sbci r24,hlo8(-(1))
 3167 0502 9F4F      		sbci r25,hhi8(-(1))
 3168 0504 00C0      		rjmp .L199
 3169               	.LVL115:
 3170               	.L123:
 3171               	.LSM241:
 3172 0506 81FF      		sbrs r24,1
 3173 0508 00C0      		rjmp .L189
 3174               	.LBE14:
 3175               	.LSM242:
 3176 050a F801      		movw r30,r16
 3177               	.LVL116:
 3178 050c 8785      		ldd r24,Z+15
 3179 050e 0E94 0000 		call tcp_alloc
 3180               	.LVL117:
 3181 0512 5C01      		movw r10,r24
 3182               	.LVL118:
 3183               	.LBB15:
 3184               	.LSM243:
 3185 0514 0097      		sbiw r24,0
 3186 0516 01F4      		brne .L125
 3187               	.LVL119:
 3188               	.LSM244:
 3189 0518 8091 0000 		lds r24,lwip_stats+144
 3190 051c 9091 0000 		lds r25,(lwip_stats+144)+1
 3191               	.LVL120:
 3192 0520 0196      		adiw r24,1
 3193 0522 9093 0000 		sts (lwip_stats+144)+1,r25
 3194 0526 8093 0000 		sts lwip_stats+144,r24
 3195 052a 00C0      		rjmp .L189
 3196               	.LVL121:
 3197               	.L125:
 3198               	.LSM245:
 3199 052c E091 0000 		lds r30,iphdr
 3200 0530 F091 0000 		lds r31,(iphdr)+1
 3201 0534 CF01      		movw r24,r30
 3202               	.LVL122:
 3203 0536 4096      		adiw r24,16
 3204 0538 01F4      		brne .L126
 3205 053a 80E0      		ldi r24,lo8(0)
 3206 053c 90E0      		ldi r25,hi8(0)
 3207 053e A0E0      		ldi r26,hlo8(0)
 3208 0540 B0E0      		ldi r27,hhi8(0)
 3209 0542 00C0      		rjmp .L127
 3210               	.L126:
 3211 0544 8089      		ldd r24,Z+16
 3212 0546 9189      		ldd r25,Z+17
 3213 0548 A289      		ldd r26,Z+18
 3214 054a B389      		ldd r27,Z+19
 3215               	.L127:
 3216 054c F501      		movw r30,r10
 3217 054e 8083      		st Z,r24
 3218 0550 9183      		std Z+1,r25
 3219 0552 A283      		std Z+2,r26
 3220 0554 B383      		std Z+3,r27
 3221               	.LSM246:
 3222 0556 D801      		movw r26,r16
 3223 0558 5296      		adiw r26,18
 3224 055a 8D91      		ld r24,X+
 3225 055c 9C91      		ld r25,X
 3226 055e 5397      		sbiw r26,18+1
 3227 0560 938B      		std Z+19,r25
 3228 0562 828B      		std Z+18,r24
 3229               	.LSM247:
 3230 0564 E091 0000 		lds r30,iphdr
 3231 0568 F091 0000 		lds r31,(iphdr)+1
 3232 056c CF01      		movw r24,r30
 3233 056e 0C96      		adiw r24,12
 3234 0570 01F4      		brne .L128
 3235 0572 80E0      		ldi r24,lo8(0)
 3236 0574 90E0      		ldi r25,hi8(0)
 3237 0576 A0E0      		ldi r26,hlo8(0)
 3238 0578 B0E0      		ldi r27,hhi8(0)
 3239 057a 00C0      		rjmp .L129
 3240               	.L128:
 3241 057c 8485      		ldd r24,Z+12
 3242 057e 9585      		ldd r25,Z+13
 3243 0580 A685      		ldd r26,Z+14
 3244 0582 B785      		ldd r27,Z+15
 3245               	.L129:
 3246 0584 F501      		movw r30,r10
 3247 0586 8483      		std Z+4,r24
 3248 0588 9583      		std Z+5,r25
 3249 058a A683      		std Z+6,r26
 3250 058c B783      		std Z+7,r27
 3251               	.LSM248:
 3252 058e 2091 0000 		lds r18,tcphdr
 3253 0592 3091 0000 		lds r19,(tcphdr)+1
 3254 0596 D901      		movw r26,r18
 3255 0598 8D91      		ld r24,X+
 3256 059a 9C91      		ld r25,X
 3257 059c 958B      		std Z+21,r25
 3258 059e 848B      		std Z+20,r24
 3259               	.LSM249:
 3260 05a0 83E0      		ldi r24,lo8(3)
 3261 05a2 8687      		std Z+14,r24
 3262               	.LSM250:
 3263 05a4 8091 0000 		lds r24,seqno
 3264 05a8 9091 0000 		lds r25,(seqno)+1
 3265 05ac A091 0000 		lds r26,(seqno)+2
 3266 05b0 B091 0000 		lds r27,(seqno)+3
 3267 05b4 0196      		adiw r24,1
 3268 05b6 A11D      		adc r26,__zero_reg__
 3269 05b8 B11D      		adc r27,__zero_reg__
 3270 05ba 878B      		std Z+23,r24
 3271 05bc 908F      		std Z+24,r25
 3272 05be A18F      		std Z+25,r26
 3273 05c0 B28F      		std Z+26,r27
 3274               	.LSM251:
 3275 05c2 F901      		movw r30,r18
 3276 05c4 2685      		ldd r18,Z+14
 3277 05c6 3785      		ldd r19,Z+15
 3278 05c8 E9E4      		ldi r30,lo8(73)
 3279 05ca CE2E      		mov r12,r30
 3280 05cc D12C      		mov r13,__zero_reg__
 3281 05ce AC0C      		add r10,r12
 3282 05d0 BD1C      		adc r11,r13
 3283 05d2 F501      		movw r30,r10
 3284 05d4 3183      		std Z+1,r19
 3285 05d6 2083      		st Z,r18
 3286               	.LSM252:
 3287 05d8 76EF      		ldi r23,lo8(-10)
 3288 05da C72E      		mov r12,r23
 3289 05dc 7FEF      		ldi r23,hi8(-10)
 3290 05de D72E      		mov r13,r23
 3291 05e0 AC0C      		add r10,r12
 3292 05e2 BD1C      		adc r11,r13
 3293 05e4 F501      		movw r30,r10
 3294 05e6 3183      		std Z+1,r19
 3295 05e8 2083      		st Z,r18
 3296               	.LSM253:
 3297 05ea 6CE0      		ldi r22,lo8(12)
 3298 05ec C62E      		mov r12,r22
 3299 05ee D12C      		mov r13,__zero_reg__
 3300 05f0 AC0C      		add r10,r12
 3301 05f2 BD1C      		adc r11,r13
 3302 05f4 0297      		sbiw r24,2
 3303 05f6 A109      		sbc r26,__zero_reg__
 3304 05f8 B109      		sbc r27,__zero_reg__
 3305 05fa F501      		movw r30,r10
 3306 05fc 8083      		st Z,r24
 3307 05fe 9183      		std Z+1,r25
 3308 0600 A283      		std Z+2,r26
 3309 0602 B383      		std Z+3,r27
 3310 0604 55EB      		ldi r21,lo8(-75)
 3311 0606 C52E      		mov r12,r21
 3312 0608 5FEF      		ldi r21,hi8(-75)
 3313 060a D52E      		mov r13,r21
 3314 060c AC0C      		add r10,r12
 3315 060e BD1C      		adc r11,r13
 3316               	.LSM254:
 3317 0610 D801      		movw r26,r16
 3318 0612 5096      		adiw r26,16
 3319 0614 8D91      		ld r24,X+
 3320 0616 9C91      		ld r25,X
 3321 0618 5197      		sbiw r26,16+1
 3322 061a F501      		movw r30,r10
 3323 061c 918B      		std Z+17,r25
 3324 061e 808B      		std Z+16,r24
 3325               	.LSM255:
 3326 0620 4BE6      		ldi r20,lo8(107)
 3327 0622 C42E      		mov r12,r20
 3328 0624 D12C      		mov r13,__zero_reg__
 3329 0626 AC0C      		add r10,r12
 3330 0628 BD1C      		adc r11,r13
 3331 062a 5496      		adiw r26,20
 3332 062c 8D91      		ld r24,X+
 3333 062e 9C91      		ld r25,X
 3334 0630 5597      		sbiw r26,20+1
 3335 0632 D501      		movw r26,r10
 3336 0634 8D93      		st X+,r24
 3337 0636 9C93      		st X,r25
 3338 0638 E5E9      		ldi r30,lo8(-107)
 3339 063a FFEF      		ldi r31,hi8(-107)
 3340 063c AE0E      		add r10,r30
 3341 063e BF1E      		adc r11,r31
 3342               	.LSM256:
 3343 0640 D801      		movw r26,r16
 3344 0642 1896      		adiw r26,8
 3345 0644 8D91      		ld r24,X+
 3346 0646 9C91      		ld r25,X
 3347 0648 1997      		sbiw r26,8+1
 3348 064a 8979      		andi r24,lo8(409)
 3349 064c 9170      		andi r25,hi8(409)
 3350 064e F501      		movw r30,r10
 3351 0650 9187      		std Z+9,r25
 3352 0652 8087      		std Z+8,r24
 3353               	.LSM257:
 3354 0654 8091 0000 		lds r24,tcp_active_pcbs
 3355 0658 9091 0000 		lds r25,(tcp_active_pcbs)+1
 3356 065c 9587      		std Z+13,r25
 3357 065e 8487      		std Z+12,r24
 3358 0660 B092 0000 		sts (tcp_active_pcbs)+1,r11
 3359 0664 A092 0000 		sts tcp_active_pcbs,r10
 3360               	.LSM258:
 3361 0668 C501      		movw r24,r10
 3362 066a 0E94 0000 		call tcp_parseopt
 3363               	.LBE15:
 3364               	.LSM259:
 3365 066e B501      		movw r22,r10
 3366 0670 6C5F      		subi r22,lo8(-(4))
 3367 0672 7F4F      		sbci r23,hi8(-(4))
 3368 0674 D501      		movw r26,r10
 3369 0676 9796      		adiw r26,39
 3370 0678 8D91      		ld r24,X+
 3371 067a 9C91      		ld r25,X
 3372 067c 9897      		sbiw r26,39+1
 3373 067e 0E94 0000 		call tcp_eff_send_mss
 3374               	.LBB16:
 3375 0682 F501      		movw r30,r10
 3376 0684 90A7      		std Z+40,r25
 3377 0686 87A3      		std Z+39,r24
 3378               	.LBE16:
 3379               	.LSM260:
 3380 0688 60E8      		ldi r22,lo8(33816704)
 3381 068a 70E0      		ldi r23,hi8(33816704)
 3382 068c 84E0      		ldi r24,hlo8(33816704)
 3383 068e 92E0      		ldi r25,hhi8(33816704)
 3384 0690 0E94 0000 		call htonl
 3385               	.LBB17:
 3386 0694 6983      		std Y+1,r22
 3387 0696 7A83      		std Y+2,r23
 3388 0698 8B83      		std Y+3,r24
 3389 069a 9C83      		std Y+4,r25
 3390               	.LVL123:
 3391               	.LSM261:
 3392 069c C501      		movw r24,r10
 3393 069e 60E0      		ldi r22,lo8(0)
 3394 06a0 70E0      		ldi r23,hi8(0)
 3395 06a2 40E0      		ldi r20,lo8(0)
 3396 06a4 50E0      		ldi r21,hi8(0)
 3397 06a6 22E1      		ldi r18,lo8(18)
 3398 06a8 00E0      		ldi r16,lo8(0)
 3399               	.LVL124:
 3400 06aa 7E01      		movw r14,r28
 3401 06ac 0894      		sec
 3402 06ae E11C      		adc r14,__zero_reg__
 3403 06b0 F11C      		adc r15,__zero_reg__
 3404 06b2 34E0      		ldi r19,lo8(4)
 3405 06b4 C32E      		mov r12,r19
 3406 06b6 0E94 0000 		call tcp_enqueue
 3407               	.LSM262:
 3408 06ba C501      		movw r24,r10
 3409               	.LVL125:
 3410               	.L198:
 3411 06bc 0E94 0000 		call tcp_output
 3412               	.LVL126:
 3413 06c0 00C0      		rjmp .L189
 3414               	.LVL127:
 3415               	.L121:
 3416               	.LBE17:
 3417               	.LBE13:
 3418               	.LSM263:
 3419 06c2 F801      		movw r30,r16
 3420               	.LSM264:
 3421 06c4 0485      		ldd r16,Z+12
 3422 06c6 1585      		ldd r17,Z+13
 3423               	.L119:
 3424 06c8 0115      		cp r16,__zero_reg__
 3425 06ca 1105      		cpc r17,__zero_reg__
 3426 06cc 01F0      		breq .+2
 3427 06ce 00C0      		rjmp .L130
 3428 06d0 00C0      		rjmp .L206
 3429               	.LVL128:
 3430               	.L112:
 3431               	.LSM265:
 3432 06d2 1092 0000 		sts (inseg)+1,__zero_reg__
 3433 06d6 1092 0000 		sts inseg,__zero_reg__
 3434               	.LSM266:
 3435 06da D301      		movw r26,r6
 3436 06dc 1496      		adiw r26,4
 3437 06de 8D91      		ld r24,X+
 3438 06e0 9C91      		ld r25,X
 3439 06e2 1597      		sbiw r26,4+1
 3440 06e4 9093 0000 		sts (inseg+6)+1,r25
 3441 06e8 8093 0000 		sts inseg+6,r24
 3442               	.LSM267:
 3443 06ec 1296      		adiw r26,2
 3444 06ee 8D91      		ld r24,X+
 3445 06f0 9C91      		ld r25,X
 3446 06f2 1397      		sbiw r26,2+1
 3447 06f4 9093 0000 		sts (inseg+4)+1,r25
 3448 06f8 8093 0000 		sts inseg+4,r24
 3449               	.LSM268:
 3450 06fc 7092 0000 		sts (inseg+2)+1,r7
 3451 0700 6092 0000 		sts inseg+2,r6
 3452               	.LSM269:
 3453 0704 8091 0000 		lds r24,tcphdr
 3454 0708 9091 0000 		lds r25,(tcphdr)+1
 3455 070c 9093 0000 		sts (inseg+8)+1,r25
 3456 0710 8093 0000 		sts inseg+8,r24
 3457               	.LSM270:
 3458 0714 1092 0000 		sts (recv_data)+1,__zero_reg__
 3459 0718 1092 0000 		sts recv_data,__zero_reg__
 3460               	.LSM271:
 3461 071c 1092 0000 		sts recv_flags,__zero_reg__
 3462               	.LSM272:
 3463 0720 E3E6      		ldi r30,lo8(99)
 3464 0722 F0E0      		ldi r31,hi8(99)
 3465               	.LVL129:
 3466 0724 8E0E      		add r8,r30
 3467 0726 9F1E      		adc r9,r31
 3468 0728 D401      		movw r26,r8
 3469 072a 4D91      		ld r20,X+
 3470 072c 5C91      		ld r21,X
 3471 072e EDE9      		ldi r30,lo8(-99)
 3472 0730 FFEF      		ldi r31,hi8(-99)
 3473 0732 8E0E      		add r8,r30
 3474 0734 9F1E      		adc r9,r31
 3475 0736 4115      		cp r20,__zero_reg__
 3476 0738 5105      		cpc r21,__zero_reg__
 3477 073a 01F0      		breq .L132
 3478               	.LSM273:
 3479 073c 97E6      		ldi r25,lo8(103)
 3480 073e C92E      		mov r12,r25
 3481 0740 D12C      		mov r13,__zero_reg__
 3482               	.LVL130:
 3483 0742 8C0C      		add r8,r12
 3484 0744 9D1C      		adc r9,r13
 3485 0746 D401      		movw r26,r8
 3486 0748 ED91      		ld r30,X+
 3487 074a FC91      		ld r31,X
 3488 074c 89E9      		ldi r24,lo8(-103)
 3489 074e C82E      		mov r12,r24
 3490 0750 8FEF      		ldi r24,hi8(-103)
 3491 0752 D82E      		mov r13,r24
 3492 0754 8C0C      		add r8,r12
 3493 0756 9D1C      		adc r9,r13
 3494 0758 3097      		sbiw r30,0
 3495 075a 01F0      		breq .L133
 3496 075c D401      		movw r26,r8
 3497 075e 5096      		adiw r26,16
 3498 0760 8D91      		ld r24,X+
 3499 0762 9C91      		ld r25,X
 3500 0764 5197      		sbiw r26,16+1
 3501 0766 B401      		movw r22,r8
 3502 0768 20E0      		ldi r18,lo8(0)
 3503 076a 0995      		icall
 3504               	.LSM274:
 3505 076c 8823      		tst r24
 3506 076e 01F0      		breq .L134
 3507 0770 00C0      		rjmp .L194
 3508               	.L133:
 3509               	.LSM275:
 3510 0772 CA01      		movw r24,r20
 3511 0774 0E94 0000 		call pbuf_free
 3512               	.L134:
 3513               	.LSM276:
 3514 0778 E3E6      		ldi r30,lo8(99)
 3515 077a F0E0      		ldi r31,hi8(99)
 3516 077c 8E0E      		add r8,r30
 3517 077e 9F1E      		adc r9,r31
 3518 0780 D401      		movw r26,r8
 3519 0782 1D92      		st X+,__zero_reg__
 3520 0784 1C92      		st X,__zero_reg__
 3521 0786 EDE9      		ldi r30,lo8(-99)
 3522 0788 FFEF      		ldi r31,hi8(-99)
 3523 078a 8E0E      		add r8,r30
 3524 078c 9F1E      		adc r9,r31
 3525 078e 00C0      		rjmp .L132
 3526               	.LVL131:
 3527               	.L194:
 3528               	.LSM277:
 3529 0790 8091 0000 		lds r24,lwip_stats+138
 3530 0794 9091 0000 		lds r25,(lwip_stats+138)+1
 3531 0798 0196      		adiw r24,1
 3532 079a 9093 0000 		sts (lwip_stats+138)+1,r25
 3533 079e 8093 0000 		sts lwip_stats+138,r24
 3534 07a2 00C0      		rjmp .L189
 3535               	.LVL132:
 3536               	.L132:
 3537               	.LSM278:
 3538 07a4 9092 0000 		sts (tcp_input_pcb)+1,r9
 3539 07a8 8092 0000 		sts tcp_input_pcb,r8
 3540               	.LBB18:
 3541               	.LBB26:
 3542               	.LSM279:
 3543 07ac 8091 0000 		lds r24,flags
 3544 07b0 D401      		movw r26,r8
 3545 07b2 1E96      		adiw r26,14
 3546 07b4 2C91      		ld r18,X
 3547 07b6 82FF      		sbrs r24,2
 3548 07b8 00C0      		rjmp .L136
 3549               	.LSM280:
 3550 07ba 2230      		cpi r18,lo8(2)
 3551 07bc 01F4      		brne .L137
 3552               	.LSM281:
 3553 07be E1E4      		ldi r30,lo8(65)
 3554 07c0 F0E0      		ldi r31,hi8(65)
 3555 07c2 8E0E      		add r8,r30
 3556 07c4 9F1E      		adc r9,r31
 3557 07c6 2091 0000 		lds r18,ackno
 3558 07ca 3091 0000 		lds r19,(ackno)+1
 3559 07ce 4091 0000 		lds r20,(ackno)+2
 3560 07d2 5091 0000 		lds r21,(ackno)+3
 3561 07d6 F401      		movw r30,r8
 3562 07d8 8081      		ld r24,Z
 3563 07da 9181      		ldd r25,Z+1
 3564 07dc A281      		ldd r26,Z+2
 3565 07de B381      		ldd r27,Z+3
 3566 07e0 0FEB      		ldi r16,lo8(-65)
 3567 07e2 C02E      		mov r12,r16
 3568 07e4 0FEF      		ldi r16,hi8(-65)
 3569 07e6 D02E      		mov r13,r16
 3570 07e8 8C0C      		add r8,r12
 3571 07ea 9D1C      		adc r9,r13
 3572 07ec 2817      		cp r18,r24
 3573 07ee 3907      		cpc r19,r25
 3574 07f0 4A07      		cpc r20,r26
 3575 07f2 5B07      		cpc r21,r27
 3576 07f4 01F0      		breq .+2
 3577 07f6 00C0      		rjmp .L139
 3578 07f8 00C0      		rjmp .L138
 3579               	.L137:
 3580               	.LSM282:
 3581 07fa 2091 0000 		lds r18,seqno
 3582 07fe 3091 0000 		lds r19,(seqno)+1
 3583 0802 4091 0000 		lds r20,(seqno)+2
 3584 0806 5091 0000 		lds r21,(seqno)+3
 3585 080a F401      		movw r30,r8
 3586 080c 8789      		ldd r24,Z+23
 3587 080e 908D      		ldd r25,Z+24
 3588 0810 A18D      		ldd r26,Z+25
 3589 0812 B28D      		ldd r27,Z+26
 3590 0814 281B      		sub r18,r24
 3591 0816 390B      		sbc r19,r25
 3592 0818 4A0B      		sbc r20,r26
 3593 081a 5B0B      		sbc r21,r27
 3594 081c 57FD      		sbrc r21,7
 3595 081e 00C0      		rjmp .L139
 3596 0820 858D      		ldd r24,Z+29
 3597 0822 968D      		ldd r25,Z+30
 3598 0824 A0E0      		ldi r26,lo8(0)
 3599 0826 B0E0      		ldi r27,hi8(0)
 3600 0828 281B      		sub r18,r24
 3601 082a 390B      		sbc r19,r25
 3602 082c 4A0B      		sbc r20,r26
 3603 082e 5B0B      		sbc r21,r27
 3604 0830 1216      		cp __zero_reg__,r18
 3605 0832 1306      		cpc __zero_reg__,r19
 3606 0834 1406      		cpc __zero_reg__,r20
 3607 0836 1506      		cpc __zero_reg__,r21
 3608 0838 04F4      		brge .+2
 3609 083a 00C0      		rjmp .L139
 3610 083c 00C0      		rjmp .L138
 3611               	.L136:
 3612               	.LSM283:
 3613 083e 8091 0000 		lds r24,tcp_ticks
 3614 0842 9091 0000 		lds r25,(tcp_ticks)+1
 3615 0846 A091 0000 		lds r26,(tcp_ticks)+2
 3616 084a B091 0000 		lds r27,(tcp_ticks)+3
 3617 084e F401      		movw r30,r8
 3618 0850 878F      		std Z+31,r24
 3619 0852 90A3      		std Z+32,r25
 3620 0854 A1A3      		std Z+33,r26
 3621 0856 B2A3      		std Z+34,r27
 3622               	.LSM284:
 3623 0858 1AE7      		ldi r17,lo8(122)
 3624 085a C12E      		mov r12,r17
 3625 085c D12C      		mov r13,__zero_reg__
 3626 085e 8C0C      		add r8,r12
 3627 0860 9D1C      		adc r9,r13
 3628 0862 D401      		movw r26,r8
 3629 0864 1C92      		st X,__zero_reg__
 3630 0866 E6E8      		ldi r30,lo8(-122)
 3631 0868 FFEF      		ldi r31,hi8(-122)
 3632 086a 8E0E      		add r8,r30
 3633 086c 9F1E      		adc r9,r31
 3634               	.LSM285:
 3635 086e 2530      		cpi r18,lo8(5)
 3636 0870 01F4      		brne .+2
 3637 0872 00C0      		rjmp .L143
 3638 0874 2630      		cpi r18,lo8(6)
 3639 0876 00F4      		brsh .L147
 3640 0878 2330      		cpi r18,lo8(3)
 3641 087a 01F4      		brne .+2
 3642 087c 00C0      		rjmp .L141
 3643 087e 2430      		cpi r18,lo8(4)
 3644 0880 00F0      		brlo .+2
 3645 0882 00C0      		rjmp .L142
 3646 0884 2230      		cpi r18,lo8(2)
 3647 0886 01F0      		breq .+2
 3648 0888 00C0      		rjmp .L139
 3649 088a 00C0      		rjmp .L207
 3650               	.L147:
 3651 088c 2730      		cpi r18,lo8(7)
 3652 088e 01F4      		brne .+2
 3653 0890 00C0      		rjmp .L142
 3654 0892 2730      		cpi r18,lo8(7)
 3655 0894 00F4      		brsh .+2
 3656 0896 00C0      		rjmp .L144
 3657 0898 2830      		cpi r18,lo8(8)
 3658 089a 01F4      		brne .+2
 3659 089c 00C0      		rjmp .L145
 3660 089e 2930      		cpi r18,lo8(9)
 3661 08a0 01F0      		breq .+2
 3662 08a2 00C0      		rjmp .L139
 3663 08a4 00C0      		rjmp .L208
 3664               	.L207:
 3665               	.LSM286:
 3666 08a6 8091 0000 		lds r24,flags
 3667 08aa 84FF      		sbrs r24,4
 3668 08ac 00C0      		rjmp .L148
 3669 08ae 81FF      		sbrs r24,1
 3670 08b0 00C0      		rjmp .L148
 3671 08b2 E090 0000 		lds r14,ackno
 3672 08b6 F090 0000 		lds r15,(ackno)+1
 3673 08ba 0091 0000 		lds r16,(ackno)+2
 3674 08be 1091 0000 		lds r17,(ackno)+3
 3675               	.LBE26:
 3676 08c2 BFE5      		ldi r27,lo8(95)
 3677 08c4 CB2E      		mov r12,r27
 3678 08c6 D12C      		mov r13,__zero_reg__
 3679 08c8 8C0C      		add r8,r12
 3680 08ca 9D1C      		adc r9,r13
 3681 08cc D401      		movw r26,r8
 3682 08ce ED91      		ld r30,X+
 3683 08d0 FC91      		ld r31,X
 3684 08d2 A1EA      		ldi r26,lo8(-95)
 3685 08d4 CA2E      		mov r12,r26
 3686 08d6 AFEF      		ldi r26,hi8(-95)
 3687 08d8 DA2E      		mov r13,r26
 3688 08da 8C0C      		add r8,r12
 3689 08dc 9D1C      		adc r9,r13
 3690 08de 0084      		ldd __tmp_reg__,Z+8
 3691 08e0 F185      		ldd r31,Z+9
 3692 08e2 E02D      		mov r30,__tmp_reg__
 3693 08e4 6481      		ldd r22,Z+4
 3694 08e6 7581      		ldd r23,Z+5
 3695 08e8 8681      		ldd r24,Z+6
 3696 08ea 9781      		ldd r25,Z+7
 3697 08ec 0E94 0000 		call ntohl
 3698               	.LVL133:
 3699               	.LBB25:
 3700 08f0 6F5F      		subi r22,lo8(-(1))
 3701 08f2 7F4F      		sbci r23,hi8(-(1))
 3702 08f4 8F4F      		sbci r24,hlo8(-(1))
 3703 08f6 9F4F      		sbci r25,hhi8(-(1))
 3704 08f8 E616      		cp r14,r22
 3705 08fa F706      		cpc r15,r23
 3706 08fc 0807      		cpc r16,r24
 3707 08fe 1907      		cpc r17,r25
 3708 0900 01F0      		breq .+2
 3709 0902 00C0      		rjmp .L148
 3710               	.LSM287:
 3711 0904 F401      		movw r30,r8
 3712 0906 E75A      		subi r30,lo8(-(89))
 3713 0908 FF4F      		sbci r31,hi8(-(89))
 3714 090a 8081      		ld r24,Z
 3715 090c 9181      		ldd r25,Z+1
 3716 090e 0196      		adiw r24,1
 3717 0910 9183      		std Z+1,r25
 3718 0912 8083      		st Z,r24
 3719               	.LSM288:
 3720 0914 2091 0000 		lds r18,seqno
 3721 0918 3091 0000 		lds r19,(seqno)+1
 3722 091c 4091 0000 		lds r20,(seqno)+2
 3723 0920 5091 0000 		lds r21,(seqno)+3
 3724 0924 2F5F      		subi r18,lo8(-(1))
 3725 0926 3F4F      		sbci r19,hi8(-(1))
 3726 0928 4F4F      		sbci r20,hlo8(-(1))
 3727 092a 5F4F      		sbci r21,hhi8(-(1))
 3728 092c D401      		movw r26,r8
 3729 092e 5796      		adiw r26,23
 3730 0930 2D93      		st X+,r18
 3731 0932 3D93      		st X+,r19
 3732 0934 4D93      		st X+,r20
 3733 0936 5C93      		st X,r21
 3734 0938 5A97      		sbiw r26,23+3
 3735               	.LSM289:
 3736 093a 8091 0000 		lds r24,ackno
 3737 093e 9091 0000 		lds r25,(ackno)+1
 3738 0942 A091 0000 		lds r26,(ackno)+2
 3739 0946 B091 0000 		lds r27,(ackno)+3
 3740 094a F401      		movw r30,r8
 3741 094c 80AF      		std Z+56,r24
 3742 094e 91AF      		std Z+57,r25
 3743 0950 A2AF      		std Z+58,r26
 3744 0952 B3AF      		std Z+59,r27
 3745               	.LSM290:
 3746 0954 79E4      		ldi r23,lo8(73)
 3747 0956 C72E      		mov r12,r23
 3748 0958 D12C      		mov r13,__zero_reg__
 3749 095a 8C0C      		add r8,r12
 3750 095c 9D1C      		adc r9,r13
 3751 095e E091 0000 		lds r30,tcphdr
 3752 0962 F091 0000 		lds r31,(tcphdr)+1
 3753 0966 8685      		ldd r24,Z+14
 3754 0968 9785      		ldd r25,Z+15
 3755 096a D401      		movw r26,r8
 3756 096c 8D93      		st X+,r24
 3757 096e 9D93      		st X+,r25
 3758 0970 4D01      		movw r8,r26
 3759               	.LSM291:
 3760 0972 2250      		subi r18,lo8(-(-2))
 3761 0974 3040      		sbci r19,hi8(-(-2))
 3762 0976 4040      		sbci r20,hlo8(-(-2))
 3763 0978 5040      		sbci r21,hhi8(-(-2))
 3764 097a FD01      		movw r30,r26
 3765 097c 2083      		st Z,r18
 3766 097e 3183      		std Z+1,r19
 3767 0980 4283      		std Z+2,r20
 3768 0982 5383      		std Z+3,r21
 3769 0984 65EB      		ldi r22,lo8(-75)
 3770 0986 C62E      		mov r12,r22
 3771 0988 6FEF      		ldi r22,hi8(-75)
 3772 098a D62E      		mov r13,r22
 3773 098c 8C0C      		add r8,r12
 3774 098e 9D1C      		adc r9,r13
 3775               	.LSM292:
 3776 0990 84E0      		ldi r24,lo8(4)
 3777 0992 D401      		movw r26,r8
 3778 0994 1E96      		adiw r26,14
 3779 0996 8C93      		st X,r24
 3780               	.LSM293:
 3781 0998 C401      		movw r24,r8
 3782 099a 0E94 0000 		call tcp_parseopt
 3783               	.LBE25:
 3784               	.LSM294:
 3785 099e B401      		movw r22,r8
 3786 09a0 6C5F      		subi r22,lo8(-(4))
 3787 09a2 7F4F      		sbci r23,hi8(-(4))
 3788 09a4 F401      		movw r30,r8
 3789 09a6 87A1      		ldd r24,Z+39
 3790 09a8 90A5      		ldd r25,Z+40
 3791 09aa 0E94 0000 		call tcp_eff_send_mss
 3792               	.LBB24:
 3793 09ae D401      		movw r26,r8
 3794 09b0 9796      		adiw r26,39
 3795 09b2 8C93      		st X,r24
 3796 09b4 9797      		sbiw r26,39
 3797 09b6 9896      		adiw r26,40
 3798 09b8 9C93      		st X,r25
 3799               	.LSM295:
 3800 09ba EFE3      		ldi r30,lo8(63)
 3801 09bc F0E0      		ldi r31,hi8(63)
 3802 09be 8E0E      		add r8,r30
 3803 09c0 9F1E      		adc r9,r31
 3804 09c2 9C01      		movw r18,r24
 3805 09c4 53E0      		ldi r21,3
 3806 09c6 880F      	1:	lsl r24
 3807 09c8 991F      		rol r25
 3808 09ca 5A95      		dec r21
 3809 09cc 01F4      		brne 1b
 3810 09ce 220F      		lsl r18
 3811 09d0 331F      		rol r19
 3812 09d2 820F      		add r24,r18
 3813 09d4 931F      		adc r25,r19
 3814 09d6 D401      		movw r26,r8
 3815 09d8 8D93      		st X+,r24
 3816 09da 9C93      		st X,r25
 3817 09dc E1EC      		ldi r30,lo8(-63)
 3818 09de FFEF      		ldi r31,hi8(-63)
 3819 09e0 8E0E      		add r8,r30
 3820 09e2 9F1E      		adc r9,r31
 3821               	.LSM296:
 3822 09e4 D401      		movw r26,r8
 3823 09e6 DD96      		adiw r26,61
 3824 09e8 8D91      		ld r24,X+
 3825 09ea 9C91      		ld r25,X
 3826 09ec DE97      		sbiw r26,61+1
 3827 09ee 9796      		adiw r26,39
 3828 09f0 2D91      		ld r18,X+
 3829 09f2 3C91      		ld r19,X
 3830 09f4 9897      		sbiw r26,39+1
 3831 09f6 0197      		sbiw r24,1
 3832 09f8 01F4      		brne .L149
 3833 09fa C901      		movw r24,r18
 3834 09fc 880F      		lsl r24
 3835 09fe 991F      		rol r25
 3836 0a00 00C0      		rjmp .L150
 3837               	.L149:
 3838 0a02 C901      		movw r24,r18
 3839               	.L150:
 3840 0a04 F401      		movw r30,r8
 3841 0a06 96AF      		std Z+62,r25
 3842 0a08 85AF      		std Z+61,r24
 3843               	.LSM297:
 3844 0a0a E55A      		subi r30,lo8(-(91))
 3845 0a0c FF4F      		sbci r31,hi8(-(91))
 3846 0a0e 8081      		ld r24,Z
 3847 0a10 9181      		ldd r25,Z+1
 3848 0a12 0197      		sbiw r24,1
 3849 0a14 9183      		std Z+1,r25
 3850 0a16 8083      		st Z,r24
 3851               	.LSM298:
 3852 0a18 F401      		movw r30,r8
 3853 0a1a E15A      		subi r30,lo8(-(95))
 3854 0a1c FF4F      		sbci r31,hi8(-(95))
 3855 0a1e A081      		ld r26,Z
 3856 0a20 B181      		ldd r27,Z+1
 3857               	.LVL134:
 3858               	.LSM299:
 3859 0a22 8D91      		ld r24,X+
 3860 0a24 9C91      		ld r25,X
 3861 0a26 1197      		sbiw r26,1
 3862 0a28 9183      		std Z+1,r25
 3863 0a2a 8083      		st Z,r24
 3864               	.LSM300:
 3865 0a2c 892B      		or r24,r25
 3866 0a2e 01F4      		brne .L151
 3867               	.LSM301:
 3868 0a30 8FEF      		ldi r24,lo8(-1)
 3869 0a32 9FEF      		ldi r25,hi8(-1)
 3870 0a34 F401      		movw r30,r8
 3871 0a36 96A3      		std Z+38,r25
 3872 0a38 85A3      		std Z+37,r24
 3873 0a3a 00C0      		rjmp .L152
 3874               	.L151:
 3875               	.LSM302:
 3876 0a3c F401      		movw r30,r8
 3877 0a3e 16A2      		std Z+38,__zero_reg__
 3878 0a40 15A2      		std Z+37,__zero_reg__
 3879               	.LSM303:
 3880 0a42 17AA      		std Z+55,__zero_reg__
 3881               	.L152:
 3882               	.LSM304:
 3883 0a44 CD01      		movw r24,r26
 3884 0a46 0E94 0000 		call tcp_seg_free
 3885               	.LVL135:
 3886               	.LSM305:
 3887 0a4a 99E6      		ldi r25,lo8(105)
 3888 0a4c C92E      		mov r12,r25
 3889 0a4e D12C      		mov r13,__zero_reg__
 3890 0a50 8C0C      		add r8,r12
 3891 0a52 9D1C      		adc r9,r13
 3892 0a54 D401      		movw r26,r8
 3893 0a56 ED91      		ld r30,X+
 3894 0a58 FC91      		ld r31,X
 3895 0a5a 87E9      		ldi r24,lo8(-105)
 3896 0a5c C82E      		mov r12,r24
 3897 0a5e 8FEF      		ldi r24,hi8(-105)
 3898 0a60 D82E      		mov r13,r24
 3899 0a62 8C0C      		add r8,r12
 3900 0a64 9D1C      		adc r9,r13
 3901 0a66 3097      		sbiw r30,0
 3902 0a68 01F0      		breq .L153
 3903 0a6a D401      		movw r26,r8
 3904 0a6c 5096      		adiw r26,16
 3905 0a6e 8D91      		ld r24,X+
 3906 0a70 9C91      		ld r25,X
 3907 0a72 5197      		sbiw r26,16+1
 3908 0a74 B401      		movw r22,r8
 3909 0a76 40E0      		ldi r20,lo8(0)
 3910 0a78 0995      		icall
 3911               	.L153:
 3912               	.LSM306:
 3913 0a7a F401      		movw r30,r8
 3914 0a7c 8689      		ldd r24,Z+22
 3915 0a7e 8260      		ori r24,lo8(2)
 3916 0a80 868B      		std Z+22,r24
 3917 0a82 C401      		movw r24,r8
 3918 0a84 0E94 0000 		call tcp_output
 3919 0a88 00C0      		rjmp .L139
 3920               	.LVL136:
 3921               	.L148:
 3922               	.LSM307:
 3923 0a8a 8091 0000 		lds r24,flags
 3924 0a8e 84FF      		sbrs r24,4
 3925 0a90 00C0      		rjmp .L139
 3926               	.LSM308:
 3927 0a92 0091 0000 		lds r16,iphdr
 3928 0a96 1091 0000 		lds r17,(iphdr)+1
 3929 0a9a E091 0000 		lds r30,tcphdr
 3930 0a9e F091 0000 		lds r31,(tcphdr)+1
 3931 0aa2 6091 0000 		lds r22,ackno
 3932 0aa6 7091 0000 		lds r23,(ackno)+1
 3933 0aaa 8091 0000 		lds r24,(ackno)+2
 3934 0aae 9091 0000 		lds r25,(ackno)+3
 3935 0ab2 2091 0000 		lds r18,tcplen
 3936 0ab6 3091 0000 		lds r19,(tcplen)+1
 3937 0aba 40E0      		ldi r20,lo8(0)
 3938 0abc 50E0      		ldi r21,hi8(0)
 3939 0abe C090 0000 		lds r12,seqno
 3940 0ac2 D090 0000 		lds r13,(seqno)+1
 3941 0ac6 E090 0000 		lds r14,(seqno)+2
 3942 0aca F090 0000 		lds r15,(seqno)+3
 3943 0ace 2C0D      		add r18,r12
 3944 0ad0 3D1D      		adc r19,r13
 3945 0ad2 4E1D      		adc r20,r14
 3946 0ad4 5F1D      		adc r21,r15
 3947 0ad6 D801      		movw r26,r16
 3948 0ad8 1C96      		adiw r26,12
 3949 0ada C280      		ldd r12,Z+2
 3950 0adc D380      		ldd r13,Z+3
 3951 0ade A080      		ld r10,Z
 3952 0ae0 B180      		ldd r11,Z+1
 3953 0ae2 00C0      		rjmp .L197
 3954               	.L141:
 3955               	.LSM309:
 3956 0ae4 8091 0000 		lds r24,flags
 3957 0ae8 84FF      		sbrs r24,4
 3958 0aea 00C0      		rjmp .L139
 3959 0aec 82FD      		sbrc r24,2
 3960 0aee 00C0      		rjmp .L139
 3961               	.LSM310:
 3962 0af0 4090 0000 		lds r4,ackno
 3963 0af4 5090 0000 		lds r5,(ackno)+1
 3964 0af8 6090 0000 		lds r6,(ackno)+2
 3965 0afc 7090 0000 		lds r7,(ackno)+3
 3966 0b00 F401      		movw r30,r8
 3967 0b02 80AD      		ldd r24,Z+56
 3968 0b04 91AD      		ldd r25,Z+57
 3969 0b06 A2AD      		ldd r26,Z+58
 3970 0b08 B3AD      		ldd r27,Z+59
 3971 0b0a 8095      		com r24
 3972 0b0c 9095      		com r25
 3973 0b0e A095      		com r26
 3974 0b10 B095      		com r27
 3975 0b12 840D      		add r24,r4
 3976 0b14 951D      		adc r25,r5
 3977 0b16 A61D      		adc r26,r6
 3978 0b18 B71D      		adc r27,r7
 3979 0b1a B7FD      		sbrc r27,7
 3980 0b1c 00C0      		rjmp .L155
 3981 0b1e 01E4      		ldi r16,lo8(65)
 3982 0b20 C02E      		mov r12,r16
 3983 0b22 D12C      		mov r13,__zero_reg__
 3984 0b24 8C0C      		add r8,r12
 3985 0b26 9D1C      		adc r9,r13
 3986 0b28 F401      		movw r30,r8
 3987 0b2a 8081      		ld r24,Z
 3988 0b2c 9181      		ldd r25,Z+1
 3989 0b2e A281      		ldd r26,Z+2
 3990 0b30 B381      		ldd r27,Z+3
 3991 0b32 1FEB      		ldi r17,lo8(-65)
 3992 0b34 C12E      		mov r12,r17
 3993 0b36 1FEF      		ldi r17,hi8(-65)
 3994 0b38 D12E      		mov r13,r17
 3995 0b3a 8C0C      		add r8,r12
 3996 0b3c 9D1C      		adc r9,r13
 3997 0b3e A301      		movw r20,r6
 3998 0b40 9201      		movw r18,r4
 3999 0b42 281B      		sub r18,r24
 4000 0b44 390B      		sbc r19,r25
 4001 0b46 4A0B      		sbc r20,r26
 4002 0b48 5B0B      		sbc r21,r27
 4003 0b4a 1216      		cp __zero_reg__,r18
 4004 0b4c 1306      		cpc __zero_reg__,r19
 4005 0b4e 1406      		cpc __zero_reg__,r20
 4006 0b50 1506      		cpc __zero_reg__,r21
 4007 0b52 04F4      		brge .+2
 4008 0b54 00C0      		rjmp .L155
 4009               	.LBB28:
 4010               	.LSM311:
 4011 0b56 84E0      		ldi r24,lo8(4)
 4012 0b58 D401      		movw r26,r8
 4013 0b5a 1E96      		adiw r26,14
 4014 0b5c 8C93      		st X,r24
 4015               	.LSM312:
 4016 0b5e EBE6      		ldi r30,lo8(107)
 4017 0b60 F0E0      		ldi r31,hi8(107)
 4018 0b62 8E0E      		add r8,r30
 4019 0b64 9F1E      		adc r9,r31
 4020 0b66 D401      		movw r26,r8
 4021 0b68 ED91      		ld r30,X+
 4022 0b6a FC91      		ld r31,X
 4023 0b6c A5E9      		ldi r26,lo8(-107)
 4024 0b6e CA2E      		mov r12,r26
 4025 0b70 AFEF      		ldi r26,hi8(-107)
 4026 0b72 DA2E      		mov r13,r26
 4027 0b74 8C0C      		add r8,r12
 4028 0b76 9D1C      		adc r9,r13
 4029 0b78 3097      		sbiw r30,0
 4030 0b7a 01F0      		breq .L156
 4031               	.LBE28:
 4032               	.LBE24:
 4033 0b7c D401      		movw r26,r8
 4034 0b7e 5096      		adiw r26,16
 4035 0b80 8D91      		ld r24,X+
 4036 0b82 9C91      		ld r25,X
 4037 0b84 5197      		sbiw r26,16+1
 4038 0b86 B401      		movw r22,r8
 4039 0b88 40E0      		ldi r20,lo8(0)
 4040 0b8a 0995      		icall
 4041               	.LVL137:
 4042               	.LBB23:
 4043               	.LBB27:
 4044               	.LSM313:
 4045 0b8c 8823      		tst r24
 4046 0b8e 01F0      		breq .L156
 4047               	.LSM314:
 4048 0b90 C401      		movw r24,r8
 4049 0b92 0E94 0000 		call tcp_abort
 4050 0b96 8CEF      		ldi r24,lo8(-4)
 4051               	.LVL138:
 4052 0b98 00C0      		rjmp .L154
 4053               	.LVL139:
 4054               	.L156:
 4055               	.LSM315:
 4056 0b9a F401      		movw r30,r8
 4057 0b9c 05AD      		ldd r16,Z+61
 4058 0b9e 16AD      		ldd r17,Z+62
 4059               	.LVL140:
 4060               	.LBE27:
 4061               	.LBE23:
 4062               	.LSM316:
 4063 0ba0 C401      		movw r24,r8
 4064 0ba2 0E94 0000 		call tcp_receive
 4065               	.LVL141:
 4066 0ba6 482F      		mov r20,r24
 4067               	.LVL142:
 4068 0ba8 D401      		movw r26,r8
 4069 0baa 9796      		adiw r26,39
 4070 0bac 2D91      		ld r18,X+
 4071 0bae 3C91      		ld r19,X
 4072 0bb0 9897      		sbiw r26,39+1
 4073               	.LBB22:
 4074               	.LBB29:
 4075               	.LSM317:
 4076 0bb2 0130      		cpi r16,1
 4077 0bb4 1105      		cpc r17,__zero_reg__
 4078 0bb6 01F4      		brne .L157
 4079 0bb8 C901      		movw r24,r18
 4080 0bba 880F      		lsl r24
 4081 0bbc 991F      		rol r25
 4082 0bbe 00C0      		rjmp .L158
 4083               	.L157:
 4084 0bc0 C901      		movw r24,r18
 4085               	.L158:
 4086 0bc2 F401      		movw r30,r8
 4087 0bc4 96AF      		std Z+62,r25
 4088 0bc6 85AF      		std Z+61,r24
 4089               	.LSM318:
 4090 0bc8 8091 0000 		lds r24,flags
 4091 0bcc 80FF      		sbrs r24,0
 4092 0bce 00C0      		rjmp .L139
 4093 0bd0 4423      		tst r20
 4094 0bd2 01F4      		brne .+2
 4095 0bd4 00C0      		rjmp .L139
 4096 0bd6 00C0      		rjmp .L201
 4097               	.LVL143:
 4098               	.L155:
 4099               	.LBE29:
 4100               	.LSM319:
 4101 0bd8 0091 0000 		lds r16,iphdr
 4102 0bdc 1091 0000 		lds r17,(iphdr)+1
 4103 0be0 E091 0000 		lds r30,tcphdr
 4104 0be4 F091 0000 		lds r31,(tcphdr)+1
 4105 0be8 2091 0000 		lds r18,tcplen
 4106 0bec 3091 0000 		lds r19,(tcplen)+1
 4107 0bf0 40E0      		ldi r20,lo8(0)
 4108 0bf2 50E0      		ldi r21,hi8(0)
 4109 0bf4 8091 0000 		lds r24,seqno
 4110 0bf8 9091 0000 		lds r25,(seqno)+1
 4111 0bfc A091 0000 		lds r26,(seqno)+2
 4112 0c00 B091 0000 		lds r27,(seqno)+3
 4113 0c04 280F      		add r18,r24
 4114 0c06 391F      		adc r19,r25
 4115 0c08 4A1F      		adc r20,r26
 4116 0c0a 5B1F      		adc r21,r27
 4117 0c0c D801      		movw r26,r16
 4118 0c0e 1C96      		adiw r26,12
 4119 0c10 C280      		ldd r12,Z+2
 4120 0c12 D380      		ldd r13,Z+3
 4121 0c14 A080      		ld r10,Z
 4122 0c16 B180      		ldd r11,Z+1
 4123 0c18 C301      		movw r24,r6
 4124 0c1a B201      		movw r22,r4
 4125               	.L197:
 4126 0c1c 005F      		subi r16,lo8(-(16))
 4127 0c1e 1F4F      		sbci r17,hi8(-(16))
 4128 0c20 7D01      		movw r14,r26
 4129 0c22 0E94 0000 		call tcp_rst
 4130               	.LVL144:
 4131 0c26 00C0      		rjmp .L139
 4132               	.LVL145:
 4133               	.L142:
 4134               	.LBE22:
 4135               	.LSM320:
 4136 0c28 C401      		movw r24,r8
 4137 0c2a 0E94 0000 		call tcp_receive
 4138               	.LVL146:
 4139 0c2e 982F      		mov r25,r24
 4140               	.LVL147:
 4141               	.LBB21:
 4142               	.LSM321:
 4143 0c30 8091 0000 		lds r24,flags
 4144 0c34 80FF      		sbrs r24,0
 4145 0c36 00C0      		rjmp .L139
 4146 0c38 9923      		tst r25
 4147 0c3a 01F4      		brne .+2
 4148 0c3c 00C0      		rjmp .L139
 4149               	.LSM322:
 4150 0c3e F401      		movw r30,r8
 4151               	.LVL148:
 4152               	.L201:
 4153 0c40 8689      		ldd r24,Z+22
 4154 0c42 8260      		ori r24,lo8(2)
 4155 0c44 868B      		std Z+22,r24
 4156 0c46 C401      		movw r24,r8
 4157 0c48 0E94 0000 		call tcp_output
 4158               	.LVL149:
 4159               	.LSM323:
 4160 0c4c 87E0      		ldi r24,lo8(7)
 4161 0c4e 00C0      		rjmp .L196
 4162               	.LVL150:
 4163               	.L143:
 4164               	.LSM324:
 4165 0c50 C401      		movw r24,r8
 4166 0c52 0E94 0000 		call tcp_receive
 4167               	.LVL151:
 4168               	.LSM325:
 4169 0c56 8091 0000 		lds r24,flags
 4170               	.LBE21:
 4171 0c5a 90E0      		ldi r25,lo8(0)
 4172 0c5c 9C01      		movw r18,r24
 4173 0c5e 2071      		andi r18,lo8(16)
 4174 0c60 3070      		andi r19,hi8(16)
 4175 0c62 80FF      		sbrs r24,0
 4176 0c64 00C0      		rjmp .L159
 4177               	.LBB20:
 4178               	.LSM326:
 4179 0c66 232B      		or r18,r19
 4180 0c68 01F4      		brne .+2
 4181 0c6a 00C0      		rjmp .L160
 4182 0c6c E1E4      		ldi r30,lo8(65)
 4183 0c6e F0E0      		ldi r31,hi8(65)
 4184 0c70 8E0E      		add r8,r30
 4185 0c72 9F1E      		adc r9,r31
 4186 0c74 2091 0000 		lds r18,ackno
 4187 0c78 3091 0000 		lds r19,(ackno)+1
 4188 0c7c 4091 0000 		lds r20,(ackno)+2
 4189 0c80 5091 0000 		lds r21,(ackno)+3
 4190 0c84 F401      		movw r30,r8
 4191 0c86 8081      		ld r24,Z
 4192 0c88 9181      		ldd r25,Z+1
 4193 0c8a A281      		ldd r26,Z+2
 4194 0c8c B381      		ldd r27,Z+3
 4195 0c8e 6FEB      		ldi r22,lo8(-65)
 4196 0c90 C62E      		mov r12,r22
 4197 0c92 6FEF      		ldi r22,hi8(-65)
 4198 0c94 D62E      		mov r13,r22
 4199 0c96 8C0C      		add r8,r12
 4200 0c98 9D1C      		adc r9,r13
 4201 0c9a 2817      		cp r18,r24
 4202 0c9c 3907      		cpc r19,r25
 4203 0c9e 4A07      		cpc r20,r26
 4204 0ca0 5B07      		cpc r21,r27
 4205 0ca2 01F4      		brne .L160
 4206               	.LSM327:
 4207 0ca4 D401      		movw r26,r8
 4208 0ca6 5696      		adiw r26,22
 4209 0ca8 8C91      		ld r24,X
 4210 0caa 5697      		sbiw r26,22
 4211 0cac 8260      		ori r24,lo8(2)
 4212 0cae 5696      		adiw r26,22
 4213 0cb0 8C93      		st X,r24
 4214 0cb2 C401      		movw r24,r8
 4215 0cb4 0E94 0000 		call tcp_output
 4216               	.LSM328:
 4217 0cb8 C401      		movw r24,r8
 4218 0cba 0E94 0000 		call tcp_pcb_purge
 4219               	.LSM329:
 4220 0cbe 8091 0000 		lds r24,tcp_active_pcbs
 4221 0cc2 9091 0000 		lds r25,(tcp_active_pcbs)+1
 4222 0cc6 8815      		cp r24,r8
 4223 0cc8 9905      		cpc r25,r9
 4224 0cca 01F4      		brne .L164
 4225 0ccc 00C0      		rjmp .L202
 4226               	.L165:
 4227 0cce 8485      		ldd r24,Z+12
 4228 0cd0 9585      		ldd r25,Z+13
 4229 0cd2 0097      		sbiw r24,0
 4230 0cd4 01F0      		breq .L164
 4231 0cd6 8815      		cp r24,r8
 4232 0cd8 9905      		cpc r25,r9
 4233 0cda 01F4      		brne .+2
 4234 0cdc 00C0      		rjmp .L203
 4235               	.L164:
 4236 0cde 9093 0000 		sts (tcp_tmp_pcb)+1,r25
 4237 0ce2 8093 0000 		sts tcp_tmp_pcb,r24
 4238 0ce6 E091 0000 		lds r30,tcp_tmp_pcb
 4239 0cea F091 0000 		lds r31,(tcp_tmp_pcb)+1
 4240 0cee 3097      		sbiw r30,0
 4241 0cf0 01F4      		brne .L165
 4242 0cf2 00C0      		rjmp .L172
 4243               	.L160:
 4244               	.LSM330:
 4245 0cf4 D401      		movw r26,r8
 4246 0cf6 5696      		adiw r26,22
 4247 0cf8 8C91      		ld r24,X
 4248 0cfa 5697      		sbiw r26,22
 4249 0cfc 8260      		ori r24,lo8(2)
 4250 0cfe 5696      		adiw r26,22
 4251 0d00 8C93      		st X,r24
 4252 0d02 C401      		movw r24,r8
 4253 0d04 0E94 0000 		call tcp_output
 4254               	.LSM331:
 4255 0d08 88E0      		ldi r24,lo8(8)
 4256 0d0a F401      		movw r30,r8
 4257 0d0c 8687      		std Z+14,r24
 4258 0d0e 00C0      		rjmp .L139
 4259               	.L159:
 4260               	.LSM332:
 4261 0d10 232B      		or r18,r19
 4262 0d12 01F4      		brne .+2
 4263 0d14 00C0      		rjmp .L139
 4264 0d16 01E4      		ldi r16,lo8(65)
 4265 0d18 C02E      		mov r12,r16
 4266 0d1a D12C      		mov r13,__zero_reg__
 4267 0d1c 8C0C      		add r8,r12
 4268 0d1e 9D1C      		adc r9,r13
 4269 0d20 2091 0000 		lds r18,ackno
 4270 0d24 3091 0000 		lds r19,(ackno)+1
 4271 0d28 4091 0000 		lds r20,(ackno)+2
 4272 0d2c 5091 0000 		lds r21,(ackno)+3
 4273 0d30 F401      		movw r30,r8
 4274 0d32 8081      		ld r24,Z
 4275 0d34 9181      		ldd r25,Z+1
 4276 0d36 A281      		ldd r26,Z+2
 4277 0d38 B381      		ldd r27,Z+3
 4278 0d3a 1FEB      		ldi r17,lo8(-65)
 4279 0d3c C12E      		mov r12,r17
 4280 0d3e 1FEF      		ldi r17,hi8(-65)
 4281 0d40 D12E      		mov r13,r17
 4282 0d42 8C0C      		add r8,r12
 4283 0d44 9D1C      		adc r9,r13
 4284 0d46 2817      		cp r18,r24
 4285 0d48 3907      		cpc r19,r25
 4286 0d4a 4A07      		cpc r20,r26
 4287 0d4c 5B07      		cpc r21,r27
 4288 0d4e 01F0      		breq .+2
 4289 0d50 00C0      		rjmp .L139
 4290               	.LSM333:
 4291 0d52 86E0      		ldi r24,lo8(6)
 4292               	.LVL152:
 4293               	.L196:
 4294 0d54 D401      		movw r26,r8
 4295 0d56 1E96      		adiw r26,14
 4296 0d58 8C93      		st X,r24
 4297 0d5a 00C0      		rjmp .L139
 4298               	.LVL153:
 4299               	.L144:
 4300               	.LSM334:
 4301 0d5c C401      		movw r24,r8
 4302 0d5e 0E94 0000 		call tcp_receive
 4303               	.LVL154:
 4304               	.LBE20:
 4305               	.LSM335:
 4306 0d62 8091 0000 		lds r24,flags
 4307 0d66 80FF      		sbrs r24,0
 4308 0d68 00C0      		rjmp .L139
 4309               	.LBB19:
 4310               	.LSM336:
 4311 0d6a F401      		movw r30,r8
 4312 0d6c 8689      		ldd r24,Z+22
 4313 0d6e 8260      		ori r24,lo8(2)
 4314 0d70 868B      		std Z+22,r24
 4315 0d72 C401      		movw r24,r8
 4316 0d74 0E94 0000 		call tcp_output
 4317               	.LSM337:
 4318 0d78 C401      		movw r24,r8
 4319 0d7a 0E94 0000 		call tcp_pcb_purge
 4320               	.LSM338:
 4321 0d7e 8091 0000 		lds r24,tcp_active_pcbs
 4322 0d82 9091 0000 		lds r25,(tcp_active_pcbs)+1
 4323 0d86 8815      		cp r24,r8
 4324 0d88 9905      		cpc r25,r9
 4325 0d8a 01F4      		brne .L169
 4326 0d8c D401      		movw r26,r8
 4327 0d8e 1C96      		adiw r26,12
 4328 0d90 8D91      		ld r24,X+
 4329 0d92 9C91      		ld r25,X
 4330 0d94 1D97      		sbiw r26,12+1
 4331 0d96 00C0      		rjmp .L204
 4332               	.L170:
 4333 0d98 8485      		ldd r24,Z+12
 4334 0d9a 9585      		ldd r25,Z+13
 4335 0d9c 0097      		sbiw r24,0
 4336 0d9e 01F0      		breq .L169
 4337 0da0 8815      		cp r24,r8
 4338 0da2 9905      		cpc r25,r9
 4339 0da4 01F4      		brne .+2
 4340 0da6 00C0      		rjmp .L203
 4341               	.L169:
 4342 0da8 9093 0000 		sts (tcp_tmp_pcb)+1,r25
 4343 0dac 8093 0000 		sts tcp_tmp_pcb,r24
 4344 0db0 E091 0000 		lds r30,tcp_tmp_pcb
 4345 0db4 F091 0000 		lds r31,(tcp_tmp_pcb)+1
 4346 0db8 3097      		sbiw r30,0
 4347 0dba 01F4      		brne .L170
 4348 0dbc 00C0      		rjmp .L172
 4349               	.LVL155:
 4350               	.L145:
 4351               	.LSM339:
 4352 0dbe C401      		movw r24,r8
 4353 0dc0 0E94 0000 		call tcp_receive
 4354               	.LVL156:
 4355               	.LSM340:
 4356 0dc4 8091 0000 		lds r24,flags
 4357 0dc8 84FF      		sbrs r24,4
 4358 0dca 00C0      		rjmp .L139
 4359 0dcc F1E4      		ldi r31,lo8(65)
 4360 0dce CF2E      		mov r12,r31
 4361 0dd0 D12C      		mov r13,__zero_reg__
 4362 0dd2 8C0C      		add r8,r12
 4363 0dd4 9D1C      		adc r9,r13
 4364 0dd6 2091 0000 		lds r18,ackno
 4365 0dda 3091 0000 		lds r19,(ackno)+1
 4366 0dde 4091 0000 		lds r20,(ackno)+2
 4367 0de2 5091 0000 		lds r21,(ackno)+3
 4368 0de6 F401      		movw r30,r8
 4369 0de8 8081      		ld r24,Z
 4370 0dea 9181      		ldd r25,Z+1
 4371 0dec A281      		ldd r26,Z+2
 4372 0dee B381      		ldd r27,Z+3
 4373 0df0 EFEB      		ldi r30,lo8(-65)
 4374 0df2 CE2E      		mov r12,r30
 4375 0df4 EFEF      		ldi r30,hi8(-65)
 4376 0df6 DE2E      		mov r13,r30
 4377 0df8 8C0C      		add r8,r12
 4378 0dfa 9D1C      		adc r9,r13
 4379 0dfc 2817      		cp r18,r24
 4380 0dfe 3907      		cpc r19,r25
 4381 0e00 4A07      		cpc r20,r26
 4382 0e02 5B07      		cpc r21,r27
 4383 0e04 01F0      		breq .+2
 4384 0e06 00C0      		rjmp .L139
 4385               	.LSM341:
 4386 0e08 D401      		movw r26,r8
 4387 0e0a 5696      		adiw r26,22
 4388 0e0c 8C91      		ld r24,X
 4389 0e0e 5697      		sbiw r26,22
 4390 0e10 8260      		ori r24,lo8(2)
 4391 0e12 5696      		adiw r26,22
 4392 0e14 8C93      		st X,r24
 4393 0e16 C401      		movw r24,r8
 4394 0e18 0E94 0000 		call tcp_output
 4395               	.LSM342:
 4396 0e1c C401      		movw r24,r8
 4397 0e1e 0E94 0000 		call tcp_pcb_purge
 4398               	.LSM343:
 4399 0e22 8091 0000 		lds r24,tcp_active_pcbs
 4400 0e26 9091 0000 		lds r25,(tcp_active_pcbs)+1
 4401 0e2a 8815      		cp r24,r8
 4402 0e2c 9905      		cpc r25,r9
 4403 0e2e 01F4      		brne .L174
 4404               	.L202:
 4405 0e30 F401      		movw r30,r8
 4406 0e32 8485      		ldd r24,Z+12
 4407 0e34 9585      		ldd r25,Z+13
 4408               	.L204:
 4409 0e36 9093 0000 		sts (tcp_active_pcbs)+1,r25
 4410 0e3a 8093 0000 		sts tcp_active_pcbs,r24
 4411 0e3e 00C0      		rjmp .L172
 4412               	.L175:
 4413 0e40 8485      		ldd r24,Z+12
 4414 0e42 9585      		ldd r25,Z+13
 4415 0e44 0097      		sbiw r24,0
 4416 0e46 01F0      		breq .L174
 4417 0e48 8815      		cp r24,r8
 4418 0e4a 9905      		cpc r25,r9
 4419 0e4c 01F4      		brne .L174
 4420               	.L203:
 4421 0e4e D401      		movw r26,r8
 4422 0e50 1C96      		adiw r26,12
 4423 0e52 8D91      		ld r24,X+
 4424 0e54 9C91      		ld r25,X
 4425 0e56 1D97      		sbiw r26,12+1
 4426 0e58 9587      		std Z+13,r25
 4427 0e5a 8487      		std Z+12,r24
 4428 0e5c 00C0      		rjmp .L172
 4429               	.L174:
 4430 0e5e 9093 0000 		sts (tcp_tmp_pcb)+1,r25
 4431 0e62 8093 0000 		sts tcp_tmp_pcb,r24
 4432 0e66 E091 0000 		lds r30,tcp_tmp_pcb
 4433 0e6a F091 0000 		lds r31,(tcp_tmp_pcb)+1
 4434 0e6e 3097      		sbiw r30,0
 4435 0e70 01F4      		brne .L175
 4436               	.L172:
 4437               	.LSM344:
 4438 0e72 8AE0      		ldi r24,lo8(10)
 4439 0e74 F401      		movw r30,r8
 4440 0e76 8687      		std Z+14,r24
 4441               	.LSM345:
 4442 0e78 8091 0000 		lds r24,tcp_tw_pcbs
 4443 0e7c 9091 0000 		lds r25,(tcp_tw_pcbs)+1
 4444 0e80 9587      		std Z+13,r25
 4445 0e82 8487      		std Z+12,r24
 4446 0e84 9092 0000 		sts (tcp_tw_pcbs)+1,r9
 4447 0e88 8092 0000 		sts tcp_tw_pcbs,r8
 4448 0e8c 00C0      		rjmp .L139
 4449               	.LVL157:
 4450               	.L208:
 4451               	.LSM346:
 4452 0e8e C401      		movw r24,r8
 4453 0e90 0E94 0000 		call tcp_receive
 4454               	.LVL158:
 4455               	.LSM347:
 4456 0e94 8091 0000 		lds r24,flags
 4457 0e98 84FF      		sbrs r24,4
 4458 0e9a 00C0      		rjmp .L139
 4459 0e9c 71E4      		ldi r23,lo8(65)
 4460 0e9e C72E      		mov r12,r23
 4461 0ea0 D12C      		mov r13,__zero_reg__
 4462 0ea2 8C0C      		add r8,r12
 4463 0ea4 9D1C      		adc r9,r13
 4464 0ea6 2091 0000 		lds r18,ackno
 4465 0eaa 3091 0000 		lds r19,(ackno)+1
 4466 0eae 4091 0000 		lds r20,(ackno)+2
 4467 0eb2 5091 0000 		lds r21,(ackno)+3
 4468 0eb6 F401      		movw r30,r8
 4469 0eb8 8081      		ld r24,Z
 4470 0eba 9181      		ldd r25,Z+1
 4471 0ebc A281      		ldd r26,Z+2
 4472 0ebe B381      		ldd r27,Z+3
 4473 0ec0 6FEB      		ldi r22,lo8(-65)
 4474 0ec2 C62E      		mov r12,r22
 4475 0ec4 6FEF      		ldi r22,hi8(-65)
 4476 0ec6 D62E      		mov r13,r22
 4477 0ec8 8C0C      		add r8,r12
 4478 0eca 9D1C      		adc r9,r13
 4479 0ecc 2817      		cp r18,r24
 4480 0ece 3907      		cpc r19,r25
 4481 0ed0 4A07      		cpc r20,r26
 4482 0ed2 5B07      		cpc r21,r27
 4483 0ed4 01F4      		brne .L139
 4484               	.LSM348:
 4485 0ed6 80E1      		ldi r24,lo8(16)
 4486 0ed8 8093 0000 		sts recv_flags,r24
 4487               	.LVL159:
 4488               	.L139:
 4489 0edc 80E0      		ldi r24,lo8(0)
 4490               	.LVL160:
 4491               	.L154:
 4492               	.LBE19:
 4493               	.LBE18:
 4494               	.LSM349:
 4495 0ede 1092 0000 		sts (tcp_input_pcb)+1,__zero_reg__
 4496 0ee2 1092 0000 		sts tcp_input_pcb,__zero_reg__
 4497               	.LSM350:
 4498 0ee6 8C3F      		cpi r24,lo8(-4)
 4499 0ee8 01F4      		brne .+2
 4500 0eea 00C0      		rjmp .L176
 4501               	.LSM351:
 4502 0eec 8091 0000 		lds r24,recv_flags
 4503               	.LVL161:
 4504 0ef0 83FF      		sbrs r24,3
 4505 0ef2 00C0      		rjmp .L177
 4506               	.LSM352:
 4507 0ef4 3FE6      		ldi r19,lo8(111)
 4508 0ef6 E32E      		mov r14,r19
 4509 0ef8 F12C      		mov r15,__zero_reg__
 4510 0efa 8E0C      		add r8,r14
 4511 0efc 9F1C      		adc r9,r15
 4512 0efe D401      		movw r26,r8
 4513 0f00 ED91      		ld r30,X+
 4514 0f02 FC91      		ld r31,X
 4515 0f04 21E9      		ldi r18,lo8(-111)
 4516 0f06 C22E      		mov r12,r18
 4517 0f08 2FEF      		ldi r18,hi8(-111)
 4518 0f0a D22E      		mov r13,r18
 4519 0f0c 8C0C      		add r8,r12
 4520 0f0e 9D1C      		adc r9,r13
 4521 0f10 3097      		sbiw r30,0
 4522 0f12 01F0      		breq .L195
 4523 0f14 D401      		movw r26,r8
 4524 0f16 5096      		adiw r26,16
 4525 0f18 8D91      		ld r24,X+
 4526 0f1a 9C91      		ld r25,X
 4527 0f1c 5197      		sbiw r26,16+1
 4528 0f1e 6BEF      		ldi r22,lo8(-5)
 4529 0f20 0995      		icall
 4530               	.LVL162:
 4531 0f22 00C0      		rjmp .L195
 4532               	.LVL163:
 4533               	.L177:
 4534               	.LSM353:
 4535 0f24 84FF      		sbrs r24,4
 4536 0f26 00C0      		rjmp .L179
 4537               	.L195:
 4538               	.LSM354:
 4539 0f28 80E0      		ldi r24,lo8(tcp_active_pcbs)
 4540 0f2a 90E0      		ldi r25,hi8(tcp_active_pcbs)
 4541 0f2c B401      		movw r22,r8
 4542 0f2e 0E94 0000 		call tcp_pcb_remove
 4543               	.LVL164:
 4544               	.LSM355:
 4545 0f32 82E0      		ldi r24,lo8(2)
 4546 0f34 B401      		movw r22,r8
 4547 0f36 0E94 0000 		call memp_free
 4548 0f3a 00C0      		rjmp .L176
 4549               	.LVL165:
 4550               	.L179:
 4551               	.LSM356:
 4552 0f3c E7E5      		ldi r30,lo8(87)
 4553 0f3e F0E0      		ldi r31,hi8(87)
 4554 0f40 8E0E      		add r8,r30
 4555 0f42 9F1E      		adc r9,r31
 4556 0f44 D401      		movw r26,r8
 4557 0f46 4D91      		ld r20,X+
 4558 0f48 5C91      		ld r21,X
 4559 0f4a E9EA      		ldi r30,lo8(-87)
 4560 0f4c FFEF      		ldi r31,hi8(-87)
 4561 0f4e 8E0E      		add r8,r30
 4562 0f50 9F1E      		adc r9,r31
 4563 0f52 4115      		cp r20,__zero_reg__
 4564 0f54 5105      		cpc r21,__zero_reg__
 4565 0f56 01F0      		breq .L180
 4566               	.LSM357:
 4567 0f58 95E6      		ldi r25,lo8(101)
 4568 0f5a C92E      		mov r12,r25
 4569 0f5c D12C      		mov r13,__zero_reg__
 4570               	.LVL166:
 4571 0f5e 8C0C      		add r8,r12
 4572 0f60 9D1C      		adc r9,r13
 4573 0f62 D401      		movw r26,r8
 4574 0f64 ED91      		ld r30,X+
 4575 0f66 FC91      		ld r31,X
 4576 0f68 8BE9      		ldi r24,lo8(-101)
 4577 0f6a C82E      		mov r12,r24
 4578 0f6c 8FEF      		ldi r24,hi8(-101)
 4579 0f6e D82E      		mov r13,r24
 4580 0f70 8C0C      		add r8,r12
 4581 0f72 9D1C      		adc r9,r13
 4582 0f74 3097      		sbiw r30,0
 4583 0f76 01F0      		breq .L180
 4584 0f78 D401      		movw r26,r8
 4585 0f7a 5096      		adiw r26,16
 4586 0f7c 8D91      		ld r24,X+
 4587 0f7e 9C91      		ld r25,X
 4588 0f80 5197      		sbiw r26,16+1
 4589 0f82 B401      		movw r22,r8
 4590 0f84 0995      		icall
 4591 0f86 282F      		mov r18,r24
 4592               	.LVL167:
 4593 0f88 00C0      		rjmp .L181
 4594               	.LVL168:
 4595               	.L180:
 4596 0f8a 20E0      		ldi r18,lo8(0)
 4597               	.LVL169:
 4598               	.L181:
 4599               	.LSM358:
 4600 0f8c E091 0000 		lds r30,recv_data
 4601 0f90 F091 0000 		lds r31,(recv_data)+1
 4602 0f94 3097      		sbiw r30,0
 4603 0f96 01F0      		breq .L182
 4604               	.LSM359:
 4605 0f98 8091 0000 		lds r24,flags
 4606 0f9c 83FF      		sbrs r24,3
 4607 0f9e 00C0      		rjmp .L183
 4608               	.LSM360:
 4609 0fa0 8185      		ldd r24,Z+9
 4610 0fa2 8160      		ori r24,lo8(1)
 4611 0fa4 8187      		std Z+9,r24
 4612               	.L183:
 4613               	.LSM361:
 4614 0fa6 E7E6      		ldi r30,lo8(103)
 4615 0fa8 F0E0      		ldi r31,hi8(103)
 4616 0faa 8E0E      		add r8,r30
 4617 0fac 9F1E      		adc r9,r31
 4618 0fae D401      		movw r26,r8
 4619 0fb0 ED91      		ld r30,X+
 4620 0fb2 FC91      		ld r31,X
 4621 0fb4 09E9      		ldi r16,lo8(-103)
 4622 0fb6 C02E      		mov r12,r16
 4623 0fb8 0FEF      		ldi r16,hi8(-103)
 4624 0fba D02E      		mov r13,r16
 4625               	.LVL170:
 4626 0fbc 8C0C      		add r8,r12
 4627 0fbe 9D1C      		adc r9,r13
 4628 0fc0 4091 0000 		lds r20,recv_data
 4629 0fc4 5091 0000 		lds r21,(recv_data)+1
 4630 0fc8 3097      		sbiw r30,0
 4631 0fca 01F0      		breq .L184
 4632 0fcc D401      		movw r26,r8
 4633 0fce 5096      		adiw r26,16
 4634 0fd0 8D91      		ld r24,X+
 4635 0fd2 9C91      		ld r25,X
 4636 0fd4 5197      		sbiw r26,16+1
 4637 0fd6 B401      		movw r22,r8
 4638 0fd8 20E0      		ldi r18,lo8(0)
 4639               	.LVL171:
 4640 0fda 0995      		icall
 4641               	.LVL172:
 4642 0fdc 282F      		mov r18,r24
 4643               	.LVL173:
 4644               	.LSM362:
 4645 0fde 8823      		tst r24
 4646 0fe0 01F4      		brne .L185
 4647               	.LVL174:
 4648 0fe2 00C0      		rjmp .L182
 4649               	.LVL175:
 4650               	.L184:
 4651               	.LSM363:
 4652 0fe4 4115      		cp r20,__zero_reg__
 4653 0fe6 5105      		cpc r21,__zero_reg__
 4654 0fe8 01F4      		brne .+2
 4655 0fea 00C0      		rjmp .L186
 4656 0fec CA01      		movw r24,r20
 4657 0fee 0E94 0000 		call pbuf_free
 4658               	.LVL176:
 4659 0ff2 00C0      		rjmp .L186
 4660               	.LVL177:
 4661               	.L185:
 4662               	.LSM364:
 4663 0ff4 E3E6      		ldi r30,lo8(99)
 4664 0ff6 F0E0      		ldi r31,hi8(99)
 4665 0ff8 8E0E      		add r8,r30
 4666 0ffa 9F1E      		adc r9,r31
 4667 0ffc 8091 0000 		lds r24,recv_data
 4668 1000 9091 0000 		lds r25,(recv_data)+1
 4669               	.LVL178:
 4670 1004 D401      		movw r26,r8
 4671 1006 8D93      		st X+,r24
 4672 1008 9C93      		st X,r25
 4673 100a EDE9      		ldi r30,lo8(-99)
 4674 100c FFEF      		ldi r31,hi8(-99)
 4675 100e 8E0E      		add r8,r30
 4676 1010 9F1E      		adc r9,r31
 4677               	.LVL179:
 4678               	.L182:
 4679               	.LSM365:
 4680 1012 8091 0000 		lds r24,recv_flags
 4681 1016 85FF      		sbrs r24,5
 4682 1018 00C0      		rjmp .L187
 4683               	.LSM366:
 4684 101a 17E6      		ldi r17,lo8(103)
 4685 101c C12E      		mov r12,r17
 4686 101e D12C      		mov r13,__zero_reg__
 4687 1020 8C0C      		add r8,r12
 4688 1022 9D1C      		adc r9,r13
 4689 1024 D401      		movw r26,r8
 4690 1026 ED91      		ld r30,X+
 4691 1028 FC91      		ld r31,X
 4692 102a B9E9      		ldi r27,lo8(-103)
 4693 102c CB2E      		mov r12,r27
 4694 102e BFEF      		ldi r27,hi8(-103)
 4695 1030 DB2E      		mov r13,r27
 4696 1032 8C0C      		add r8,r12
 4697 1034 9D1C      		adc r9,r13
 4698 1036 3097      		sbiw r30,0
 4699 1038 01F0      		breq .L188
 4700 103a D401      		movw r26,r8
 4701 103c 5096      		adiw r26,16
 4702 103e 8D91      		ld r24,X+
 4703 1040 9C91      		ld r25,X
 4704 1042 5197      		sbiw r26,16+1
 4705 1044 B401      		movw r22,r8
 4706 1046 40E0      		ldi r20,lo8(0)
 4707 1048 50E0      		ldi r21,hi8(0)
 4708 104a 20E0      		ldi r18,lo8(0)
 4709               	.LVL180:
 4710 104c 0995      		icall
 4711               	.LVL181:
 4712 104e 282F      		mov r18,r24
 4713               	.LVL182:
 4714               	.L187:
 4715               	.LSM367:
 4716 1050 2223      		tst r18
 4717 1052 01F4      		brne .L176
 4718               	.L188:
 4719               	.LSM368:
 4720 1054 C401      		movw r24,r8
 4721 1056 0E94 0000 		call tcp_output
 4722               	.LVL183:
 4723               	.L176:
 4724               	.LSM369:
 4725 105a 8091 0000 		lds r24,inseg+2
 4726 105e 9091 0000 		lds r25,(inseg+2)+1
 4727               	.LVL184:
 4728 1062 0097      		sbiw r24,0
 4729 1064 01F4      		brne .+2
 4730 1066 00C0      		rjmp .L191
 4731               	.LSM370:
 4732 1068 0E94 0000 		call pbuf_free
 4733               	.LVL185:
 4734               	.LSM371:
 4735 106c 1092 0000 		sts (inseg+2)+1,__zero_reg__
 4736 1070 1092 0000 		sts inseg+2,__zero_reg__
 4737 1074 00C0      		rjmp .L191
 4738               	.LVL186:
 4739               	.L206:
 4740               	.LSM372:
 4741 1076 FB01      		movw r30,r22
 4742               	.LVL187:
 4743 1078 8485      		ldd r24,Z+12
 4744 107a 9585      		ldd r25,Z+13
 4745 107c 0E94 0000 		call ntohs
 4746               	.LVL188:
 4747 1080 82FD      		sbrc r24,2
 4748 1082 00C0      		rjmp .L189
 4749               	.LSM373:
 4750 1084 8091 0000 		lds r24,lwip_stats+148
 4751 1088 9091 0000 		lds r25,(lwip_stats+148)+1
 4752 108c 0196      		adiw r24,1
 4753 108e 9093 0000 		sts (lwip_stats+148)+1,r25
 4754 1092 8093 0000 		sts lwip_stats+148,r24
 4755               	.LSM374:
 4756 1096 8091 0000 		lds r24,lwip_stats+138
 4757 109a 9091 0000 		lds r25,(lwip_stats+138)+1
 4758 109e 0196      		adiw r24,1
 4759 10a0 9093 0000 		sts (lwip_stats+138)+1,r25
 4760 10a4 8093 0000 		sts lwip_stats+138,r24
 4761               	.LSM375:
 4762 10a8 0091 0000 		lds r16,iphdr
 4763 10ac 1091 0000 		lds r17,(iphdr)+1
 4764               	.LVL189:
 4765 10b0 E091 0000 		lds r30,tcphdr
 4766 10b4 F091 0000 		lds r31,(tcphdr)+1
 4767 10b8 6091 0000 		lds r22,ackno
 4768 10bc 7091 0000 		lds r23,(ackno)+1
 4769 10c0 8091 0000 		lds r24,(ackno)+2
 4770 10c4 9091 0000 		lds r25,(ackno)+3
 4771               	.LVL190:
 4772               	.L199:
 4773 10c8 2091 0000 		lds r18,tcplen
 4774 10cc 3091 0000 		lds r19,(tcplen)+1
 4775 10d0 40E0      		ldi r20,lo8(0)
 4776 10d2 50E0      		ldi r21,hi8(0)
 4777 10d4 C090 0000 		lds r12,seqno
 4778 10d8 D090 0000 		lds r13,(seqno)+1
 4779 10dc E090 0000 		lds r14,(seqno)+2
 4780 10e0 F090 0000 		lds r15,(seqno)+3
 4781 10e4 2C0D      		add r18,r12
 4782 10e6 3D1D      		adc r19,r13
 4783 10e8 4E1D      		adc r20,r14
 4784 10ea 5F1D      		adc r21,r15
 4785 10ec D801      		movw r26,r16
 4786 10ee 1C96      		adiw r26,12
 4787 10f0 C280      		ldd r12,Z+2
 4788 10f2 D380      		ldd r13,Z+3
 4789 10f4 A080      		ld r10,Z
 4790 10f6 B180      		ldd r11,Z+1
 4791 10f8 005F      		subi r16,lo8(-(16))
 4792 10fa 1F4F      		sbci r17,hi8(-(16))
 4793 10fc 7D01      		movw r14,r26
 4794 10fe 0E94 0000 		call tcp_rst
 4795               	.LVL191:
 4796               	.L189:
 4797               	.LSM376:
 4798 1102 C301      		movw r24,r6
 4799 1104 0E94 0000 		call pbuf_free
 4800               	.LVL192:
 4801 1108 00C0      		rjmp .L191
 4802               	.LVL193:
 4803               	.L138:
 4804               	.LBB31:
 4805               	.LBB30:
 4806               	.LSM377:
 4807 110a 88E0      		ldi r24,lo8(8)
 4808 110c 8093 0000 		sts recv_flags,r24
 4809               	.LSM378:
 4810 1110 D401      		movw r26,r8
 4811 1112 5696      		adiw r26,22
 4812 1114 8C91      		ld r24,X
 4813 1116 5697      		sbiw r26,22
 4814 1118 8E7F      		andi r24,lo8(-2)
 4815 111a 5696      		adiw r26,22
 4816 111c 8C93      		st X,r24
 4817 111e 8BEF      		ldi r24,lo8(-5)
 4818               	.LVL194:
 4819 1120 00C0      		rjmp .L154
 4820               	.LVL195:
 4821               	.L186:
 4822 1122 20E0      		ldi r18,lo8(0)
 4823 1124 00C0      		rjmp .L182
 4824               	.LVL196:
 4825               	.L205:
 4826               	.LBE30:
 4827               	.LBE31:
 4828               	.LSM379:
 4829 1126 0091 0000 		lds r16,tcp_tw_pcbs
 4830 112a 1091 0000 		lds r17,(tcp_tw_pcbs)+1
 4831               	.LVL197:
 4832 112e 00C0      		rjmp .L190
 4833               	.LVL198:
 4834               	.L191:
 4835               	/* epilogue start */
 4836               	.LSM380:
 4837 1130 0F90      		pop __tmp_reg__
 4838 1132 0F90      		pop __tmp_reg__
 4839 1134 0F90      		pop __tmp_reg__
 4840 1136 0F90      		pop __tmp_reg__
 4841 1138 CF91      		pop r28
 4842 113a DF91      		pop r29
 4843 113c 1F91      		pop r17
 4844 113e 0F91      		pop r16
 4845               	.LVL199:
 4846 1140 FF90      		pop r15
 4847 1142 EF90      		pop r14
 4848               	.LVL200:
 4849 1144 DF90      		pop r13
 4850 1146 CF90      		pop r12
 4851 1148 BF90      		pop r11
 4852 114a AF90      		pop r10
 4853               	.LVL201:
 4854 114c 9F90      		pop r9
 4855 114e 8F90      		pop r8
 4856               	.LVL202:
 4857 1150 7F90      		pop r7
 4858 1152 6F90      		pop r6
 4859               	.LVL203:
 4860 1154 5F90      		pop r5
 4861 1156 4F90      		pop r4
 4862 1158 3F90      		pop r3
 4863 115a 2F90      		pop r2
 4864 115c 0895      		ret
 4865               	.LFE2:
 4867               		.lcomm inseg,10
 4868               		.lcomm tcphdr,2
 4869               		.lcomm iphdr,2
 4870               		.lcomm seqno,4
 4871               		.lcomm ackno,4
 4872               		.lcomm flags,1
 4873               		.lcomm tcplen,2
 4874               		.lcomm recv_flags,1
 4875               		.lcomm recv_data,2
 4876               		.comm tcp_input_pcb,2,1
 4917               	.Letext0:
DEFINED SYMBOLS
                            *ABS*:00000000 tcp_in.c
C:\DOCUME~1\ADMINI~1\LOCALS~1\Temp/ccJdtb1b.s:2      *ABS*:0000003f __SREG__
C:\DOCUME~1\ADMINI~1\LOCALS~1\Temp/ccJdtb1b.s:3      *ABS*:0000003e __SP_H__
C:\DOCUME~1\ADMINI~1\LOCALS~1\Temp/ccJdtb1b.s:4      *ABS*:0000003d __SP_L__
C:\DOCUME~1\ADMINI~1\LOCALS~1\Temp/ccJdtb1b.s:5      *ABS*:00000034 __CCP__
C:\DOCUME~1\ADMINI~1\LOCALS~1\Temp/ccJdtb1b.s:6      *ABS*:00000000 __tmp_reg__
C:\DOCUME~1\ADMINI~1\LOCALS~1\Temp/ccJdtb1b.s:7      *ABS*:00000001 __zero_reg__
C:\DOCUME~1\ADMINI~1\LOCALS~1\Temp/ccJdtb1b.s:18     .text.tcp_parseopt:00000000 tcp_parseopt
C:\DOCUME~1\ADMINI~1\LOCALS~1\Temp/ccJdtb1b.s:4867   .bss:0000000a tcphdr
C:\DOCUME~1\ADMINI~1\LOCALS~1\Temp/ccJdtb1b.s:155    .text.tcp_receive:00000000 tcp_receive
C:\DOCUME~1\ADMINI~1\LOCALS~1\Temp/ccJdtb1b.s:4871   .bss:00000016 flags
C:\DOCUME~1\ADMINI~1\LOCALS~1\Temp/ccJdtb1b.s:4869   .bss:0000000e seqno
C:\DOCUME~1\ADMINI~1\LOCALS~1\Temp/ccJdtb1b.s:4870   .bss:00000012 ackno
C:\DOCUME~1\ADMINI~1\LOCALS~1\Temp/ccJdtb1b.s:4872   .bss:00000017 tcplen
                             .bss:00000000 inseg
C:\DOCUME~1\ADMINI~1\LOCALS~1\Temp/ccJdtb1b.s:4874   .bss:0000001a recv_data
C:\DOCUME~1\ADMINI~1\LOCALS~1\Temp/ccJdtb1b.s:4873   .bss:00000019 recv_flags
C:\DOCUME~1\ADMINI~1\LOCALS~1\Temp/ccJdtb1b.s:2532   .text.tcp_input:00000000 tcp_input
C:\DOCUME~1\ADMINI~1\LOCALS~1\Temp/ccJdtb1b.s:4868   .bss:0000000c iphdr
                            *COM*:00000002 tcp_input_pcb

UNDEFINED SYMBOLS
ntohs
tcp_rexmit
__udivmodhi4
pbuf_clen
tcp_seg_free
ntohl
htonl
tcp_ticks
pbuf_header
tcp_output
pbuf_realloc
memp_free
pbuf_cat
tcp_seg_copy
lwip_stats
ip_addr_isbroadcast
inet_chksum_pseudo
tcp_active_pcbs
tcp_listen_pcbs
tcp_alloc
tcp_eff_send_mss
tcp_enqueue
pbuf_free
tcp_abort
tcp_rst
tcp_pcb_purge
tcp_tmp_pcb
tcp_tw_pcbs
tcp_pcb_remove
__do_clear_bss
