   1               		.file	"udp.c"
   2               	__SREG__ = 0x3f
   3               	__SP_H__ = 0x3e
   4               	__SP_L__ = 0x3d
   5               	__CCP__  = 0x34
   6               	__tmp_reg__ = 0
   7               	__zero_reg__ = 1
  15               	.Ltext0:
  16               		.section	.text.udp_bind,"ax",@progbits
  17               	.global	udp_bind
  19               	udp_bind:
  20               	.LFB6:
  21               	.LSM0:
  22               	.LVL0:
  23 0000 FF92      		push r15
  24 0002 0F93      		push r16
  25 0004 1F93      		push r17
  26 0006 CF93      		push r28
  27 0008 DF93      		push r29
  28               	/* prologue: function */
  29               	/* frame size = 0 */
  30 000a DC01      		movw r26,r24
  31 000c EB01      		movw r28,r22
  32               	.LSM1:
  33 000e 1091 0000 		lds r17,udp_pcbs
  34               	.LVL1:
  35 0012 0091 0000 		lds r16,udp_pcbs+1
  36               	.LVL2:
  37 0016 812F      		mov r24,r17
  38               	.LVL3:
  39 0018 902F      		mov r25,r16
  40 001a 9C01      		movw r18,r24
  41 001c F901      		movw r30,r18
  42 001e FF24      		clr r15
  43               	.LVL4:
  44 0020 00C0      		rjmp .L2
  45               	.LVL5:
  46               	.L4:
  47               	.LSM2:
  48 0022 AE17      		cp r26,r30
  49 0024 BF07      		cpc r27,r31
  50 0026 01F4      		brne .L3
  51 0028 FF24      		clr r15
  52 002a F394      		inc r15
  53               	.L3:
  54               	.LSM3:
  55 002c 0484      		ldd __tmp_reg__,Z+12
  56 002e F585      		ldd r31,Z+13
  57 0030 E02D      		mov r30,__tmp_reg__
  58               	.LVL6:
  59               	.L2:
  60 0032 3097      		sbiw r30,0
  61 0034 01F4      		brne .L4
  62               	.LSM4:
  63 0036 2097      		sbiw r28,0
  64 0038 01F4      		brne .L5
  65 003a 60E0      		ldi r22,lo8(0)
  66 003c 70E0      		ldi r23,hi8(0)
  67 003e 80E0      		ldi r24,hlo8(0)
  68 0040 90E0      		ldi r25,hhi8(0)
  69 0042 00C0      		rjmp .L6
  70               	.LVL7:
  71               	.L5:
  72 0044 6881      		ld r22,Y
  73 0046 7981      		ldd r23,Y+1
  74 0048 8A81      		ldd r24,Y+2
  75 004a 9B81      		ldd r25,Y+3
  76               	.L6:
  77 004c 6D93      		st X+,r22
  78 004e 7D93      		st X+,r23
  79 0050 8D93      		st X+,r24
  80 0052 9C93      		st X,r25
  81 0054 1397      		sbiw r26,3
  82               	.LSM5:
  83 0056 4115      		cp r20,__zero_reg__
  84 0058 5105      		cpc r21,__zero_reg__
  85 005a 01F4      		brne .L7
  86 005c 812F      		mov r24,r17
  87 005e 902F      		mov r25,r16
  88 0060 9C01      		movw r18,r24
  89 0062 F901      		movw r30,r18
  90 0064 40E0      		ldi r20,lo8(4096)
  91 0066 50E1      		ldi r21,hi8(4096)
  92               	.LVL8:
  93 0068 00C0      		rjmp .L14
  94               	.L10:
  95               	.LSM6:
  96 006a 8785      		ldd r24,Z+15
  97 006c 9089      		ldd r25,Z+16
  98 006e 8417      		cp r24,r20
  99 0070 9507      		cpc r25,r21
 100 0072 01F4      		brne .L9
 101               	.LSM7:
 102 0074 4F5F      		subi r20,lo8(-(1))
 103 0076 5F4F      		sbci r21,hi8(-(1))
 104 0078 812F      		mov r24,r17
 105 007a 902F      		mov r25,r16
 106 007c 9C01      		movw r18,r24
 107 007e F901      		movw r30,r18
 108 0080 00C0      		rjmp .L14
 109               	.L9:
 110               	.LSM8:
 111 0082 0484      		ldd __tmp_reg__,Z+12
 112 0084 F585      		ldd r31,Z+13
 113 0086 E02D      		mov r30,__tmp_reg__
 114               	.LVL9:
 115               	.L14:
 116               	.LSM9:
 117 0088 3097      		sbiw r30,0
 118 008a 01F0      		breq .L7
 119 008c 8FE7      		ldi r24,hi8(32767)
 120 008e 4F3F      		cpi r20,lo8(32767)
 121 0090 5807      		cpc r21,r24
 122 0092 01F4      		brne .L10
 123 0094 86EF      		ldi r24,lo8(-10)
 124 0096 00C0      		rjmp .L11
 125               	.L7:
 126               	.LSM10:
 127 0098 5096      		adiw r26,15+1
 128 009a 5C93      		st X,r21
 129 009c 4E93      		st -X,r20
 130 009e 1F97      		sbiw r26,15
 131               	.LSM11:
 132 00a0 FF20      		tst r15
 133 00a2 01F4      		brne .L15
 134               	.L12:
 135               	.LSM12:
 136 00a4 1C96      		adiw r26,12
 137 00a6 1C93      		st X,r17
 138 00a8 1C97      		sbiw r26,12
 139 00aa 1D96      		adiw r26,13
 140 00ac 0C93      		st X,r16
 141 00ae 1D97      		sbiw r26,13
 142               	.LSM13:
 143 00b0 B093 0000 		sts (udp_pcbs)+1,r27
 144 00b4 A093 0000 		sts udp_pcbs,r26
 145               	.LVL10:
 146               	.L15:
 147 00b8 80E0      		ldi r24,lo8(0)
 148               	.L11:
 149               	/* epilogue start */
 150               	.LSM14:
 151 00ba DF91      		pop r29
 152 00bc CF91      		pop r28
 153               	.LVL11:
 154 00be 1F91      		pop r17
 155 00c0 0F91      		pop r16
 156               	.LVL12:
 157 00c2 FF90      		pop r15
 158               	.LVL13:
 159 00c4 0895      		ret
 160               	.LFE6:
 162               		.section	.text.udp_connect,"ax",@progbits
 163               	.global	udp_connect
 165               	udp_connect:
 166               	.LFB7:
 167               	.LSM15:
 168               	.LVL14:
 169 0000 EF92      		push r14
 170 0002 FF92      		push r15
 171 0004 0F93      		push r16
 172 0006 1F93      		push r17
 173 0008 CF93      		push r28
 174 000a DF93      		push r29
 175               	/* prologue: function */
 176               	/* frame size = 0 */
 177 000c EC01      		movw r28,r24
 178 000e 8B01      		movw r16,r22
 179 0010 7A01      		movw r14,r20
 180               	.LSM16:
 181 0012 8F85      		ldd r24,Y+15
 182 0014 9889      		ldd r25,Y+16
 183               	.LVL15:
 184 0016 892B      		or r24,r25
 185 0018 01F4      		brne .L17
 186               	.LVL16:
 187               	.LBB2:
 188               	.LSM17:
 189 001a CE01      		movw r24,r28
 190 001c BE01      		movw r22,r28
 191 001e 40E0      		ldi r20,lo8(0)
 192 0020 50E0      		ldi r21,hi8(0)
 193 0022 0E94 0000 		call udp_bind
 194               	.LSM18:
 195 0026 8823      		tst r24
 196               	.LVL17:
 197 0028 01F4      		brne .L18
 198               	.LVL18:
 199               	.L17:
 200               	.LBE2:
 201               	.LSM19:
 202 002a 0115      		cp r16,__zero_reg__
 203 002c 1105      		cpc r17,__zero_reg__
 204 002e 01F4      		brne .L19
 205 0030 60E0      		ldi r22,lo8(0)
 206 0032 70E0      		ldi r23,hi8(0)
 207 0034 80E0      		ldi r24,hlo8(0)
 208 0036 90E0      		ldi r25,hhi8(0)
 209 0038 00C0      		rjmp .L20
 210               	.LVL19:
 211               	.L19:
 212 003a F801      		movw r30,r16
 213 003c 6081      		ld r22,Z
 214 003e 7181      		ldd r23,Z+1
 215 0040 8281      		ldd r24,Z+2
 216 0042 9381      		ldd r25,Z+3
 217               	.L20:
 218 0044 6C83      		std Y+4,r22
 219 0046 7D83      		std Y+5,r23
 220 0048 8E83      		std Y+6,r24
 221 004a 9F83      		std Y+7,r25
 222               	.LSM20:
 223 004c FA8A      		std Y+18,r15
 224 004e E98A      		std Y+17,r14
 225               	.LSM21:
 226 0050 8E85      		ldd r24,Y+14
 227               	.LVL20:
 228 0052 8460      		ori r24,lo8(4)
 229 0054 8E87      		std Y+14,r24
 230               	.LSM22:
 231 0056 4091 0000 		lds r20,udp_pcbs
 232               	.LVL21:
 233 005a 5091 0000 		lds r21,udp_pcbs+1
 234               	.LVL22:
 235 005e 9A01      		movw r18,r20
 236               	.LVL23:
 237 0060 F901      		movw r30,r18
 238               	.LVL24:
 239 0062 00C0      		rjmp .L21
 240               	.LVL25:
 241               	.L23:
 242               	.LSM23:
 243 0064 CE17      		cp r28,r30
 244 0066 DF07      		cpc r29,r31
 245 0068 01F0      		breq .L25
 246               	.L22:
 247               	.LSM24:
 248 006a 0484      		ldd __tmp_reg__,Z+12
 249 006c F585      		ldd r31,Z+13
 250 006e E02D      		mov r30,__tmp_reg__
 251               	.LVL26:
 252               	.L21:
 253 0070 3097      		sbiw r30,0
 254 0072 01F4      		brne .L23
 255               	.LSM25:
 256 0074 4C87      		std Y+12,r20
 257 0076 5D87      		std Y+13,r21
 258               	.LSM26:
 259 0078 D093 0000 		sts (udp_pcbs)+1,r29
 260 007c C093 0000 		sts udp_pcbs,r28
 261               	.L25:
 262 0080 80E0      		ldi r24,lo8(0)
 263               	.LVL27:
 264               	.L18:
 265               	.LVL28:
 266               	/* epilogue start */
 267               	.LSM27:
 268 0082 DF91      		pop r29
 269 0084 CF91      		pop r28
 270               	.LVL29:
 271 0086 1F91      		pop r17
 272 0088 0F91      		pop r16
 273               	.LVL30:
 274 008a FF90      		pop r15
 275 008c EF90      		pop r14
 276               	.LVL31:
 277 008e 0895      		ret
 278               	.LFE7:
 280               		.section	.text.udp_disconnect,"ax",@progbits
 281               	.global	udp_disconnect
 283               	udp_disconnect:
 284               	.LFB8:
 285               	.LSM28:
 286               	.LVL32:
 287               	/* prologue: function */
 288               	/* frame size = 0 */
 289 0000 FC01      		movw r30,r24
 290               	.LSM29:
 291 0002 8091 0000 		lds r24,ip_addr_any
 292 0006 9091 0000 		lds r25,(ip_addr_any)+1
 293 000a A091 0000 		lds r26,(ip_addr_any)+2
 294 000e B091 0000 		lds r27,(ip_addr_any)+3
 295               	.LVL33:
 296 0012 8483      		std Z+4,r24
 297 0014 9583      		std Z+5,r25
 298 0016 A683      		std Z+6,r26
 299 0018 B783      		std Z+7,r27
 300               	.LSM30:
 301 001a 128A      		std Z+18,__zero_reg__
 302 001c 118A      		std Z+17,__zero_reg__
 303               	.LSM31:
 304 001e 8685      		ldd r24,Z+14
 305 0020 8B7F      		andi r24,lo8(-5)
 306 0022 8687      		std Z+14,r24
 307               	/* epilogue start */
 308               	.LSM32:
 309 0024 0895      		ret
 310               	.LFE8:
 312               		.section	.text.udp_recv,"ax",@progbits
 313               	.global	udp_recv
 315               	udp_recv:
 316               	.LFB9:
 317               	.LSM33:
 318               	.LVL34:
 319               	/* prologue: function */
 320               	/* frame size = 0 */
 321 0000 FC01      		movw r30,r24
 322               	.LSM34:
 323 0002 748B      		std Z+20,r23
 324 0004 638B      		std Z+19,r22
 325               	.LSM35:
 326 0006 568B      		std Z+22,r21
 327 0008 458B      		std Z+21,r20
 328               	/* epilogue start */
 329               	.LSM36:
 330 000a 0895      		ret
 331               	.LFE9:
 333               		.section	.text.udp_new,"ax",@progbits
 334               	.global	udp_new
 336               	udp_new:
 337               	.LFB11:
 338               	.LSM37:
 339               	/* prologue: function */
 340               	/* frame size = 0 */
 341               	.LSM38:
 342 0000 81E0      		ldi r24,lo8(1)
 343 0002 0E94 0000 		call memp_malloc
 344 0006 FC01      		movw r30,r24
 345               	.LSM39:
 346 0008 0097      		sbiw r24,0
 347               	.LVL35:
 348 000a 01F0      		breq .L31
 349               	.LSM40:
 350 000c 87E1      		ldi r24,lo8(23)
 351               	.LVL36:
 352 000e DF01      		movw r26,r30
 353               	.LVL37:
 354 0010 1D92      		st X+,__zero_reg__
 355 0012 8A95      	        dec r24
 356 0014 01F4      		brne .-6
 357               	.LSM41:
 358 0016 8FEF      		ldi r24,lo8(-1)
 359 0018 8387      		std Z+11,r24
 360               	.LVL38:
 361               	.L31:
 362               	.LSM42:
 363 001a CF01      		movw r24,r30
 364               	.LVL39:
 365               	/* epilogue start */
 366 001c 0895      		ret
 367               	.LFE11:
 369               		.section	.text.udp_remove,"ax",@progbits
 370               	.global	udp_remove
 372               	udp_remove:
 373               	.LFB10:
 374               	.LSM43:
 375               	.LVL40:
 376               	/* prologue: function */
 377               	/* frame size = 0 */
 378 0000 DC01      		movw r26,r24
 379               	.LSM44:
 380 0002 E091 0000 		lds r30,udp_pcbs
 381 0006 F091 0000 		lds r31,(udp_pcbs)+1
 382               	.LVL41:
 383 000a E817      		cp r30,r24
 384 000c F907      		cpc r31,r25
 385 000e 01F4      		brne .L39
 386               	.LSM45:
 387 0010 1C96      		adiw r26,12
 388 0012 8D91      		ld r24,X+
 389 0014 9C91      		ld r25,X
 390 0016 1D97      		sbiw r26,12+1
 391               	.LVL42:
 392 0018 9093 0000 		sts (udp_pcbs)+1,r25
 393 001c 8093 0000 		sts udp_pcbs,r24
 394 0020 00C0      		rjmp .L35
 395               	.LVL43:
 396               	.L37:
 397               	.LSM46:
 398 0022 8485      		ldd r24,Z+12
 399 0024 9585      		ldd r25,Z+13
 400               	.LVL44:
 401 0026 0097      		sbiw r24,0
 402 0028 01F0      		breq .L36
 403 002a 8A17      		cp r24,r26
 404 002c 9B07      		cpc r25,r27
 405 002e 01F4      		brne .L36
 406               	.LSM47:
 407 0030 1C96      		adiw r26,12
 408 0032 8D91      		ld r24,X+
 409 0034 9C91      		ld r25,X
 410 0036 1D97      		sbiw r26,12+1
 411 0038 9587      		std Z+13,r25
 412 003a 8487      		std Z+12,r24
 413               	.L36:
 414               	.LSM48:
 415 003c 0484      		ldd __tmp_reg__,Z+12
 416 003e F585      		ldd r31,Z+13
 417 0040 E02D      		mov r30,__tmp_reg__
 418               	.LVL45:
 419               	.L39:
 420 0042 3097      		sbiw r30,0
 421 0044 01F4      		brne .L37
 422               	.L35:
 423               	.LSM49:
 424 0046 81E0      		ldi r24,lo8(1)
 425 0048 BD01      		movw r22,r26
 426 004a 0E94 0000 		call memp_free
 427               	.LVL46:
 428               	/* epilogue start */
 429               	.LSM50:
 430 004e 0895      		ret
 431               	.LFE10:
 433               		.section	.text.udp_sendto_if,"ax",@progbits
 434               	.global	udp_sendto_if
 436               	udp_sendto_if:
 437               	.LFB5:
 438               	.LSM51:
 439               	.LVL47:
 440 0000 4F92      		push r4
 441 0002 5F92      		push r5
 442 0004 6F92      		push r6
 443 0006 7F92      		push r7
 444 0008 8F92      		push r8
 445 000a 9F92      		push r9
 446 000c AF92      		push r10
 447 000e BF92      		push r11
 448 0010 CF92      		push r12
 449 0012 DF92      		push r13
 450 0014 EF92      		push r14
 451 0016 FF92      		push r15
 452 0018 0F93      		push r16
 453               	.LVL48:
 454 001a 1F93      		push r17
 455 001c CF93      		push r28
 456 001e DF93      		push r29
 457               	/* prologue: function */
 458               	/* frame size = 0 */
 459 0020 6C01      		movw r12,r24
 460 0022 4B01      		movw r8,r22
 461 0024 2A01      		movw r4,r20
 462 0026 5901      		movw r10,r18
 463 0028 3801      		movw r6,r16
 464               	.LVL49:
 465               	.LSM52:
 466 002a FC01      		movw r30,r24
 467 002c 8785      		ldd r24,Z+15
 468 002e 9089      		ldd r25,Z+16
 469               	.LVL50:
 470 0030 892B      		or r24,r25
 471 0032 01F4      		brne .L41
 472               	.LVL51:
 473               	.LSM53:
 474 0034 C601      		movw r24,r12
 475 0036 B601      		movw r22,r12
 476 0038 40E0      		ldi r20,lo8(0)
 477 003a 50E0      		ldi r21,hi8(0)
 478 003c 0E94 0000 		call udp_bind
 479 0040 182F      		mov r17,r24
 480               	.LVL52:
 481               	.LSM54:
 482 0042 8823      		tst r24
 483 0044 01F0      		breq .+2
 484 0046 00C0      		rjmp .L42
 485               	.LVL53:
 486               	.L41:
 487               	.LSM55:
 488 0048 C401      		movw r24,r8
 489               	.LVL54:
 490 004a 68E0      		ldi r22,lo8(8)
 491 004c 70E0      		ldi r23,hi8(8)
 492 004e 0E94 0000 		call pbuf_header
 493 0052 8823      		tst r24
 494 0054 01F4      		brne .L43
 495 0056 E401      		movw r28,r8
 496               	.LVL55:
 497 0058 00C0      		rjmp .L44
 498               	.LVL56:
 499               	.L43:
 500               	.LSM56:
 501 005a 81E0      		ldi r24,lo8(1)
 502 005c 68E0      		ldi r22,lo8(8)
 503 005e 70E0      		ldi r23,hi8(8)
 504 0060 40E0      		ldi r20,lo8(0)
 505 0062 0E94 0000 		call pbuf_alloc
 506 0066 EC01      		movw r28,r24
 507               	.LVL57:
 508               	.LSM57:
 509 0068 0097      		sbiw r24,0
 510 006a 01F4      		brne .L45
 511               	.LVL58:
 512 006c 1FEF      		ldi r17,lo8(-1)
 513 006e 00C0      		rjmp .L42
 514               	.L45:
 515               	.LSM58:
 516 0070 B401      		movw r22,r8
 517 0072 0E94 0000 		call pbuf_chain
 518               	.LVL59:
 519               	.L44:
 520               	.LSM59:
 521 0076 EA80      		ldd r14,Y+2
 522 0078 FB80      		ldd r15,Y+3
 523               	.LVL60:
 524               	.LSM60:
 525 007a F601      		movw r30,r12
 526 007c 8785      		ldd r24,Z+15
 527 007e 9089      		ldd r25,Z+16
 528 0080 0E94 0000 		call htons
 529 0084 F701      		movw r30,r14
 530 0086 9183      		std Z+1,r25
 531 0088 8083      		st Z,r24
 532               	.LSM61:
 533 008a C501      		movw r24,r10
 534 008c 0E94 0000 		call htons
 535 0090 F701      		movw r30,r14
 536 0092 9383      		std Z+3,r25
 537 0094 8283      		std Z+2,r24
 538               	.LSM62:
 539 0096 1782      		std Z+7,__zero_reg__
 540 0098 1682      		std Z+6,__zero_reg__
 541               	.LSM63:
 542 009a 5601      		movw r10,r12
 543               	.LVL61:
 544 009c C114      		cp r12,__zero_reg__
 545 009e D104      		cpc r13,__zero_reg__
 546 00a0 01F0      		breq .L46
 547 00a2 F601      		movw r30,r12
 548 00a4 2081      		ld r18,Z
 549 00a6 3181      		ldd r19,Z+1
 550 00a8 4281      		ldd r20,Z+2
 551 00aa 5381      		ldd r21,Z+3
 552 00ac 2115      		cp r18,__zero_reg__
 553 00ae 3105      		cpc r19,__zero_reg__
 554 00b0 4105      		cpc r20,__zero_reg__
 555 00b2 5105      		cpc r21,__zero_reg__
 556 00b4 01F4      		brne .L47
 557               	.L46:
 558               	.LSM64:
 559 00b6 42E0      		ldi r20,lo8(2)
 560 00b8 A42E      		mov r10,r20
 561 00ba B12C      		mov r11,__zero_reg__
 562 00bc A60C      		add r10,r6
 563 00be B71C      		adc r11,r7
 564 00c0 00C0      		rjmp .L48
 565               	.L47:
 566               	.LSM65:
 567 00c2 F301      		movw r30,r6
 568 00c4 8281      		ldd r24,Z+2
 569 00c6 9381      		ldd r25,Z+3
 570 00c8 A481      		ldd r26,Z+4
 571 00ca B581      		ldd r27,Z+5
 572 00cc 2817      		cp r18,r24
 573 00ce 3907      		cpc r19,r25
 574 00d0 4A07      		cpc r20,r26
 575 00d2 5B07      		cpc r21,r27
 576 00d4 01F0      		breq .L48
 577               	.LSM66:
 578 00d6 C815      		cp r28,r8
 579 00d8 D905      		cpc r29,r9
 580 00da 01F0      		breq .L53
 581               	.L49:
 582               	.LSM67:
 583 00dc CE01      		movw r24,r28
 584 00de 0E94 0000 		call pbuf_free
 585               	.L53:
 586 00e2 18EF      		ldi r17,lo8(-8)
 587 00e4 00C0      		rjmp .L42
 588               	.L48:
 589               	.LSM68:
 590 00e6 8C81      		ldd r24,Y+4
 591 00e8 9D81      		ldd r25,Y+5
 592 00ea 0E94 0000 		call htons
 593 00ee F701      		movw r30,r14
 594 00f0 9583      		std Z+5,r25
 595 00f2 8483      		std Z+4,r24
 596               	.LSM69:
 597 00f4 F601      		movw r30,r12
 598 00f6 8685      		ldd r24,Z+14
 599 00f8 80FD      		sbrc r24,0
 600 00fa 00C0      		rjmp .L50
 601               	.LSM70:
 602 00fc 0C81      		ldd r16,Y+4
 603 00fe 1D81      		ldd r17,Y+5
 604 0100 CE01      		movw r24,r28
 605 0102 B501      		movw r22,r10
 606 0104 A201      		movw r20,r4
 607 0106 21E1      		ldi r18,lo8(17)
 608 0108 0E94 0000 		call inet_chksum_pseudo
 609 010c F701      		movw r30,r14
 610 010e 9783      		std Z+7,r25
 611 0110 8683      		std Z+6,r24
 612               	.LSM71:
 613 0112 892B      		or r24,r25
 614 0114 01F4      		brne .L50
 615 0116 8FEF      		ldi r24,lo8(-1)
 616 0118 9FEF      		ldi r25,hi8(-1)
 617 011a 9783      		std Z+7,r25
 618 011c 8683      		std Z+6,r24
 619               	.LVL62:
 620               	.L50:
 621               	.LSM72:
 622 011e CE01      		movw r24,r28
 623 0120 B501      		movw r22,r10
 624 0122 A201      		movw r20,r4
 625 0124 F601      		movw r30,r12
 626 0126 2385      		ldd r18,Z+11
 627 0128 0285      		ldd r16,Z+10
 628 012a 31E1      		ldi r19,lo8(17)
 629 012c E32E      		mov r14,r19
 630               	.LVL63:
 631 012e 6301      		movw r12,r6
 632               	.LVL64:
 633 0130 0E94 0000 		call ip_output_if
 634 0134 182F      		mov r17,r24
 635               	.LSM73:
 636 0136 C815      		cp r28,r8
 637 0138 D905      		cpc r29,r9
 638 013a 01F0      		breq .L51
 639               	.LSM74:
 640 013c CE01      		movw r24,r28
 641 013e 0E94 0000 		call pbuf_free
 642               	.L51:
 643               	.LSM75:
 644 0142 8091 0000 		lds r24,lwip_stats+104
 645 0146 9091 0000 		lds r25,(lwip_stats+104)+1
 646 014a 0196      		adiw r24,1
 647 014c 9093 0000 		sts (lwip_stats+104)+1,r25
 648 0150 8093 0000 		sts lwip_stats+104,r24
 649               	.LVL65:
 650               	.L42:
 651               	.LSM76:
 652 0154 812F      		mov r24,r17
 653               	/* epilogue start */
 654 0156 DF91      		pop r29
 655 0158 CF91      		pop r28
 656               	.LVL66:
 657 015a 1F91      		pop r17
 658               	.LVL67:
 659 015c 0F91      		pop r16
 660 015e FF90      		pop r15
 661 0160 EF90      		pop r14
 662               	.LVL68:
 663 0162 DF90      		pop r13
 664 0164 CF90      		pop r12
 665               	.LVL69:
 666 0166 BF90      		pop r11
 667 0168 AF90      		pop r10
 668               	.LVL70:
 669 016a 9F90      		pop r9
 670 016c 8F90      		pop r8
 671               	.LVL71:
 672 016e 7F90      		pop r7
 673 0170 6F90      		pop r6
 674               	.LVL72:
 675 0172 5F90      		pop r5
 676 0174 4F90      		pop r4
 677               	.LVL73:
 678 0176 0895      		ret
 679               	.LFE5:
 681               		.section	.text.udp_sendto,"ax",@progbits
 682               	.global	udp_sendto
 684               	udp_sendto:
 685               	.LFB4:
 686               	.LSM77:
 687               	.LVL74:
 688 0000 AF92      		push r10
 689 0002 BF92      		push r11
 690 0004 CF92      		push r12
 691 0006 DF92      		push r13
 692 0008 EF92      		push r14
 693 000a FF92      		push r15
 694 000c 0F93      		push r16
 695 000e 1F93      		push r17
 696 0010 CF93      		push r28
 697 0012 DF93      		push r29
 698               	/* prologue: function */
 699               	/* frame size = 0 */
 700 0014 7C01      		movw r14,r24
 701 0016 6B01      		movw r12,r22
 702 0018 EA01      		movw r28,r20
 703 001a 5901      		movw r10,r18
 704               	.LSM78:
 705 001c CA01      		movw r24,r20
 706               	.LVL75:
 707 001e 0E94 0000 		call ip_route
 708               	.LVL76:
 709 0022 8C01      		movw r16,r24
 710               	.LVL77:
 711               	.LSM79:
 712 0024 0097      		sbiw r24,0
 713 0026 01F4      		brne .L55
 714               	.LVL78:
 715               	.LSM80:
 716 0028 8091 0000 		lds r24,lwip_stats+120
 717 002c 9091 0000 		lds r25,(lwip_stats+120)+1
 718               	.LVL79:
 719 0030 0196      		adiw r24,1
 720 0032 9093 0000 		sts (lwip_stats+120)+1,r25
 721 0036 8093 0000 		sts lwip_stats+120,r24
 722 003a 8DEF      		ldi r24,lo8(-3)
 723 003c 00C0      		rjmp .L56
 724               	.LVL80:
 725               	.L55:
 726               	.LSM81:
 727 003e C701      		movw r24,r14
 728               	.LVL81:
 729 0040 B601      		movw r22,r12
 730 0042 AE01      		movw r20,r28
 731 0044 9501      		movw r18,r10
 732 0046 0E94 0000 		call udp_sendto_if
 733               	.L56:
 734               	/* epilogue start */
 735               	.LSM82:
 736 004a DF91      		pop r29
 737 004c CF91      		pop r28
 738               	.LVL82:
 739 004e 1F91      		pop r17
 740 0050 0F91      		pop r16
 741               	.LVL83:
 742 0052 FF90      		pop r15
 743 0054 EF90      		pop r14
 744               	.LVL84:
 745 0056 DF90      		pop r13
 746 0058 CF90      		pop r12
 747               	.LVL85:
 748 005a BF90      		pop r11
 749 005c AF90      		pop r10
 750               	.LVL86:
 751 005e 0895      		ret
 752               	.LFE4:
 754               		.section	.text.udp_send,"ax",@progbits
 755               	.global	udp_send
 757               	udp_send:
 758               	.LFB3:
 759               	.LSM83:
 760               	.LVL87:
 761               	/* prologue: function */
 762               	/* frame size = 0 */
 763 0000 FC01      		movw r30,r24
 764               	.LSM84:
 765 0002 2189      		ldd r18,Z+17
 766 0004 3289      		ldd r19,Z+18
 767 0006 3496      		adiw r30,4
 768               	.LVL88:
 769 0008 AF01      		movw r20,r30
 770 000a 0E94 0000 		call udp_sendto
 771               	.LVL89:
 772               	/* epilogue start */
 773               	.LSM85:
 774 000e 0895      		ret
 775               	.LFE3:
 777               		.section	.text.udp_input,"ax",@progbits
 778               	.global	udp_input
 780               	udp_input:
 781               	.LFB2:
 782               	.LSM86:
 783               	.LVL90:
 784 0000 2F92      		push r2
 785 0002 3F92      		push r3
 786 0004 4F92      		push r4
 787 0006 5F92      		push r5
 788 0008 6F92      		push r6
 789 000a 7F92      		push r7
 790 000c 8F92      		push r8
 791 000e 9F92      		push r9
 792 0010 AF92      		push r10
 793 0012 BF92      		push r11
 794 0014 CF92      		push r12
 795 0016 DF92      		push r13
 796 0018 EF92      		push r14
 797 001a FF92      		push r15
 798 001c 0F93      		push r16
 799 001e 1F93      		push r17
 800 0020 DF93      		push r29
 801 0022 CF93      		push r28
 802 0024 00D0      		rcall .
 803 0026 00D0      		rcall .
 804 0028 CDB7      		in r28,__SP_L__
 805 002a DEB7      		in r29,__SP_H__
 806               	/* prologue: function */
 807               	/* frame size = 4 */
 808 002c 3C01      		movw r6,r24
 809 002e 5B01      		movw r10,r22
 810               	.LSM87:
 811 0030 8091 0000 		lds r24,lwip_stats+108
 812 0034 9091 0000 		lds r25,(lwip_stats+108)+1
 813               	.LVL91:
 814 0038 0196      		adiw r24,1
 815 003a 9093 0000 		sts (lwip_stats+108)+1,r25
 816 003e 8093 0000 		sts lwip_stats+108,r24
 817               	.LSM88:
 818 0042 D301      		movw r26,r6
 819 0044 1296      		adiw r26,2
 820 0046 8D90      		ld r8,X+
 821 0048 9C90      		ld r9,X
 822 004a 1397      		sbiw r26,2+1
 823               	.LVL92:
 824               	.LSM89:
 825 004c 1496      		adiw r26,4
 826 004e 0D91      		ld r16,X+
 827 0050 1C91      		ld r17,X
 828 0052 1597      		sbiw r26,4+1
 829 0054 F401      		movw r30,r8
 830 0056 8081      		ld r24,Z
 831 0058 9181      		ldd r25,Z+1
 832 005a 0E94 0000 		call ntohs
 833               	.LVL93:
 834 005e 292F      		mov r18,r25
 835 0060 30E0      		ldi r19,lo8(0)
 836 0062 2F70      		andi r18,lo8(15)
 837 0064 3070      		andi r19,hi8(15)
 838 0066 2E5F      		subi r18,lo8(-(2))
 839 0068 3F4F      		sbci r19,hi8(-(2))
 840 006a 220F      		lsl r18
 841 006c 331F      		rol r19
 842 006e 220F      		lsl r18
 843 0070 331F      		rol r19
 844 0072 0217      		cp r16,r18
 845 0074 1307      		cpc r17,r19
 846 0076 00F0      		brlo .L61
 847 0078 D401      		movw r26,r8
 848 007a 8D91      		ld r24,X+
 849 007c 9C91      		ld r25,X
 850 007e 0E94 0000 		call ntohs
 851 0082 692F      		mov r22,r25
 852 0084 70E0      		ldi r23,lo8(0)
 853 0086 6F70      		andi r22,lo8(15)
 854 0088 7070      		andi r23,hi8(15)
 855 008a 660F      		lsl r22
 856 008c 771F      		rol r23
 857 008e 660F      		lsl r22
 858 0090 771F      		rol r23
 859 0092 7095      		com r23
 860 0094 6195      		neg r22
 861 0096 7F4F      		sbci r23,lo8(-1)
 862 0098 C301      		movw r24,r6
 863 009a 0E94 0000 		call pbuf_header
 864 009e 8823      		tst r24
 865 00a0 01F0      		breq .L62
 866               	.L61:
 867               	.LSM90:
 868 00a2 8091 0000 		lds r24,lwip_stats+116
 869 00a6 9091 0000 		lds r25,(lwip_stats+116)+1
 870 00aa 0196      		adiw r24,1
 871 00ac 9093 0000 		sts (lwip_stats+116)+1,r25
 872 00b0 8093 0000 		sts lwip_stats+116,r24
 873 00b4 00C0      		rjmp .L85
 874               	.L62:
 875               	.LSM91:
 876 00b6 F301      		movw r30,r6
 877 00b8 C280      		ldd r12,Z+2
 878 00ba D380      		ldd r13,Z+3
 879               	.LVL94:
 880               	.LSM92:
 881 00bc D601      		movw r26,r12
 882 00be 8D91      		ld r24,X+
 883 00c0 9C91      		ld r25,X
 884 00c2 0E94 0000 		call ntohs
 885 00c6 2C01      		movw r4,r24
 886               	.LVL95:
 887               	.LSM93:
 888 00c8 F601      		movw r30,r12
 889 00ca 8281      		ldd r24,Z+2
 890 00cc 9381      		ldd r25,Z+3
 891 00ce 0E94 0000 		call ntohs
 892 00d2 1C01      		movw r2,r24
 893               	.LVL96:
 894               	.LSM94:
 895 00d4 8434      		cpi r24,68
 896 00d6 9105      		cpc r25,__zero_reg__
 897 00d8 01F4      		brne .L64
 898               	.LVL97:
 899               	.LSM95:
 900 00da 83E4      		ldi r24,lo8(67)
 901 00dc 4816      		cp r4,r24
 902 00de 5104      		cpc r5,__zero_reg__
 903               	.LVL98:
 904 00e0 01F0      		breq .+2
 905 00e2 00C0      		rjmp .L65
 906               	.LSM96:
 907 00e4 D501      		movw r26,r10
 908 00e6 5696      		adiw r26,22
 909 00e8 ED91      		ld r30,X+
 910 00ea FC91      		ld r31,X
 911 00ec 5797      		sbiw r26,22+1
 912 00ee 3097      		sbiw r30,0
 913 00f0 01F4      		brne .+2
 914 00f2 00C0      		rjmp .L65
 915 00f4 E680      		ldd r14,Z+6
 916 00f6 F780      		ldd r15,Z+7
 917               	.LVL99:
 918 00f8 E114      		cp r14,__zero_reg__
 919 00fa F104      		cpc r15,__zero_reg__
 920 00fc 01F4      		brne .+2
 921 00fe 00C0      		rjmp .L66
 922               	.LSM97:
 923 0100 F701      		movw r30,r14
 924 0102 2481      		ldd r18,Z+4
 925 0104 3581      		ldd r19,Z+5
 926 0106 4681      		ldd r20,Z+6
 927 0108 5781      		ldd r21,Z+7
 928 010a 2115      		cp r18,__zero_reg__
 929 010c 3105      		cpc r19,__zero_reg__
 930 010e 4105      		cpc r20,__zero_reg__
 931 0110 5105      		cpc r21,__zero_reg__
 932 0112 01F4      		brne .+2
 933 0114 00C0      		rjmp .L67
 934 0116 F401      		movw r30,r8
 935 0118 8485      		ldd r24,Z+12
 936 011a 9585      		ldd r25,Z+13
 937 011c A685      		ldd r26,Z+14
 938 011e B785      		ldd r27,Z+15
 939 0120 2817      		cp r18,r24
 940 0122 3907      		cpc r19,r25
 941 0124 4A07      		cpc r20,r26
 942 0126 5B07      		cpc r21,r27
 943 0128 01F0      		breq .+2
 944 012a 00C0      		rjmp .L65
 945 012c 00C0      		rjmp .L67
 946               	.LVL100:
 947               	.L64:
 948               	.LSM98:
 949 012e 8091 0000 		lds r24,udp_pcbs
 950 0132 9091 0000 		lds r25,(udp_pcbs)+1
 951               	.LVL101:
 952 0136 9C83      		std Y+4,r25
 953 0138 8B83      		std Y+3,r24
 954               	.LVL102:
 955               	.LSM99:
 956 013a D401      		movw r26,r8
 957 013c 5096      		adiw r26,16
 958 013e BA83      		std Y+2,r27
 959 0140 A983      		std Y+1,r26
 960 0142 00E0      		ldi r16,lo8(0)
 961 0144 10E0      		ldi r17,hi8(0)
 962               	.LVL103:
 963 0146 EE24      		clr r14
 964 0148 FF24      		clr r15
 965               	.LVL104:
 966 014a 00C0      		rjmp .L68
 967               	.LVL105:
 968               	.L75:
 969               	.LSM100:
 970 014c EB81      		ldd r30,Y+3
 971 014e FC81      		ldd r31,Y+4
 972 0150 8785      		ldd r24,Z+15
 973 0152 9089      		ldd r25,Z+16
 974 0154 8215      		cp r24,r2
 975 0156 9305      		cpc r25,r3
 976 0158 01F0      		breq .+2
 977 015a 00C0      		rjmp .L69
 978               	.LSM101:
 979 015c 2081      		ld r18,Z
 980 015e 3181      		ldd r19,Z+1
 981 0160 4281      		ldd r20,Z+2
 982 0162 5381      		ldd r21,Z+3
 983 0164 2115      		cp r18,__zero_reg__
 984 0166 3105      		cpc r19,__zero_reg__
 985 0168 4105      		cpc r20,__zero_reg__
 986 016a 5105      		cpc r21,__zero_reg__
 987 016c 01F0      		breq .L70
 988 016e F401      		movw r30,r8
 989 0170 8089      		ldd r24,Z+16
 990 0172 9189      		ldd r25,Z+17
 991 0174 A289      		ldd r26,Z+18
 992 0176 B389      		ldd r27,Z+19
 993 0178 2817      		cp r18,r24
 994 017a 3907      		cpc r19,r25
 995 017c 4A07      		cpc r20,r26
 996 017e 5B07      		cpc r21,r27
 997 0180 01F0      		breq .L70
 998 0182 8981      		ldd r24,Y+1
 999 0184 9A81      		ldd r25,Y+2
 1000 0186 B501      		movw r22,r10
 1001 0188 0E94 0000 		call ip_addr_isbroadcast
 1002               	.LVL106:
 1003 018c 8823      		tst r24
 1004 018e 01F4      		brne .+2
 1005 0190 00C0      		rjmp .L69
 1006               	.LVL107:
 1007               	.L70:
 1008               	.LSM102:
 1009 0192 E114      		cp r14,__zero_reg__
 1010 0194 F104      		cpc r15,__zero_reg__
 1011 0196 01F0      		breq .+2
 1012 0198 00C0      		rjmp .L71
 1013 019a AB81      		ldd r26,Y+3
 1014 019c BC81      		ldd r27,Y+4
 1015 019e 1E96      		adiw r26,14
 1016 01a0 8C91      		ld r24,X
 1017 01a2 82FF      		sbrs r24,2
 1018 01a4 00C0      		rjmp .L72
 1019 01a6 00C0      		rjmp .L71
 1020               	.L86:
 1021               	.LSM103:
 1022 01a8 EB81      		ldd r30,Y+3
 1023 01aa FC81      		ldd r31,Y+4
 1024 01ac 2481      		ldd r18,Z+4
 1025 01ae 3581      		ldd r19,Z+5
 1026 01b0 4681      		ldd r20,Z+6
 1027 01b2 5781      		ldd r21,Z+7
 1028 01b4 2115      		cp r18,__zero_reg__
 1029 01b6 3105      		cpc r19,__zero_reg__
 1030 01b8 4105      		cpc r20,__zero_reg__
 1031 01ba 5105      		cpc r21,__zero_reg__
 1032 01bc 01F0      		breq .L73
 1033 01be F401      		movw r30,r8
 1034 01c0 8485      		ldd r24,Z+12
 1035 01c2 9585      		ldd r25,Z+13
 1036 01c4 A685      		ldd r26,Z+14
 1037 01c6 B785      		ldd r27,Z+15
 1038 01c8 2817      		cp r18,r24
 1039 01ca 3907      		cpc r19,r25
 1040 01cc 4A07      		cpc r20,r26
 1041 01ce 5B07      		cpc r21,r27
 1042 01d0 01F4      		brne .L69
 1043               	.L73:
 1044 01d2 EB80      		ldd r14,Y+3
 1045 01d4 FC80      		ldd r15,Y+4
 1046               	.LVL108:
 1047               	.LSM104:
 1048 01d6 0115      		cp r16,__zero_reg__
 1049 01d8 1105      		cpc r17,__zero_reg__
 1050 01da 01F0      		breq .L74
 1051               	.LVL109:
 1052               	.LSM105:
 1053 01dc D701      		movw r26,r14
 1054 01de 1C96      		adiw r26,12
 1055 01e0 8D91      		ld r24,X+
 1056 01e2 9C91      		ld r25,X
 1057 01e4 1D97      		sbiw r26,12+1
 1058 01e6 F801      		movw r30,r16
 1059 01e8 9587      		std Z+13,r25
 1060 01ea 8487      		std Z+12,r24
 1061               	.LSM106:
 1062 01ec 8091 0000 		lds r24,udp_pcbs
 1063 01f0 9091 0000 		lds r25,(udp_pcbs)+1
 1064 01f4 1D96      		adiw r26,12+1
 1065 01f6 9C93      		st X,r25
 1066 01f8 8E93      		st -X,r24
 1067 01fa 1C97      		sbiw r26,12
 1068               	.LSM107:
 1069 01fc F092 0000 		sts (udp_pcbs)+1,r15
 1070 0200 E092 0000 		sts udp_pcbs,r14
 1071 0204 00C0      		rjmp .L67
 1072               	.L74:
 1073               	.LSM108:
 1074 0206 8091 0000 		lds r24,lwip_stats+128
 1075 020a 9091 0000 		lds r25,(lwip_stats+128)+1
 1076 020e 0196      		adiw r24,1
 1077 0210 9093 0000 		sts (lwip_stats+128)+1,r25
 1078 0214 8093 0000 		sts lwip_stats+128,r24
 1079 0218 00C0      		rjmp .L67
 1080               	.LVL110:
 1081               	.L69:
 1082               	.LSM109:
 1083 021a 0B81      		ldd r16,Y+3
 1084 021c 1C81      		ldd r17,Y+4
 1085 021e D801      		movw r26,r16
 1086 0220 1C96      		adiw r26,12
 1087 0222 8C91      		ld r24,X
 1088 0224 1C97      		sbiw r26,12
 1089               	.LVL111:
 1090 0226 1D96      		adiw r26,13
 1091 0228 9C91      		ld r25,X
 1092 022a 9C01      		movw r18,r24
 1093               	.LVL112:
 1094 022c 3C83      		std Y+4,r19
 1095 022e 2B83      		std Y+3,r18
 1096               	.LVL113:
 1097               	.L68:
 1098 0230 EB81      		ldd r30,Y+3
 1099 0232 FC81      		ldd r31,Y+4
 1100 0234 EF2B      		or r30,r31
 1101 0236 01F0      		breq .+2
 1102 0238 00C0      		rjmp .L75
 1103               	.LSM110:
 1104 023a E114      		cp r14,__zero_reg__
 1105 023c F104      		cpc r15,__zero_reg__
 1106 023e 01F4      		brne .L67
 1107               	.LVL114:
 1108               	.L65:
 1109 0240 EE24      		clr r14
 1110 0242 FF24      		clr r15
 1111               	.LVL115:
 1112               	.L66:
 1113 0244 D501      		movw r26,r10
 1114 0246 1296      		adiw r26,2
 1115 0248 2D91      		ld r18,X+
 1116 024a 3D91      		ld r19,X+
 1117 024c 4D91      		ld r20,X+
 1118 024e 5C91      		ld r21,X
 1119 0250 1597      		sbiw r26,2+3
 1120 0252 F401      		movw r30,r8
 1121 0254 8089      		ldd r24,Z+16
 1122 0256 9189      		ldd r25,Z+17
 1123 0258 A289      		ldd r26,Z+18
 1124 025a B389      		ldd r27,Z+19
 1125 025c 2817      		cp r18,r24
 1126 025e 3907      		cpc r19,r25
 1127 0260 4A07      		cpc r20,r26
 1128 0262 5B07      		cpc r21,r27
 1129 0264 01F0      		breq .+2
 1130 0266 00C0      		rjmp .L77
 1131               	.LVL116:
 1132               	.L67:
 1133               	.LSM111:
 1134 0268 D601      		movw r26,r12
 1135 026a 1696      		adiw r26,6
 1136 026c 8D91      		ld r24,X+
 1137 026e 9C91      		ld r25,X
 1138 0270 1797      		sbiw r26,6+1
 1139 0272 892B      		or r24,r25
 1140 0274 01F0      		breq .L78
 1141               	.LSM112:
 1142 0276 B401      		movw r22,r8
 1143 0278 645F      		subi r22,lo8(-(12))
 1144 027a 7F4F      		sbci r23,hi8(-(12))
 1145 027c A401      		movw r20,r8
 1146 027e 405F      		subi r20,lo8(-(16))
 1147 0280 5F4F      		sbci r21,hi8(-(16))
 1148 0282 F301      		movw r30,r6
 1149 0284 0481      		ldd r16,Z+4
 1150 0286 1581      		ldd r17,Z+5
 1151               	.LVL117:
 1152 0288 C301      		movw r24,r6
 1153 028a 21E1      		ldi r18,lo8(17)
 1154 028c 0E94 0000 		call inet_chksum_pseudo
 1155               	.LVL118:
 1156 0290 892B      		or r24,r25
 1157 0292 01F0      		breq .L78
 1158               	.LSM113:
 1159 0294 8091 0000 		lds r24,lwip_stats+114
 1160 0298 9091 0000 		lds r25,(lwip_stats+114)+1
 1161 029c 0196      		adiw r24,1
 1162 029e 9093 0000 		sts (lwip_stats+114)+1,r25
 1163 02a2 8093 0000 		sts lwip_stats+114,r24
 1164 02a6 00C0      		rjmp .L85
 1165               	.LVL119:
 1166               	.L78:
 1167               	.LSM114:
 1168 02a8 C301      		movw r24,r6
 1169 02aa 68EF      		ldi r22,lo8(-8)
 1170 02ac 7FEF      		ldi r23,hi8(-8)
 1171 02ae 0E94 0000 		call pbuf_header
 1172               	.LVL120:
 1173 02b2 8823      		tst r24
 1174 02b4 01F0      		breq .+2
 1175 02b6 00C0      		rjmp .L85
 1176               	.L79:
 1177               	.LSM115:
 1178 02b8 E114      		cp r14,__zero_reg__
 1179 02ba F104      		cpc r15,__zero_reg__
 1180 02bc 01F0      		breq .L80
 1181               	.LVL121:
 1182               	.LSM116:
 1183 02be D701      		movw r26,r14
 1184 02c0 5396      		adiw r26,19
 1185 02c2 ED91      		ld r30,X+
 1186 02c4 FC91      		ld r31,X
 1187 02c6 5497      		sbiw r26,19+1
 1188 02c8 3097      		sbiw r30,0
 1189 02ca 01F4      		brne .+2
 1190 02cc 00C0      		rjmp .L77
 1191               	.LSM117:
 1192 02ce 8CE0      		ldi r24,lo8(12)
 1193 02d0 90E0      		ldi r25,hi8(12)
 1194 02d2 880E      		add r8,r24
 1195 02d4 991E      		adc r9,r25
 1196 02d6 5596      		adiw r26,21
 1197 02d8 8D91      		ld r24,X+
 1198 02da 9C91      		ld r25,X
 1199 02dc 5697      		sbiw r26,21+1
 1200 02de B701      		movw r22,r14
 1201 02e0 A301      		movw r20,r6
 1202 02e2 9401      		movw r18,r8
 1203 02e4 8201      		movw r16,r4
 1204               	.LVL122:
 1205 02e6 0995      		icall
 1206 02e8 00C0      		rjmp .L84
 1207               	.LVL123:
 1208               	.L80:
 1209               	.LSM118:
 1210 02ea C401      		movw r24,r8
 1211 02ec 4096      		adiw r24,16
 1212 02ee B501      		movw r22,r10
 1213 02f0 0E94 0000 		call ip_addr_isbroadcast
 1214 02f4 8823      		tst r24
 1215 02f6 01F4      		brne .L82
 1216 02f8 D401      		movw r26,r8
 1217 02fa 5096      		adiw r26,16
 1218 02fc ED90      		ld r14,X+
 1219 02fe FD90      		ld r15,X+
 1220 0300 0D91      		ld r16,X+
 1221 0302 1C91      		ld r17,X
 1222 0304 5397      		sbiw r26,16+3
 1223               	.LVL124:
 1224 0306 60E0      		ldi r22,lo8(-268435456)
 1225 0308 70E0      		ldi r23,hi8(-268435456)
 1226 030a 80E0      		ldi r24,hlo8(-268435456)
 1227 030c 90EF      		ldi r25,hhi8(-268435456)
 1228 030e 0E94 0000 		call ntohl
 1229 0312 5B01      		movw r10,r22
 1230 0314 6C01      		movw r12,r24
 1231               	.LVL125:
 1232 0316 60E0      		ldi r22,lo8(-536870912)
 1233 0318 70E0      		ldi r23,hi8(-536870912)
 1234 031a 80E0      		ldi r24,hlo8(-536870912)
 1235 031c 90EE      		ldi r25,hhi8(-536870912)
 1236 031e 0E94 0000 		call ntohl
 1237 0322 EA20      		and r14,r10
 1238 0324 FB20      		and r15,r11
 1239 0326 0C21      		and r16,r12
 1240 0328 1D21      		and r17,r13
 1241 032a E616      		cp r14,r22
 1242 032c F706      		cpc r15,r23
 1243 032e 0807      		cpc r16,r24
 1244 0330 1907      		cpc r17,r25
 1245 0332 01F0      		breq .L82
 1246               	.LSM119:
 1247 0334 F401      		movw r30,r8
 1248 0336 8081      		ld r24,Z
 1249 0338 9181      		ldd r25,Z+1
 1250 033a 0E94 0000 		call ntohs
 1251 033e 692F      		mov r22,r25
 1252 0340 70E0      		ldi r23,lo8(0)
 1253 0342 6F70      		andi r22,lo8(15)
 1254 0344 7070      		andi r23,hi8(15)
 1255 0346 6E5F      		subi r22,lo8(-(2))
 1256 0348 7F4F      		sbci r23,hi8(-(2))
 1257 034a 660F      		lsl r22
 1258 034c 771F      		rol r23
 1259 034e 660F      		lsl r22
 1260 0350 771F      		rol r23
 1261 0352 C301      		movw r24,r6
 1262 0354 0E94 0000 		call pbuf_header
 1263               	.LSM120:
 1264 0358 C301      		movw r24,r6
 1265 035a 63E0      		ldi r22,lo8(3)
 1266 035c 0E94 0000 		call icmp_dest_unreach
 1267               	.LVL126:
 1268               	.L82:
 1269               	.LSM121:
 1270 0360 8091 0000 		lds r24,lwip_stats+122
 1271 0364 9091 0000 		lds r25,(lwip_stats+122)+1
 1272 0368 0196      		adiw r24,1
 1273 036a 9093 0000 		sts (lwip_stats+122)+1,r25
 1274 036e 8093 0000 		sts lwip_stats+122,r24
 1275               	.L85:
 1276               	.LSM122:
 1277 0372 8091 0000 		lds r24,lwip_stats+112
 1278 0376 9091 0000 		lds r25,(lwip_stats+112)+1
 1279 037a 0196      		adiw r24,1
 1280 037c 9093 0000 		sts (lwip_stats+112)+1,r25
 1281 0380 8093 0000 		sts lwip_stats+112,r24
 1282               	.LVL127:
 1283               	.L77:
 1284               	.LSM123:
 1285 0384 C301      		movw r24,r6
 1286 0386 0E94 0000 		call pbuf_free
 1287               	.LVL128:
 1288               	.L63:
 1289 038a 00C0      		rjmp .L84
 1290               	.LVL129:
 1291               	.L72:
 1292               	.LSM124:
 1293 038c EB80      		ldd r14,Y+3
 1294 038e FC80      		ldd r15,Y+4
 1295               	.L71:
 1296               	.LSM125:
 1297 0390 AB81      		ldd r26,Y+3
 1298 0392 BC81      		ldd r27,Y+4
 1299 0394 5196      		adiw r26,17
 1300 0396 8D91      		ld r24,X+
 1301 0398 9C91      		ld r25,X
 1302 039a 5297      		sbiw r26,17+1
 1303 039c 8415      		cp r24,r4
 1304 039e 9505      		cpc r25,r5
 1305 03a0 01F0      		breq .+2
 1306 03a2 00C0      		rjmp .L69
 1307 03a4 00C0      		rjmp .L86
 1308               	.LVL130:
 1309               	.L84:
 1310               	/* epilogue start */
 1311               	.LSM126:
 1312 03a6 0F90      		pop __tmp_reg__
 1313 03a8 0F90      		pop __tmp_reg__
 1314 03aa 0F90      		pop __tmp_reg__
 1315 03ac 0F90      		pop __tmp_reg__
 1316 03ae CF91      		pop r28
 1317 03b0 DF91      		pop r29
 1318 03b2 1F91      		pop r17
 1319 03b4 0F91      		pop r16
 1320               	.LVL131:
 1321 03b6 FF90      		pop r15
 1322 03b8 EF90      		pop r14
 1323               	.LVL132:
 1324 03ba DF90      		pop r13
 1325 03bc CF90      		pop r12
 1326               	.LVL133:
 1327 03be BF90      		pop r11
 1328 03c0 AF90      		pop r10
 1329               	.LVL134:
 1330 03c2 9F90      		pop r9
 1331 03c4 8F90      		pop r8
 1332               	.LVL135:
 1333 03c6 7F90      		pop r7
 1334 03c8 6F90      		pop r6
 1335               	.LVL136:
 1336 03ca 5F90      		pop r5
 1337 03cc 4F90      		pop r4
 1338               	.LVL137:
 1339 03ce 3F90      		pop r3
 1340 03d0 2F90      		pop r2
 1341               	.LVL138:
 1342 03d2 0895      		ret
 1343               	.LFE2:
 1345               		.comm udp_pcbs,2,1
 1442               	.Letext0:
DEFINED SYMBOLS
                            *ABS*:00000000 udp.c
C:\DOCUME~1\ADMINI~1\LOCALS~1\Temp/ccQETFtf.s:2      *ABS*:0000003f __SREG__
C:\DOCUME~1\ADMINI~1\LOCALS~1\Temp/ccQETFtf.s:3      *ABS*:0000003e __SP_H__
C:\DOCUME~1\ADMINI~1\LOCALS~1\Temp/ccQETFtf.s:4      *ABS*:0000003d __SP_L__
C:\DOCUME~1\ADMINI~1\LOCALS~1\Temp/ccQETFtf.s:5      *ABS*:00000034 __CCP__
C:\DOCUME~1\ADMINI~1\LOCALS~1\Temp/ccQETFtf.s:6      *ABS*:00000000 __tmp_reg__
C:\DOCUME~1\ADMINI~1\LOCALS~1\Temp/ccQETFtf.s:7      *ABS*:00000001 __zero_reg__
C:\DOCUME~1\ADMINI~1\LOCALS~1\Temp/ccQETFtf.s:19     .text.udp_bind:00000000 udp_bind
                            *COM*:00000002 udp_pcbs
C:\DOCUME~1\ADMINI~1\LOCALS~1\Temp/ccQETFtf.s:165    .text.udp_connect:00000000 udp_connect
C:\DOCUME~1\ADMINI~1\LOCALS~1\Temp/ccQETFtf.s:283    .text.udp_disconnect:00000000 udp_disconnect
C:\DOCUME~1\ADMINI~1\LOCALS~1\Temp/ccQETFtf.s:315    .text.udp_recv:00000000 udp_recv
C:\DOCUME~1\ADMINI~1\LOCALS~1\Temp/ccQETFtf.s:336    .text.udp_new:00000000 udp_new
C:\DOCUME~1\ADMINI~1\LOCALS~1\Temp/ccQETFtf.s:372    .text.udp_remove:00000000 udp_remove
C:\DOCUME~1\ADMINI~1\LOCALS~1\Temp/ccQETFtf.s:436    .text.udp_sendto_if:00000000 udp_sendto_if
C:\DOCUME~1\ADMINI~1\LOCALS~1\Temp/ccQETFtf.s:684    .text.udp_sendto:00000000 udp_sendto
C:\DOCUME~1\ADMINI~1\LOCALS~1\Temp/ccQETFtf.s:757    .text.udp_send:00000000 udp_send
C:\DOCUME~1\ADMINI~1\LOCALS~1\Temp/ccQETFtf.s:780    .text.udp_input:00000000 udp_input

UNDEFINED SYMBOLS
ip_addr_any
memp_malloc
memp_free
pbuf_header
pbuf_alloc
pbuf_chain
htons
pbuf_free
inet_chksum_pseudo
ip_output_if
lwip_stats
ip_route
ntohs
ip_addr_isbroadcast
ntohl
icmp_dest_unreach
__do_clear_bss
