   1               		.file	"rfcomm.c"
   2               	__SREG__ = 0x3f
   3               	__SP_H__ = 0x3e
   4               	__SP_L__ = 0x3d
   5               	__CCP__  = 0x34
   6               	__tmp_reg__ = 0
   7               	__zero_reg__ = 1
  15               	.Ltext0:
  16               		.section	.text.rfcomm_init,"ax",@progbits
  17               	.global	rfcomm_init
  19               	rfcomm_init:
  20               	.LFB3:
  21               	.LSM0:
  22               	/* prologue: function */
  23               	/* frame size = 0 */
  24               	.LSM1:
  25 0000 1092 0000 		sts (rfcomm_listen_pcbs)+1,__zero_reg__
  26 0004 1092 0000 		sts rfcomm_listen_pcbs,__zero_reg__
  27               	.LSM2:
  28 0008 1092 0000 		sts (rfcomm_active_pcbs)+1,__zero_reg__
  29 000c 1092 0000 		sts rfcomm_active_pcbs,__zero_reg__
  30               	.LSM3:
  31 0010 1092 0000 		sts (rfcomm_tmp_pcb)+1,__zero_reg__
  32 0014 1092 0000 		sts rfcomm_tmp_pcb,__zero_reg__
  33               	/* epilogue start */
  34               	.LSM4:
  35 0018 0895      		ret
  36               	.LFE3:
  38               		.section	.text.rfcomm_get_active_pcb,"ax",@progbits
  39               	.global	rfcomm_get_active_pcb
  41               	rfcomm_get_active_pcb:
  42               	.LFB9:
  43               	.LSM5:
  44               	.LVL0:
  45 0000 CF93      		push r28
  46 0002 DF93      		push r29
  47               	/* prologue: function */
  48               	/* frame size = 0 */
  49 0004 282F      		mov r18,r24
  50 0006 EB01      		movw r28,r22
  51               	.LSM6:
  52 0008 E091 0000 		lds r30,rfcomm_active_pcbs
  53 000c F091 0000 		lds r31,(rfcomm_active_pcbs)+1
  54               	.LVL1:
  55 0010 00C0      		rjmp .L4
  56               	.LVL2:
  57               	.L7:
  58               	.LSM7:
  59 0012 8581      		ldd r24,Z+5
  60 0014 8217      		cp r24,r18
  61 0016 01F4      		brne .L5
  62 0018 A381      		ldd r26,Z+3
  63 001a B481      		ldd r27,Z+4
  64 001c 5096      		adiw r26,16
  65 001e 9C91      		ld r25,X
  66 0020 5097      		sbiw r26,16
  67 0022 8881      		ld r24,Y
  68 0024 9817      		cp r25,r24
  69 0026 01F4      		brne .L5
  70 0028 5196      		adiw r26,17
  71 002a 9C91      		ld r25,X
  72 002c 5197      		sbiw r26,17
  73 002e 8981      		ldd r24,Y+1
  74 0030 9817      		cp r25,r24
  75 0032 01F4      		brne .L5
  76 0034 5296      		adiw r26,18
  77 0036 9C91      		ld r25,X
  78 0038 5297      		sbiw r26,18
  79 003a 8A81      		ldd r24,Y+2
  80 003c 9817      		cp r25,r24
  81 003e 01F4      		brne .L5
  82 0040 5396      		adiw r26,19
  83 0042 9C91      		ld r25,X
  84 0044 5397      		sbiw r26,19
  85 0046 8B81      		ldd r24,Y+3
  86 0048 9817      		cp r25,r24
  87 004a 01F4      		brne .L5
  88 004c 5496      		adiw r26,20
  89 004e 9C91      		ld r25,X
  90 0050 5497      		sbiw r26,20
  91 0052 8C81      		ldd r24,Y+4
  92 0054 9817      		cp r25,r24
  93 0056 01F4      		brne .L5
  94 0058 5596      		adiw r26,21
  95 005a 9C91      		ld r25,X
  96 005c 8D81      		ldd r24,Y+5
  97 005e 9817      		cp r25,r24
  98 0060 01F0      		breq .L6
  99               	.L5:
 100               	.LSM8:
 101 0062 0190      		ld __tmp_reg__,Z+
 102 0064 F081      		ld r31,Z
 103 0066 E02D      		mov r30,__tmp_reg__
 104               	.LVL3:
 105               	.L4:
 106 0068 3097      		sbiw r30,0
 107 006a 01F4      		brne .L7
 108               	.L6:
 109               	.LSM9:
 110 006c CF01      		movw r24,r30
 111               	.LVL4:
 112               	/* epilogue start */
 113 006e DF91      		pop r29
 114 0070 CF91      		pop r28
 115               	.LVL5:
 116 0072 0895      		ret
 117               	.LFE9:
 119               		.section	.text.rfcomm_arg,"ax",@progbits
 120               	.global	rfcomm_arg
 122               	rfcomm_arg:
 123               	.LFB22:
 124               	.LSM10:
 125               	.LVL6:
 126               	/* prologue: function */
 127               	/* frame size = 0 */
 128               	.LSM11:
 129 0000 FC01      		movw r30,r24
 130 0002 768B      		std Z+22,r23
 131 0004 658B      		std Z+21,r22
 132               	/* epilogue start */
 133               	.LSM12:
 134 0006 0895      		ret
 135               	.LFE22:
 137               		.section	.text.rfcomm_recv,"ax",@progbits
 138               	.global	rfcomm_recv
 140               	rfcomm_recv:
 141               	.LFB23:
 142               	.LSM13:
 143               	.LVL7:
 144               	/* prologue: function */
 145               	/* frame size = 0 */
 146               	.LSM14:
 147 0000 FC01      		movw r30,r24
 148 0002 76A3      		std Z+38,r23
 149 0004 65A3      		std Z+37,r22
 150               	/* epilogue start */
 151               	.LSM15:
 152 0006 0895      		ret
 153               	.LFE23:
 155               		.section	.text.rfcomm_disc,"ax",@progbits
 156               	.global	rfcomm_disc
 158               	rfcomm_disc:
 159               	.LFB24:
 160               	.LSM16:
 161               	.LVL8:
 162               	/* prologue: function */
 163               	/* frame size = 0 */
 164               	.LSM17:
 165 0000 FC01      		movw r30,r24
 166 0002 748F      		std Z+28,r23
 167 0004 638F      		std Z+27,r22
 168               	/* epilogue start */
 169               	.LSM18:
 170 0006 0895      		ret
 171               	.LFE24:
 173               		.section	.text.rfcomm_dm,"ax",@progbits
 175               	rfcomm_dm:
 176               	.LFB10:
 177               	.LSM19:
 178               	.LVL9:
 179 0000 EF92      		push r14
 180 0002 FF92      		push r15
 181 0004 0F93      		push r16
 182 0006 1F93      		push r17
 183 0008 CF93      		push r28
 184 000a DF93      		push r29
 185               	/* prologue: function */
 186               	/* frame size = 0 */
 187 000c 7C01      		movw r14,r24
 188 000e 8B01      		movw r16,r22
 189               	.LSM20:
 190 0010 83E0      		ldi r24,lo8(3)
 191               	.LVL10:
 192 0012 64E0      		ldi r22,lo8(4)
 193 0014 70E0      		ldi r23,hi8(4)
 194               	.LVL11:
 195 0016 40E0      		ldi r20,lo8(0)
 196 0018 0E94 0000 		call pbuf_alloc
 197 001c EC01      		movw r28,r24
 198               	.LVL12:
 199 001e 0097      		sbiw r24,0
 200 0020 01F4      		brne .L16
 201               	.LVL13:
 202 0022 0FEF      		ldi r16,lo8(-1)
 203               	.LVL14:
 204 0024 00C0      		rjmp .L17
 205               	.LVL15:
 206               	.L16:
 207               	.LSM21:
 208 0026 EA81      		ldd r30,Y+2
 209 0028 FB81      		ldd r31,Y+3
 210               	.LVL16:
 211               	.LSM22:
 212 002a D801      		movw r26,r16
 213 002c 8C91      		ld r24,X
 214               	.LVL17:
 215 002e 8B7F      		andi r24,lo8(-5)
 216 0030 8083      		st Z,r24
 217               	.LSM23:
 218 0032 8FE0      		ldi r24,lo8(15)
 219 0034 8183      		std Z+1,r24
 220               	.LSM24:
 221 0036 81E0      		ldi r24,lo8(1)
 222 0038 90E0      		ldi r25,hi8(1)
 223 003a 9383      		std Z+3,r25
 224 003c 8283      		std Z+2,r24
 225               	.LSM25:
 226 003e 0A81      		ldd r16,Y+2
 227 0040 1B81      		ldd r17,Y+3
 228               	.LVL18:
 229 0042 CE01      		movw r24,r28
 230 0044 63E0      		ldi r22,lo8(3)
 231 0046 0E94 0000 		call fcs8_crc_calc
 232               	.LVL19:
 233 004a F801      		movw r30,r16
 234 004c 8383      		std Z+3,r24
 235               	.LSM26:
 236 004e C701      		movw r24,r14
 237 0050 BE01      		movw r22,r28
 238 0052 0E94 0000 		call l2ca_datawrite
 239 0056 082F      		mov r16,r24
 240               	.LVL20:
 241               	.LSM27:
 242 0058 CE01      		movw r24,r28
 243 005a 0E94 0000 		call pbuf_free
 244               	.LVL21:
 245               	.L17:
 246               	.LSM28:
 247 005e 802F      		mov r24,r16
 248               	/* epilogue start */
 249 0060 DF91      		pop r29
 250 0062 CF91      		pop r28
 251               	.LVL22:
 252 0064 1F91      		pop r17
 253 0066 0F91      		pop r16
 254               	.LVL23:
 255 0068 FF90      		pop r15
 256 006a EF90      		pop r14
 257               	.LVL24:
 258 006c 0895      		ret
 259               	.LFE10:
 261               		.section	.text.rfcomm_ua,"ax",@progbits
 263               	rfcomm_ua:
 264               	.LFB13:
 265               	.LSM29:
 266               	.LVL25:
 267 0000 EF92      		push r14
 268 0002 FF92      		push r15
 269 0004 0F93      		push r16
 270 0006 1F93      		push r17
 271 0008 CF93      		push r28
 272 000a DF93      		push r29
 273               	/* prologue: function */
 274               	/* frame size = 0 */
 275 000c 7C01      		movw r14,r24
 276 000e 8B01      		movw r16,r22
 277               	.LSM30:
 278 0010 83E0      		ldi r24,lo8(3)
 279               	.LVL26:
 280 0012 64E0      		ldi r22,lo8(4)
 281 0014 70E0      		ldi r23,hi8(4)
 282               	.LVL27:
 283 0016 40E0      		ldi r20,lo8(0)
 284 0018 0E94 0000 		call pbuf_alloc
 285 001c EC01      		movw r28,r24
 286               	.LVL28:
 287 001e 0097      		sbiw r24,0
 288 0020 01F4      		brne .L20
 289               	.LVL29:
 290 0022 0FEF      		ldi r16,lo8(-1)
 291               	.LVL30:
 292 0024 00C0      		rjmp .L21
 293               	.LVL31:
 294               	.L20:
 295               	.LSM31:
 296 0026 EA81      		ldd r30,Y+2
 297 0028 FB81      		ldd r31,Y+3
 298               	.LVL32:
 299               	.LSM32:
 300 002a D801      		movw r26,r16
 301 002c 8C91      		ld r24,X
 302               	.LVL33:
 303 002e 8B7F      		andi r24,lo8(-5)
 304 0030 8083      		st Z,r24
 305               	.LSM33:
 306 0032 83E7      		ldi r24,lo8(115)
 307 0034 8183      		std Z+1,r24
 308               	.LSM34:
 309 0036 81E0      		ldi r24,lo8(1)
 310 0038 90E0      		ldi r25,hi8(1)
 311 003a 9383      		std Z+3,r25
 312 003c 8283      		std Z+2,r24
 313               	.LSM35:
 314 003e 0A81      		ldd r16,Y+2
 315 0040 1B81      		ldd r17,Y+3
 316               	.LVL34:
 317 0042 CE01      		movw r24,r28
 318 0044 63E0      		ldi r22,lo8(3)
 319 0046 0E94 0000 		call fcs8_crc_calc
 320               	.LVL35:
 321 004a F801      		movw r30,r16
 322 004c 8383      		std Z+3,r24
 323               	.LSM36:
 324 004e C701      		movw r24,r14
 325 0050 BE01      		movw r22,r28
 326 0052 0E94 0000 		call l2ca_datawrite
 327 0056 082F      		mov r16,r24
 328               	.LVL36:
 329               	.LSM37:
 330 0058 CE01      		movw r24,r28
 331 005a 0E94 0000 		call pbuf_free
 332               	.LVL37:
 333               	.L21:
 334               	.LSM38:
 335 005e 802F      		mov r24,r16
 336               	/* epilogue start */
 337 0060 DF91      		pop r29
 338 0062 CF91      		pop r28
 339               	.LVL38:
 340 0064 1F91      		pop r17
 341 0066 0F91      		pop r16
 342               	.LVL39:
 343 0068 FF90      		pop r15
 344 006a EF90      		pop r14
 345               	.LVL40:
 346 006c 0895      		ret
 347               	.LFE13:
 349               		.section	.text.rfcomm_disconnect,"ax",@progbits
 350               	.global	rfcomm_disconnect
 352               	rfcomm_disconnect:
 353               	.LFB12:
 354               	.LSM39:
 355               	.LVL41:
 356 0000 EF92      		push r14
 357 0002 FF92      		push r15
 358 0004 0F93      		push r16
 359 0006 1F93      		push r17
 360 0008 CF93      		push r28
 361 000a DF93      		push r29
 362               	/* prologue: function */
 363               	/* frame size = 0 */
 364 000c 7C01      		movw r14,r24
 365               	.LSM40:
 366 000e 83E0      		ldi r24,lo8(3)
 367               	.LVL42:
 368 0010 64E0      		ldi r22,lo8(4)
 369 0012 70E0      		ldi r23,hi8(4)
 370 0014 40E0      		ldi r20,lo8(0)
 371 0016 0E94 0000 		call pbuf_alloc
 372 001a 892B      		or r24,r25
 373 001c 01F4      		brne .L24
 374 001e 0FEF      		ldi r16,lo8(-1)
 375               	.LVL43:
 376 0020 00C0      		rjmp .L25
 377               	.LVL44:
 378               	.L24:
 379               	.LSM41:
 380 0022 83E0      		ldi r24,lo8(3)
 381 0024 64E0      		ldi r22,lo8(4)
 382 0026 70E0      		ldi r23,hi8(4)
 383 0028 40E0      		ldi r20,lo8(0)
 384 002a 0E94 0000 		call pbuf_alloc
 385 002e EC01      		movw r28,r24
 386               	.LVL45:
 387               	.LSM42:
 388 0030 EA81      		ldd r30,Y+2
 389 0032 FB81      		ldd r31,Y+3
 390               	.LVL46:
 391               	.LSM43:
 392 0034 D701      		movw r26,r14
 393 0036 1C96      		adiw r26,12
 394 0038 8C91      		ld r24,X
 395 003a 90E0      		ldi r25,lo8(0)
 396 003c 9C01      		movw r18,r24
 397 003e 2170      		andi r18,lo8(1)
 398 0040 3070      		andi r19,hi8(1)
 399 0042 80FD      		sbrc r24,0
 400 0044 00C0      		rjmp .L26
 401 0046 94E0      		ldi r25,lo8(4)
 402 0048 00C0      		rjmp .L27
 403               	.L26:
 404 004a 90E0      		ldi r25,lo8(0)
 405               	.L27:
 406 004c D701      		movw r26,r14
 407 004e 1596      		adiw r26,5
 408 0050 8C91      		ld r24,X
 409 0052 880F      		lsl r24
 410 0054 880F      		lsl r24
 411 0056 880F      		lsl r24
 412 0058 8160      		ori r24,lo8(1)
 413 005a 220F      		lsl r18
 414 005c 331F      		rol r19
 415 005e 822B      		or r24,r18
 416 0060 892B      		or r24,r25
 417 0062 8083      		st Z,r24
 418               	.LSM44:
 419 0064 83E5      		ldi r24,lo8(83)
 420 0066 8183      		std Z+1,r24
 421               	.LSM45:
 422 0068 81E0      		ldi r24,lo8(1)
 423 006a 90E0      		ldi r25,hi8(1)
 424 006c 9383      		std Z+3,r25
 425 006e 8283      		std Z+2,r24
 426               	.LSM46:
 427 0070 0A81      		ldd r16,Y+2
 428 0072 1B81      		ldd r17,Y+3
 429 0074 CE01      		movw r24,r28
 430 0076 63E0      		ldi r22,lo8(3)
 431 0078 0E94 0000 		call fcs8_crc_calc
 432               	.LVL47:
 433 007c F801      		movw r30,r16
 434 007e 8383      		std Z+3,r24
 435               	.LSM47:
 436 0080 86E0      		ldi r24,lo8(6)
 437 0082 D701      		movw r26,r14
 438 0084 1296      		adiw r26,2
 439 0086 8C93      		st X,r24
 440 0088 1297      		sbiw r26,2
 441               	.LSM48:
 442 008a 1396      		adiw r26,3
 443 008c 8D91      		ld r24,X+
 444 008e 9C91      		ld r25,X
 445 0090 1497      		sbiw r26,3+1
 446 0092 BE01      		movw r22,r28
 447 0094 0E94 0000 		call l2ca_datawrite
 448 0098 082F      		mov r16,r24
 449               	.LVL48:
 450 009a 8823      		tst r24
 451 009c 01F4      		brne .L28
 452               	.LVL49:
 453               	.LSM49:
 454 009e 84E1      		ldi r24,lo8(20)
 455 00a0 90E0      		ldi r25,hi8(20)
 456               	.LVL50:
 457 00a2 F701      		movw r30,r14
 458 00a4 9687      		std Z+14,r25
 459 00a6 8587      		std Z+13,r24
 460               	.LVL51:
 461               	.L28:
 462               	.LSM50:
 463 00a8 CE01      		movw r24,r28
 464 00aa 0E94 0000 		call pbuf_free
 465               	.L25:
 466               	.LSM51:
 467 00ae 802F      		mov r24,r16
 468               	/* epilogue start */
 469 00b0 DF91      		pop r29
 470 00b2 CF91      		pop r28
 471               	.LVL52:
 472 00b4 1F91      		pop r17
 473 00b6 0F91      		pop r16
 474               	.LVL53:
 475 00b8 FF90      		pop r15
 476 00ba EF90      		pop r14
 477               	.LVL54:
 478 00bc 0895      		ret
 479               	.LFE12:
 481               		.section	.text.rfcomm_uih_credits,"ax",@progbits
 482               	.global	rfcomm_uih_credits
 484               	rfcomm_uih_credits:
 485               	.LFB19:
 486               	.LSM52:
 487               	.LVL55:
 488 0000 BF92      		push r11
 489 0002 CF92      		push r12
 490 0004 DF92      		push r13
 491 0006 EF92      		push r14
 492 0008 FF92      		push r15
 493 000a 0F93      		push r16
 494 000c 1F93      		push r17
 495 000e CF93      		push r28
 496 0010 DF93      		push r29
 497               	/* prologue: function */
 498               	/* frame size = 0 */
 499 0012 7C01      		movw r14,r24
 500 0014 B62E      		mov r11,r22
 501 0016 6A01      		movw r12,r20
 502               	.LSM53:
 503 0018 DC01      		movw r26,r24
 504 001a 1696      		adiw r26,6
 505 001c 8C91      		ld r24,X
 506 001e 1697      		sbiw r26,6
 507               	.LVL56:
 508 0020 8F30      		cpi r24,lo8(15)
 509 0022 01F4      		brne .L31
 510               	.LVL57:
 511 0024 1296      		adiw r26,2
 512 0026 8C91      		ld r24,X
 513 0028 1297      		sbiw r26,2
 514 002a 8530      		cpi r24,lo8(5)
 515 002c 01F4      		brne .L31
 516 002e 1596      		adiw r26,5
 517 0030 8C91      		ld r24,X
 518 0032 1597      		sbiw r26,5
 519 0034 8823      		tst r24
 520 0036 01F0      		breq .L31
 521               	.LSM54:
 522 0038 1A96      		adiw r26,10
 523 003a 8C91      		ld r24,X
 524 003c 8823      		tst r24
 525 003e 01F4      		brne .L32
 526 0040 FF24      		clr r15
 527               	.LVL58:
 528 0042 00C0      		rjmp .L33
 529               	.LVL59:
 530               	.L32:
 531               	.LSM55:
 532 0044 8150      		subi r24,lo8(-(-1))
 533 0046 F701      		movw r30,r14
 534 0048 8287      		std Z+10,r24
 535               	.L31:
 536               	.LSM56:
 537 004a C114      		cp r12,__zero_reg__
 538 004c D104      		cpc r13,__zero_reg__
 539 004e 01F4      		brne .L34
 540 0050 20E0      		ldi r18,lo8(0)
 541 0052 30E0      		ldi r19,hi8(0)
 542               	.LVL60:
 543 0054 00C0      		rjmp .L35
 544               	.LVL61:
 545               	.L34:
 546               	.LSM57:
 547 0056 D601      		movw r26,r12
 548 0058 1496      		adiw r26,4
 549 005a 2D91      		ld r18,X+
 550 005c 3C91      		ld r19,X
 551 005e 1597      		sbiw r26,4+1
 552               	.LVL62:
 553               	.L35:
 554               	.LSM58:
 555 0060 F701      		movw r30,r14
 556 0062 8085      		ldd r24,Z+8
 557 0064 9185      		ldd r25,Z+9
 558 0066 8217      		cp r24,r18
 559 0068 9307      		cpc r25,r19
 560 006a 00F4      		brsh .+2
 561 006c 00C0      		rjmp .L36
 562               	.LSM59:
 563 006e 2F37      		cpi r18,127
 564 0070 3105      		cpc r19,__zero_reg__
 565 0072 00F4      		brsh .L37
 566               	.LSM60:
 567 0074 83E0      		ldi r24,lo8(3)
 568 0076 64E0      		ldi r22,lo8(4)
 569 0078 70E0      		ldi r23,hi8(4)
 570 007a 00C0      		rjmp .L46
 571               	.LVL63:
 572               	.L37:
 573               	.LSM61:
 574 007c 83E0      		ldi r24,lo8(3)
 575 007e 65E0      		ldi r22,lo8(5)
 576 0080 70E0      		ldi r23,hi8(5)
 577               	.L46:
 578 0082 40E0      		ldi r20,lo8(0)
 579 0084 0E94 0000 		call pbuf_alloc
 580               	.LVL64:
 581 0088 8C01      		movw r16,r24
 582               	.LVL65:
 583 008a 0097      		sbiw r24,0
 584 008c 01F4      		brne .+2
 585 008e 00C0      		rjmp .L36
 586               	.LVL66:
 587               	.LSM62:
 588 0090 DC01      		movw r26,r24
 589 0092 1296      		adiw r26,2
 590 0094 ED91      		ld r30,X+
 591 0096 FC91      		ld r31,X
 592 0098 1397      		sbiw r26,2+1
 593 009a D701      		movw r26,r14
 594 009c 1596      		adiw r26,5
 595 009e 2C91      		ld r18,X
 596 00a0 1597      		sbiw r26,5
 597 00a2 220F      		lsl r18
 598 00a4 220F      		lsl r18
 599 00a6 220F      		lsl r18
 600 00a8 2160      		ori r18,lo8(1)
 601 00aa 1C96      		adiw r26,12
 602 00ac 8C91      		ld r24,X
 603               	.LVL67:
 604 00ae 90E0      		ldi r25,lo8(0)
 605 00b0 8170      		andi r24,lo8(1)
 606 00b2 9070      		andi r25,hi8(1)
 607 00b4 880F      		lsl r24
 608 00b6 991F      		rol r25
 609 00b8 282B      		or r18,r24
 610 00ba 2083      		st Z,r18
 611               	.LSM63:
 612 00bc D801      		movw r26,r16
 613 00be 1296      		adiw r26,2
 614 00c0 ED91      		ld r30,X+
 615 00c2 FC91      		ld r31,X
 616 00c4 1397      		sbiw r26,2+1
 617 00c6 8FEF      		ldi r24,lo8(-1)
 618 00c8 8183      		std Z+1,r24
 619               	.LSM64:
 620 00ca C114      		cp r12,__zero_reg__
 621 00cc D104      		cpc r13,__zero_reg__
 622 00ce 01F0      		breq .L39
 623               	.LSM65:
 624 00d0 F601      		movw r30,r12
 625 00d2 8481      		ldd r24,Z+4
 626 00d4 9581      		ldd r25,Z+5
 627 00d6 1296      		adiw r26,2
 628 00d8 ED91      		ld r30,X+
 629 00da FC91      		ld r31,X
 630 00dc 1397      		sbiw r26,2+1
 631 00de 8F37      		cpi r24,127
 632 00e0 9105      		cpc r25,__zero_reg__
 633 00e2 00F4      		brsh .L40
 634               	.LSM66:
 635 00e4 880F      		lsl r24
 636 00e6 8160      		ori r24,lo8(1)
 637 00e8 8283      		std Z+2,r24
 638               	.LSM67:
 639 00ea 1296      		adiw r26,2
 640 00ec ED91      		ld r30,X+
 641 00ee FC91      		ld r31,X
 642 00f0 1397      		sbiw r26,2+1
 643 00f2 B382      		std Z+3,r11
 644 00f4 00C0      		rjmp .L41
 645               	.L40:
 646               	.LSM68:
 647 00f6 880F      		lsl r24
 648 00f8 991F      		rol r25
 649 00fa 9383      		std Z+3,r25
 650 00fc 8283      		std Z+2,r24
 651               	.LSM69:
 652 00fe B482      		std Z+4,r11
 653               	.L41:
 654               	.LSM70:
 655 0100 C801      		movw r24,r16
 656 0102 B601      		movw r22,r12
 657 0104 0E94 0000 		call pbuf_chain
 658 0108 00C0      		rjmp .L42
 659               	.L39:
 660               	.LSM71:
 661 010a D801      		movw r26,r16
 662 010c 1296      		adiw r26,2
 663 010e ED91      		ld r30,X+
 664 0110 FC91      		ld r31,X
 665 0112 1397      		sbiw r26,2+1
 666 0114 81E0      		ldi r24,lo8(1)
 667 0116 8283      		std Z+2,r24
 668               	.L42:
 669               	.LSM72:
 670 0118 83E0      		ldi r24,lo8(3)
 671 011a 61E0      		ldi r22,lo8(1)
 672 011c 70E0      		ldi r23,hi8(1)
 673 011e 40E0      		ldi r20,lo8(0)
 674 0120 0E94 0000 		call pbuf_alloc
 675 0124 EC01      		movw r28,r24
 676               	.LVL68:
 677 0126 0097      		sbiw r24,0
 678 0128 01F4      		brne .L43
 679               	.LVL69:
 680               	.LSM73:
 681 012a C801      		movw r24,r16
 682               	.LVL70:
 683 012c 0E94 0000 		call pbuf_free
 684 0130 00C0      		rjmp .L36
 685               	.LVL71:
 686               	.L43:
 687               	.LSM74:
 688 0132 EA81      		ldd r30,Y+2
 689 0134 FB81      		ldd r31,Y+3
 690 0136 D701      		movw r26,r14
 691 0138 5296      		adiw r26,18
 692 013a 8C91      		ld r24,X
 693               	.LVL72:
 694 013c 8083      		st Z,r24
 695               	.LSM75:
 696 013e C801      		movw r24,r16
 697 0140 BE01      		movw r22,r28
 698 0142 0E94 0000 		call pbuf_chain
 699               	.LSM76:
 700 0146 CE01      		movw r24,r28
 701 0148 0E94 0000 		call pbuf_free
 702               	.LSM77:
 703 014c F701      		movw r30,r14
 704 014e 8385      		ldd r24,Z+11
 705 0150 8B0D      		add r24,r11
 706 0152 8387      		std Z+11,r24
 707               	.LSM78:
 708 0154 8381      		ldd r24,Z+3
 709 0156 9481      		ldd r25,Z+4
 710 0158 B801      		movw r22,r16
 711 015a 0E94 0000 		call l2ca_datawrite
 712 015e F82E      		mov r15,r24
 713               	.LVL73:
 714               	.LSM79:
 715 0160 C114      		cp r12,__zero_reg__
 716 0162 D104      		cpc r13,__zero_reg__
 717 0164 01F0      		breq .L44
 718               	.LSM80:
 719 0166 C801      		movw r24,r16
 720 0168 0E94 0000 		call pbuf_dechain
 721               	.LSM81:
 722 016c D601      		movw r26,r12
 723 016e 1496      		adiw r26,4
 724 0170 6D91      		ld r22,X+
 725 0172 7C91      		ld r23,X
 726 0174 1597      		sbiw r26,4+1
 727 0176 6150      		subi r22,lo8(-(-1))
 728 0178 7040      		sbci r23,hi8(-(-1))
 729 017a C601      		movw r24,r12
 730 017c 0E94 0000 		call pbuf_realloc
 731               	.L44:
 732               	.LSM82:
 733 0180 C801      		movw r24,r16
 734 0182 0E94 0000 		call pbuf_free
 735 0186 00C0      		rjmp .L33
 736               	.LVL74:
 737               	.L36:
 738               	.LSM83:
 739 0188 FF24      		clr r15
 740 018a FA94      		dec r15
 741               	.LVL75:
 742               	.L33:
 743               	.LSM84:
 744 018c 8F2D      		mov r24,r15
 745               	/* epilogue start */
 746 018e DF91      		pop r29
 747 0190 CF91      		pop r28
 748               	.LVL76:
 749 0192 1F91      		pop r17
 750 0194 0F91      		pop r16
 751               	.LVL77:
 752 0196 FF90      		pop r15
 753               	.LVL78:
 754 0198 EF90      		pop r14
 755               	.LVL79:
 756 019a DF90      		pop r13
 757 019c CF90      		pop r12
 758               	.LVL80:
 759 019e BF90      		pop r11
 760               	.LVL81:
 761 01a0 0895      		ret
 762               	.LFE19:
 764               		.section	.text.rfcomm_uih,"ax",@progbits
 765               	.global	rfcomm_uih
 767               	rfcomm_uih:
 768               	.LFB18:
 769               	.LSM85:
 770               	.LVL82:
 771 0000 BF92      		push r11
 772 0002 CF92      		push r12
 773 0004 DF92      		push r13
 774 0006 EF92      		push r14
 775 0008 FF92      		push r15
 776 000a 0F93      		push r16
 777 000c 1F93      		push r17
 778 000e CF93      		push r28
 779 0010 DF93      		push r29
 780               	/* prologue: function */
 781               	/* frame size = 0 */
 782 0012 7C01      		movw r14,r24
 783 0014 B62E      		mov r11,r22
 784 0016 6A01      		movw r12,r20
 785               	.LSM86:
 786 0018 DC01      		movw r26,r24
 787 001a 1696      		adiw r26,6
 788 001c 8C91      		ld r24,X
 789 001e 1697      		sbiw r26,6
 790               	.LVL83:
 791 0020 8F30      		cpi r24,lo8(15)
 792 0022 01F4      		brne .L48
 793               	.LVL84:
 794 0024 1296      		adiw r26,2
 795 0026 8C91      		ld r24,X
 796 0028 1297      		sbiw r26,2
 797 002a 8530      		cpi r24,lo8(5)
 798 002c 01F4      		brne .L48
 799 002e 1596      		adiw r26,5
 800 0030 8C91      		ld r24,X
 801 0032 1597      		sbiw r26,5
 802 0034 8823      		tst r24
 803 0036 01F0      		breq .L48
 804               	.LSM87:
 805 0038 1A96      		adiw r26,10
 806 003a 8C91      		ld r24,X
 807 003c 8823      		tst r24
 808 003e 01F4      		brne .L49
 809 0040 FF24      		clr r15
 810               	.LVL85:
 811 0042 00C0      		rjmp .L50
 812               	.LVL86:
 813               	.L49:
 814               	.LSM88:
 815 0044 8150      		subi r24,lo8(-(-1))
 816 0046 F701      		movw r30,r14
 817 0048 8287      		std Z+10,r24
 818               	.L48:
 819               	.LSM89:
 820 004a C114      		cp r12,__zero_reg__
 821 004c D104      		cpc r13,__zero_reg__
 822 004e 01F4      		brne .L51
 823 0050 20E0      		ldi r18,lo8(0)
 824 0052 30E0      		ldi r19,hi8(0)
 825               	.LVL87:
 826 0054 00C0      		rjmp .L52
 827               	.LVL88:
 828               	.L51:
 829               	.LSM90:
 830 0056 D601      		movw r26,r12
 831 0058 1496      		adiw r26,4
 832 005a 2D91      		ld r18,X+
 833 005c 3C91      		ld r19,X
 834 005e 1597      		sbiw r26,4+1
 835               	.LVL89:
 836               	.L52:
 837               	.LSM91:
 838 0060 F701      		movw r30,r14
 839 0062 8085      		ldd r24,Z+8
 840 0064 9185      		ldd r25,Z+9
 841 0066 8217      		cp r24,r18
 842 0068 9307      		cpc r25,r19
 843 006a 00F4      		brsh .+2
 844 006c 00C0      		rjmp .L53
 845               	.LSM92:
 846 006e 2F37      		cpi r18,127
 847 0070 3105      		cpc r19,__zero_reg__
 848 0072 00F4      		brsh .L54
 849               	.LSM93:
 850 0074 83E0      		ldi r24,lo8(3)
 851 0076 63E0      		ldi r22,lo8(3)
 852 0078 70E0      		ldi r23,hi8(3)
 853 007a 00C0      		rjmp .L67
 854               	.LVL90:
 855               	.L54:
 856               	.LSM94:
 857 007c 83E0      		ldi r24,lo8(3)
 858 007e 64E0      		ldi r22,lo8(4)
 859 0080 70E0      		ldi r23,hi8(4)
 860               	.L67:
 861 0082 40E0      		ldi r20,lo8(0)
 862 0084 0E94 0000 		call pbuf_alloc
 863               	.LVL91:
 864 0088 8C01      		movw r16,r24
 865               	.LVL92:
 866 008a 0097      		sbiw r24,0
 867 008c 01F4      		brne .+2
 868 008e 00C0      		rjmp .L53
 869               	.LVL93:
 870 0090 DC01      		movw r26,r24
 871 0092 1296      		adiw r26,2
 872 0094 ED91      		ld r30,X+
 873 0096 FC91      		ld r31,X
 874 0098 1397      		sbiw r26,2+1
 875 009a D701      		movw r26,r14
 876 009c 1C96      		adiw r26,12
 877 009e 8C91      		ld r24,X
 878               	.LVL94:
 879               	.LSM95:
 880 00a0 BB20      		tst r11
 881 00a2 01F4      		brne .L56
 882               	.LSM96:
 883 00a4 90E0      		ldi r25,lo8(0)
 884 00a6 8170      		andi r24,lo8(1)
 885 00a8 9070      		andi r25,hi8(1)
 886 00aa 880F      		lsl r24
 887 00ac 991F      		rol r25
 888 00ae 8160      		ori r24,lo8(1)
 889 00b0 8083      		st Z,r24
 890 00b2 00C0      		rjmp .L57
 891               	.L56:
 892               	.LSM97:
 893 00b4 90E0      		ldi r25,lo8(0)
 894 00b6 8170      		andi r24,lo8(1)
 895 00b8 9070      		andi r25,hi8(1)
 896 00ba 880F      		lsl r24
 897 00bc 991F      		rol r25
 898 00be 8160      		ori r24,lo8(1)
 899 00c0 2B2D      		mov r18,r11
 900 00c2 220F      		lsl r18
 901 00c4 220F      		lsl r18
 902 00c6 220F      		lsl r18
 903 00c8 282B      		or r18,r24
 904 00ca 2083      		st Z,r18
 905               	.L57:
 906               	.LSM98:
 907 00cc D801      		movw r26,r16
 908 00ce 1296      		adiw r26,2
 909 00d0 ED91      		ld r30,X+
 910 00d2 FC91      		ld r31,X
 911 00d4 1397      		sbiw r26,2+1
 912 00d6 8FEE      		ldi r24,lo8(-17)
 913 00d8 8183      		std Z+1,r24
 914               	.LSM99:
 915 00da C114      		cp r12,__zero_reg__
 916 00dc D104      		cpc r13,__zero_reg__
 917 00de 01F0      		breq .L58
 918               	.LSM100:
 919 00e0 F601      		movw r30,r12
 920 00e2 8481      		ldd r24,Z+4
 921 00e4 9581      		ldd r25,Z+5
 922 00e6 1296      		adiw r26,2
 923 00e8 ED91      		ld r30,X+
 924 00ea FC91      		ld r31,X
 925 00ec 1397      		sbiw r26,2+1
 926 00ee 8F37      		cpi r24,127
 927 00f0 9105      		cpc r25,__zero_reg__
 928 00f2 00F4      		brsh .L59
 929               	.LSM101:
 930 00f4 880F      		lsl r24
 931 00f6 8160      		ori r24,lo8(1)
 932 00f8 8283      		std Z+2,r24
 933 00fa 00C0      		rjmp .L60
 934               	.L59:
 935               	.LSM102:
 936 00fc 880F      		lsl r24
 937 00fe 991F      		rol r25
 938 0100 9383      		std Z+3,r25
 939 0102 8283      		std Z+2,r24
 940               	.L60:
 941               	.LSM103:
 942 0104 C801      		movw r24,r16
 943 0106 B601      		movw r22,r12
 944 0108 0E94 0000 		call pbuf_chain
 945 010c 00C0      		rjmp .L61
 946               	.L58:
 947               	.LSM104:
 948 010e D801      		movw r26,r16
 949 0110 1296      		adiw r26,2
 950 0112 ED91      		ld r30,X+
 951 0114 FC91      		ld r31,X
 952 0116 1397      		sbiw r26,2+1
 953 0118 81E0      		ldi r24,lo8(1)
 954 011a 8283      		std Z+2,r24
 955               	.L61:
 956               	.LSM105:
 957 011c 83E0      		ldi r24,lo8(3)
 958 011e 61E0      		ldi r22,lo8(1)
 959 0120 70E0      		ldi r23,hi8(1)
 960 0122 40E0      		ldi r20,lo8(0)
 961 0124 0E94 0000 		call pbuf_alloc
 962 0128 EC01      		movw r28,r24
 963               	.LVL95:
 964 012a 0097      		sbiw r24,0
 965 012c 01F4      		brne .L62
 966               	.LVL96:
 967               	.LSM106:
 968 012e C801      		movw r24,r16
 969               	.LVL97:
 970 0130 0E94 0000 		call pbuf_free
 971 0134 00C0      		rjmp .L53
 972               	.LVL98:
 973               	.L62:
 974 0136 EA81      		ldd r30,Y+2
 975 0138 FB81      		ldd r31,Y+3
 976               	.LSM107:
 977 013a BB20      		tst r11
 978 013c 01F4      		brne .L63
 979               	.LVL99:
 980               	.LSM108:
 981 013e D701      		movw r26,r14
 982 0140 5496      		adiw r26,20
 983 0142 8C91      		ld r24,X
 984 0144 00C0      		rjmp .L68
 985               	.LVL100:
 986               	.L63:
 987               	.LSM109:
 988 0146 D701      		movw r26,r14
 989 0148 5196      		adiw r26,17
 990 014a 8C91      		ld r24,X
 991               	.L68:
 992 014c 8083      		st Z,r24
 993               	.LSM110:
 994 014e C801      		movw r24,r16
 995 0150 BE01      		movw r22,r28
 996 0152 0E94 0000 		call pbuf_chain
 997               	.LSM111:
 998 0156 CE01      		movw r24,r28
 999 0158 0E94 0000 		call pbuf_free
 1000               	.LSM112:
 1001 015c F701      		movw r30,r14
 1002 015e 8381      		ldd r24,Z+3
 1003 0160 9481      		ldd r25,Z+4
 1004 0162 B801      		movw r22,r16
 1005 0164 0E94 0000 		call l2ca_datawrite
 1006 0168 F82E      		mov r15,r24
 1007               	.LVL101:
 1008               	.LSM113:
 1009 016a C114      		cp r12,__zero_reg__
 1010 016c D104      		cpc r13,__zero_reg__
 1011 016e 01F0      		breq .L65
 1012               	.LSM114:
 1013 0170 C801      		movw r24,r16
 1014 0172 0E94 0000 		call pbuf_dechain
 1015               	.LSM115:
 1016 0176 D601      		movw r26,r12
 1017 0178 1496      		adiw r26,4
 1018 017a 6D91      		ld r22,X+
 1019 017c 7C91      		ld r23,X
 1020 017e 1597      		sbiw r26,4+1
 1021 0180 6150      		subi r22,lo8(-(-1))
 1022 0182 7040      		sbci r23,hi8(-(-1))
 1023 0184 C601      		movw r24,r12
 1024 0186 0E94 0000 		call pbuf_realloc
 1025               	.L65:
 1026               	.LSM116:
 1027 018a C801      		movw r24,r16
 1028 018c 0E94 0000 		call pbuf_free
 1029 0190 00C0      		rjmp .L50
 1030               	.LVL102:
 1031               	.L53:
 1032               	.LSM117:
 1033 0192 FF24      		clr r15
 1034 0194 FA94      		dec r15
 1035               	.LVL103:
 1036               	.L50:
 1037               	.LSM118:
 1038 0196 8F2D      		mov r24,r15
 1039               	/* epilogue start */
 1040 0198 DF91      		pop r29
 1041 019a CF91      		pop r28
 1042               	.LVL104:
 1043 019c 1F91      		pop r17
 1044 019e 0F91      		pop r16
 1045               	.LVL105:
 1046 01a0 FF90      		pop r15
 1047               	.LVL106:
 1048 01a2 EF90      		pop r14
 1049               	.LVL107:
 1050 01a4 DF90      		pop r13
 1051 01a6 CF90      		pop r12
 1052               	.LVL108:
 1053 01a8 BF90      		pop r11
 1054               	.LVL109:
 1055 01aa 0895      		ret
 1056               	.LFE18:
 1058               		.section	.text.rfcomm_rpn,"ax",@progbits
 1059               	.global	rfcomm_rpn
 1061               	rfcomm_rpn:
 1062               	.LFB17:
 1063               	.LSM119:
 1064               	.LVL110:
 1065 0000 AF92      		push r10
 1066 0002 BF92      		push r11
 1067 0004 CF92      		push r12
 1068 0006 DF92      		push r13
 1069 0008 EF92      		push r14
 1070 000a FF92      		push r15
 1071 000c 1F93      		push r17
 1072 000e CF93      		push r28
 1073 0010 DF93      		push r29
 1074               	/* prologue: function */
 1075               	/* frame size = 0 */
 1076 0012 6C01      		movw r12,r24
 1077 0014 162F      		mov r17,r22
 1078 0016 5A01      		movw r10,r20
 1079               	.LSM120:
 1080 0018 FC01      		movw r30,r24
 1081 001a 6381      		ldd r22,Z+3
 1082 001c 7481      		ldd r23,Z+4
 1083               	.LVL111:
 1084 001e 605F      		subi r22,lo8(-(16))
 1085 0020 7F4F      		sbci r23,hi8(-(16))
 1086 0022 80E0      		ldi r24,lo8(0)
 1087               	.LVL112:
 1088 0024 0E94 0000 		call rfcomm_get_active_pcb
 1089               	.LVL113:
 1090 0028 7C01      		movw r14,r24
 1091               	.LVL114:
 1092               	.LSM121:
 1093 002a 83E0      		ldi r24,lo8(3)
 1094 002c 6AE0      		ldi r22,lo8(10)
 1095 002e 70E0      		ldi r23,hi8(10)
 1096 0030 40E0      		ldi r20,lo8(0)
 1097 0032 0E94 0000 		call pbuf_alloc
 1098 0036 EC01      		movw r28,r24
 1099               	.LVL115:
 1100 0038 0097      		sbiw r24,0
 1101 003a 01F4      		brne .L70
 1102               	.LVL116:
 1103 003c 1FEF      		ldi r17,lo8(-1)
 1104               	.LVL117:
 1105 003e 00C0      		rjmp .L71
 1106               	.LVL118:
 1107               	.L70:
 1108               	.LSM122:
 1109 0040 EA81      		ldd r30,Y+2
 1110 0042 FB81      		ldd r31,Y+3
 1111               	.LVL119:
 1112               	.LSM123:
 1113 0044 83E9      		ldi r24,lo8(-109)
 1114               	.LVL120:
 1115 0046 8083      		st Z,r24
 1116               	.LSM124:
 1117 0048 81E1      		ldi r24,lo8(17)
 1118 004a 8183      		std Z+1,r24
 1119               	.LSM125:
 1120 004c 2A81      		ldd r18,Y+2
 1121 004e 3B81      		ldd r19,Y+3
 1122 0050 D901      		movw r26,r18
 1123               	.LVL121:
 1124 0052 1296      		adiw r26,2
 1125               	.LSM126:
 1126 0054 F701      		movw r30,r14
 1127               	.LVL122:
 1128 0056 8485      		ldd r24,Z+12
 1129 0058 80FF      		sbrs r24,0
 1130 005a 00C0      		rjmp .L72
 1131 005c 93E0      		ldi r25,lo8(3)
 1132 005e 00C0      		rjmp .L73
 1133               	.L72:
 1134 0060 97E0      		ldi r25,lo8(7)
 1135               	.L73:
 1136 0062 F601      		movw r30,r12
 1137 0064 8581      		ldd r24,Z+5
 1138 0066 880F      		lsl r24
 1139 0068 880F      		lsl r24
 1140 006a 880F      		lsl r24
 1141 006c 892B      		or r24,r25
 1142 006e F901      		movw r30,r18
 1143 0070 8283      		std Z+2,r24
 1144               	.LSM127:
 1145 0072 1196      		adiw r26,1
 1146 0074 1C93      		st X,r17
 1147 0076 1197      		sbiw r26,1
 1148               	.LSM128:
 1149 0078 81E0      		ldi r24,lo8(1)
 1150 007a 90E0      		ldi r25,hi8(1)
 1151 007c 1796      		adiw r26,6+1
 1152 007e 9C93      		st X,r25
 1153 0080 8E93      		st -X,r24
 1154 0082 1697      		sbiw r26,6
 1155               	.LSM129:
 1156 0084 C701      		movw r24,r14
 1157 0086 60E0      		ldi r22,lo8(0)
 1158 0088 AE01      		movw r20,r28
 1159 008a 0E94 0000 		call rfcomm_uih
 1160               	.LVL123:
 1161 008e 182F      		mov r17,r24
 1162               	.LVL124:
 1163 0090 8823      		tst r24
 1164 0092 01F4      		brne .L74
 1165               	.LVL125:
 1166               	.LSM130:
 1167 0094 F601      		movw r30,r12
 1168 0096 B4A2      		std Z+36,r11
 1169 0098 A3A2      		std Z+35,r10
 1170               	.LSM131:
 1171 009a 84E1      		ldi r24,lo8(20)
 1172 009c 90E0      		ldi r25,hi8(20)
 1173               	.LVL126:
 1174 009e F701      		movw r30,r14
 1175 00a0 9687      		std Z+14,r25
 1176 00a2 8587      		std Z+13,r24
 1177               	.LVL127:
 1178               	.L74:
 1179               	.LSM132:
 1180 00a4 CE01      		movw r24,r28
 1181 00a6 0E94 0000 		call pbuf_free
 1182               	.LVL128:
 1183               	.L71:
 1184               	.LSM133:
 1185 00aa 812F      		mov r24,r17
 1186               	/* epilogue start */
 1187 00ac DF91      		pop r29
 1188 00ae CF91      		pop r28
 1189               	.LVL129:
 1190 00b0 1F91      		pop r17
 1191               	.LVL130:
 1192 00b2 FF90      		pop r15
 1193 00b4 EF90      		pop r14
 1194               	.LVL131:
 1195 00b6 DF90      		pop r13
 1196 00b8 CF90      		pop r12
 1197               	.LVL132:
 1198 00ba BF90      		pop r11
 1199 00bc AF90      		pop r10
 1200               	.LVL133:
 1201 00be 0895      		ret
 1202               	.LFE17:
 1204               		.section	.text.rfcomm_msc,"ax",@progbits
 1205               	.global	rfcomm_msc
 1207               	rfcomm_msc:
 1208               	.LFB16:
 1209               	.LSM134:
 1210               	.LVL134:
 1211 0000 AF92      		push r10
 1212 0002 BF92      		push r11
 1213 0004 CF92      		push r12
 1214 0006 DF92      		push r13
 1215 0008 EF92      		push r14
 1216 000a FF92      		push r15
 1217 000c 1F93      		push r17
 1218 000e CF93      		push r28
 1219 0010 DF93      		push r29
 1220               	/* prologue: function */
 1221               	/* frame size = 0 */
 1222 0012 7C01      		movw r14,r24
 1223 0014 162F      		mov r17,r22
 1224 0016 5A01      		movw r10,r20
 1225               	.LSM135:
 1226 0018 DC01      		movw r26,r24
 1227 001a 1396      		adiw r26,3
 1228 001c 6D91      		ld r22,X+
 1229 001e 7C91      		ld r23,X
 1230 0020 1497      		sbiw r26,3+1
 1231               	.LVL135:
 1232 0022 605F      		subi r22,lo8(-(16))
 1233 0024 7F4F      		sbci r23,hi8(-(16))
 1234 0026 80E0      		ldi r24,lo8(0)
 1235               	.LVL136:
 1236 0028 0E94 0000 		call rfcomm_get_active_pcb
 1237               	.LVL137:
 1238 002c 6C01      		movw r12,r24
 1239               	.LVL138:
 1240               	.LSM136:
 1241 002e 83E0      		ldi r24,lo8(3)
 1242 0030 64E0      		ldi r22,lo8(4)
 1243 0032 70E0      		ldi r23,hi8(4)
 1244 0034 40E0      		ldi r20,lo8(0)
 1245 0036 0E94 0000 		call pbuf_alloc
 1246 003a EC01      		movw r28,r24
 1247               	.LVL139:
 1248 003c 0097      		sbiw r24,0
 1249 003e 01F4      		brne .L77
 1250               	.LVL140:
 1251 0040 1FEF      		ldi r17,lo8(-1)
 1252               	.LVL141:
 1253 0042 00C0      		rjmp .L78
 1254               	.LVL142:
 1255               	.L77:
 1256               	.LSM137:
 1257 0044 EA81      		ldd r30,Y+2
 1258 0046 FB81      		ldd r31,Y+3
 1259               	.LVL143:
 1260               	.LSM138:
 1261 0048 83EE      		ldi r24,lo8(-29)
 1262               	.LVL144:
 1263 004a 8083      		st Z,r24
 1264               	.LSM139:
 1265 004c 85E0      		ldi r24,lo8(5)
 1266 004e 8183      		std Z+1,r24
 1267               	.LSM140:
 1268 0050 EA81      		ldd r30,Y+2
 1269 0052 FB81      		ldd r31,Y+3
 1270               	.LVL145:
 1271               	.LSM141:
 1272 0054 D701      		movw r26,r14
 1273 0056 1596      		adiw r26,5
 1274 0058 8C91      		ld r24,X
 1275 005a 880F      		lsl r24
 1276 005c 880F      		lsl r24
 1277 005e 880F      		lsl r24
 1278 0060 8360      		ori r24,lo8(3)
 1279 0062 8283      		std Z+2,r24
 1280               	.LSM142:
 1281 0064 110F      		lsl r17
 1282 0066 1D68      		ori r17,lo8(-115)
 1283 0068 1383      		std Z+3,r17
 1284               	.LSM143:
 1285 006a C601      		movw r24,r12
 1286 006c 60E0      		ldi r22,lo8(0)
 1287 006e AE01      		movw r20,r28
 1288 0070 0E94 0000 		call rfcomm_uih
 1289 0074 182F      		mov r17,r24
 1290               	.LVL146:
 1291 0076 8823      		tst r24
 1292 0078 01F4      		brne .L79
 1293               	.LVL147:
 1294               	.LSM144:
 1295 007a F701      		movw r30,r14
 1296 007c B2A2      		std Z+34,r11
 1297 007e A1A2      		std Z+33,r10
 1298               	.LSM145:
 1299 0080 84E1      		ldi r24,lo8(20)
 1300 0082 90E0      		ldi r25,hi8(20)
 1301               	.LVL148:
 1302 0084 D601      		movw r26,r12
 1303 0086 1E96      		adiw r26,13+1
 1304 0088 9C93      		st X,r25
 1305 008a 8E93      		st -X,r24
 1306 008c 1D97      		sbiw r26,13
 1307               	.LVL149:
 1308               	.L79:
 1309               	.LSM146:
 1310 008e CE01      		movw r24,r28
 1311 0090 0E94 0000 		call pbuf_free
 1312               	.LVL150:
 1313               	.L78:
 1314               	.LSM147:
 1315 0094 812F      		mov r24,r17
 1316               	/* epilogue start */
 1317 0096 DF91      		pop r29
 1318 0098 CF91      		pop r28
 1319               	.LVL151:
 1320 009a 1F91      		pop r17
 1321               	.LVL152:
 1322 009c FF90      		pop r15
 1323 009e EF90      		pop r14
 1324               	.LVL153:
 1325 00a0 DF90      		pop r13
 1326 00a2 CF90      		pop r12
 1327               	.LVL154:
 1328 00a4 BF90      		pop r11
 1329 00a6 AF90      		pop r10
 1330               	.LVL155:
 1331 00a8 0895      		ret
 1332               	.LFE16:
 1334               		.section	.text.rfcomm_test,"ax",@progbits
 1335               	.global	rfcomm_test
 1337               	rfcomm_test:
 1338               	.LFB15:
 1339               	.LSM148:
 1340               	.LVL156:
 1341 0000 CF92      		push r12
 1342 0002 DF92      		push r13
 1343 0004 EF92      		push r14
 1344 0006 FF92      		push r15
 1345 0008 1F93      		push r17
 1346 000a CF93      		push r28
 1347 000c DF93      		push r29
 1348               	/* prologue: function */
 1349               	/* frame size = 0 */
 1350 000e 6B01      		movw r12,r22
 1351               	.LSM149:
 1352 0010 FC01      		movw r30,r24
 1353 0012 6381      		ldd r22,Z+3
 1354 0014 7481      		ldd r23,Z+4
 1355               	.LVL157:
 1356 0016 605F      		subi r22,lo8(-(16))
 1357 0018 7F4F      		sbci r23,hi8(-(16))
 1358 001a 80E0      		ldi r24,lo8(0)
 1359               	.LVL158:
 1360 001c 0E94 0000 		call rfcomm_get_active_pcb
 1361 0020 7C01      		movw r14,r24
 1362               	.LVL159:
 1363               	.LSM150:
 1364 0022 83E0      		ldi r24,lo8(3)
 1365 0024 62E0      		ldi r22,lo8(2)
 1366 0026 70E0      		ldi r23,hi8(2)
 1367 0028 40E0      		ldi r20,lo8(0)
 1368 002a 0E94 0000 		call pbuf_alloc
 1369 002e EC01      		movw r28,r24
 1370               	.LVL160:
 1371 0030 0097      		sbiw r24,0
 1372 0032 01F4      		brne .L82
 1373               	.LVL161:
 1374 0034 1FEF      		ldi r17,lo8(-1)
 1375               	.LVL162:
 1376 0036 00C0      		rjmp .L83
 1377               	.LVL163:
 1378               	.L82:
 1379               	.LSM151:
 1380 0038 EA81      		ldd r30,Y+2
 1381 003a FB81      		ldd r31,Y+3
 1382               	.LVL164:
 1383               	.LSM152:
 1384 003c 83E2      		ldi r24,lo8(35)
 1385               	.LVL165:
 1386 003e 8083      		st Z,r24
 1387               	.LSM153:
 1388 0040 81E0      		ldi r24,lo8(1)
 1389 0042 8183      		std Z+1,r24
 1390               	.LSM154:
 1391 0044 C701      		movw r24,r14
 1392 0046 60E0      		ldi r22,lo8(0)
 1393 0048 AE01      		movw r20,r28
 1394 004a 0E94 0000 		call rfcomm_uih
 1395               	.LVL166:
 1396 004e 182F      		mov r17,r24
 1397               	.LVL167:
 1398 0050 8823      		tst r24
 1399 0052 01F4      		brne .L84
 1400               	.LVL168:
 1401               	.LSM155:
 1402 0054 F701      		movw r30,r14
 1403 0056 D0A2      		std Z+32,r13
 1404 0058 C78E      		std Z+31,r12
 1405               	.LSM156:
 1406 005a 84E1      		ldi r24,lo8(20)
 1407 005c 90E0      		ldi r25,hi8(20)
 1408               	.LVL169:
 1409 005e 9687      		std Z+14,r25
 1410 0060 8587      		std Z+13,r24
 1411               	.LVL170:
 1412               	.L84:
 1413               	.LSM157:
 1414 0062 CE01      		movw r24,r28
 1415 0064 0E94 0000 		call pbuf_free
 1416               	.LVL171:
 1417               	.L83:
 1418               	.LSM158:
 1419 0068 812F      		mov r24,r17
 1420               	/* epilogue start */
 1421 006a DF91      		pop r29
 1422 006c CF91      		pop r28
 1423               	.LVL172:
 1424 006e 1F91      		pop r17
 1425               	.LVL173:
 1426 0070 FF90      		pop r15
 1427 0072 EF90      		pop r14
 1428               	.LVL174:
 1429 0074 DF90      		pop r13
 1430 0076 CF90      		pop r12
 1431               	.LVL175:
 1432 0078 0895      		ret
 1433               	.LFE15:
 1435               		.section	.text.rfcomm_pn,"ax",@progbits
 1436               	.global	rfcomm_pn
 1438               	rfcomm_pn:
 1439               	.LFB14:
 1440               	.LSM159:
 1441               	.LVL176:
 1442 0000 AF92      		push r10
 1443 0002 BF92      		push r11
 1444 0004 CF92      		push r12
 1445 0006 DF92      		push r13
 1446 0008 EF92      		push r14
 1447 000a FF92      		push r15
 1448 000c 1F93      		push r17
 1449 000e CF93      		push r28
 1450 0010 DF93      		push r29
 1451               	/* prologue: function */
 1452               	/* frame size = 0 */
 1453 0012 6C01      		movw r12,r24
 1454 0014 5B01      		movw r10,r22
 1455               	.LSM160:
 1456 0016 DC01      		movw r26,r24
 1457 0018 1396      		adiw r26,3
 1458 001a 6D91      		ld r22,X+
 1459 001c 7C91      		ld r23,X
 1460 001e 1497      		sbiw r26,3+1
 1461               	.LVL177:
 1462 0020 605F      		subi r22,lo8(-(16))
 1463 0022 7F4F      		sbci r23,hi8(-(16))
 1464 0024 80E0      		ldi r24,lo8(0)
 1465               	.LVL178:
 1466 0026 0E94 0000 		call rfcomm_get_active_pcb
 1467 002a 7C01      		movw r14,r24
 1468               	.LVL179:
 1469               	.LSM161:
 1470 002c 83E0      		ldi r24,lo8(3)
 1471 002e 6AE0      		ldi r22,lo8(10)
 1472 0030 70E0      		ldi r23,hi8(10)
 1473 0032 40E0      		ldi r20,lo8(0)
 1474 0034 0E94 0000 		call pbuf_alloc
 1475 0038 EC01      		movw r28,r24
 1476               	.LVL180:
 1477 003a 0097      		sbiw r24,0
 1478 003c 01F4      		brne .L87
 1479               	.LVL181:
 1480 003e 1FEF      		ldi r17,lo8(-1)
 1481               	.LVL182:
 1482 0040 00C0      		rjmp .L88
 1483               	.LVL183:
 1484               	.L87:
 1485               	.LSM162:
 1486 0042 EA81      		ldd r30,Y+2
 1487 0044 FB81      		ldd r31,Y+3
 1488               	.LVL184:
 1489               	.LSM163:
 1490 0046 83E8      		ldi r24,lo8(-125)
 1491               	.LVL185:
 1492 0048 8083      		st Z,r24
 1493               	.LSM164:
 1494 004a 81E1      		ldi r24,lo8(17)
 1495 004c 8183      		std Z+1,r24
 1496               	.LSM165:
 1497 004e 2A81      		ldd r18,Y+2
 1498 0050 3B81      		ldd r19,Y+3
 1499 0052 F901      		movw r30,r18
 1500               	.LVL186:
 1501 0054 3296      		adiw r30,2
 1502               	.LSM166:
 1503 0056 D601      		movw r26,r12
 1504 0058 1596      		adiw r26,5
 1505 005a 9C91      		ld r25,X
 1506 005c 990F      		lsl r25
 1507 005e D701      		movw r26,r14
 1508 0060 1C96      		adiw r26,12
 1509 0062 8C91      		ld r24,X
 1510 0064 8095      		com r24
 1511 0066 8170      		andi r24,lo8(1)
 1512 0068 982B      		or r25,r24
 1513 006a D901      		movw r26,r18
 1514 006c 1296      		adiw r26,2
 1515 006e 9C93      		st X,r25
 1516               	.LSM167:
 1517 0070 80EF      		ldi r24,lo8(-16)
 1518 0072 8183      		std Z+1,r24
 1519               	.LSM168:
 1520 0074 1282      		std Z+2,__zero_reg__
 1521               	.LSM169:
 1522 0076 1382      		std Z+3,__zero_reg__
 1523               	.LSM170:
 1524 0078 88E8      		ldi r24,lo8(1160)
 1525 007a 94E0      		ldi r25,hi8(1160)
 1526 007c 9583      		std Z+5,r25
 1527 007e 8483      		std Z+4,r24
 1528               	.LSM171:
 1529 0080 1682      		std Z+6,__zero_reg__
 1530               	.LSM172:
 1531 0082 1782      		std Z+7,__zero_reg__
 1532               	.LSM173:
 1533 0084 C701      		movw r24,r14
 1534 0086 60E0      		ldi r22,lo8(0)
 1535 0088 AE01      		movw r20,r28
 1536 008a 0E94 0000 		call rfcomm_uih
 1537               	.LVL187:
 1538 008e 182F      		mov r17,r24
 1539               	.LVL188:
 1540 0090 8823      		tst r24
 1541 0092 01F4      		brne .L89
 1542               	.LVL189:
 1543               	.LSM174:
 1544 0094 F601      		movw r30,r12
 1545 0096 B68E      		std Z+30,r11
 1546 0098 A58E      		std Z+29,r10
 1547               	.LSM175:
 1548 009a 84E1      		ldi r24,lo8(20)
 1549 009c 90E0      		ldi r25,hi8(20)
 1550               	.LVL190:
 1551 009e D701      		movw r26,r14
 1552 00a0 1E96      		adiw r26,13+1
 1553 00a2 9C93      		st X,r25
 1554 00a4 8E93      		st -X,r24
 1555 00a6 1D97      		sbiw r26,13
 1556               	.LVL191:
 1557               	.L89:
 1558               	.LSM176:
 1559 00a8 CE01      		movw r24,r28
 1560 00aa 0E94 0000 		call pbuf_free
 1561               	.LVL192:
 1562               	.L88:
 1563               	.LSM177:
 1564 00ae 812F      		mov r24,r17
 1565               	/* epilogue start */
 1566 00b0 DF91      		pop r29
 1567 00b2 CF91      		pop r28
 1568               	.LVL193:
 1569 00b4 1F91      		pop r17
 1570               	.LVL194:
 1571 00b6 FF90      		pop r15
 1572 00b8 EF90      		pop r14
 1573               	.LVL195:
 1574 00ba DF90      		pop r13
 1575 00bc CF90      		pop r12
 1576               	.LVL196:
 1577 00be BF90      		pop r11
 1578 00c0 AF90      		pop r10
 1579               	.LVL197:
 1580 00c2 0895      		ret
 1581               	.LFE14:
 1583               		.section	.text.rfcomm_close,"ax",@progbits
 1584               	.global	rfcomm_close
 1586               	rfcomm_close:
 1587               	.LFB7:
 1588               	.LSM178:
 1589               	.LVL198:
 1590               	/* prologue: function */
 1591               	/* frame size = 0 */
 1592 0000 DC01      		movw r26,r24
 1593               	.LSM179:
 1594 0002 1296      		adiw r26,2
 1595 0004 8C91      		ld r24,X
 1596 0006 1297      		sbiw r26,2
 1597               	.LVL199:
 1598 0008 8130      		cpi r24,lo8(1)
 1599 000a 01F4      		brne .L92
 1600               	.LSM180:
 1601 000c E091 0000 		lds r30,rfcomm_listen_pcbs
 1602 0010 F091 0000 		lds r31,(rfcomm_listen_pcbs)+1
 1603 0014 EA17      		cp r30,r26
 1604 0016 FB07      		cpc r31,r27
 1605 0018 01F4      		brne .L93
 1606 001a 8D91      		ld r24,X+
 1607 001c 9C91      		ld r25,X
 1608 001e 1197      		sbiw r26,1
 1609 0020 9093 0000 		sts (rfcomm_listen_pcbs)+1,r25
 1610 0024 8093 0000 		sts rfcomm_listen_pcbs,r24
 1611 0028 00C0      		rjmp .L94
 1612               	.L93:
 1613 002a F093 0000 		sts (rfcomm_tmp_pcb)+1,r31
 1614 002e E093 0000 		sts rfcomm_tmp_pcb,r30
 1615 0032 00C0      		rjmp .L95
 1616               	.L97:
 1617 0034 8081      		ld r24,Z
 1618 0036 9181      		ldd r25,Z+1
 1619 0038 0097      		sbiw r24,0
 1620 003a 01F0      		breq .L96
 1621 003c 8A17      		cp r24,r26
 1622 003e 9B07      		cpc r25,r27
 1623 0040 01F4      		brne .L96
 1624 0042 F093 0000 		sts (rfcomm_tmp_pcb)+1,r31
 1625 0046 E093 0000 		sts rfcomm_tmp_pcb,r30
 1626 004a 8D91      		ld r24,X+
 1627 004c 9C91      		ld r25,X
 1628 004e 1197      		sbiw r26,1
 1629 0050 9183      		std Z+1,r25
 1630 0052 8083      		st Z,r24
 1631 0054 00C0      		rjmp .L94
 1632               	.L96:
 1633 0056 FC01      		movw r30,r24
 1634               	.L95:
 1635 0058 3097      		sbiw r30,0
 1636 005a 01F4      		brne .L97
 1637 005c 1092 0000 		sts (rfcomm_tmp_pcb)+1,__zero_reg__
 1638 0060 1092 0000 		sts rfcomm_tmp_pcb,__zero_reg__
 1639               	.L94:
 1640 0064 1196      		adiw r26,1
 1641 0066 1C92      		st X,__zero_reg__
 1642 0068 1E92      		st -X,__zero_reg__
 1643               	.LSM181:
 1644 006a 8AE0      		ldi r24,lo8(10)
 1645 006c 00C0      		rjmp .L105
 1646               	.L92:
 1647               	.LSM182:
 1648 006e E091 0000 		lds r30,rfcomm_active_pcbs
 1649 0072 F091 0000 		lds r31,(rfcomm_active_pcbs)+1
 1650 0076 EA17      		cp r30,r26
 1651 0078 FB07      		cpc r31,r27
 1652 007a 01F4      		brne .L99
 1653 007c 8D91      		ld r24,X+
 1654 007e 9C91      		ld r25,X
 1655 0080 1197      		sbiw r26,1
 1656 0082 9093 0000 		sts (rfcomm_active_pcbs)+1,r25
 1657 0086 8093 0000 		sts rfcomm_active_pcbs,r24
 1658 008a 00C0      		rjmp .L100
 1659               	.L99:
 1660 008c F093 0000 		sts (rfcomm_tmp_pcb)+1,r31
 1661 0090 E093 0000 		sts rfcomm_tmp_pcb,r30
 1662 0094 00C0      		rjmp .L101
 1663               	.L103:
 1664 0096 8081      		ld r24,Z
 1665 0098 9181      		ldd r25,Z+1
 1666 009a 0097      		sbiw r24,0
 1667 009c 01F0      		breq .L102
 1668 009e 8A17      		cp r24,r26
 1669 00a0 9B07      		cpc r25,r27
 1670 00a2 01F4      		brne .L102
 1671 00a4 F093 0000 		sts (rfcomm_tmp_pcb)+1,r31
 1672 00a8 E093 0000 		sts rfcomm_tmp_pcb,r30
 1673 00ac 8D91      		ld r24,X+
 1674 00ae 9C91      		ld r25,X
 1675 00b0 1197      		sbiw r26,1
 1676 00b2 9183      		std Z+1,r25
 1677 00b4 8083      		st Z,r24
 1678 00b6 00C0      		rjmp .L100
 1679               	.L102:
 1680 00b8 FC01      		movw r30,r24
 1681               	.L101:
 1682 00ba 3097      		sbiw r30,0
 1683 00bc 01F4      		brne .L103
 1684 00be 1092 0000 		sts (rfcomm_tmp_pcb)+1,__zero_reg__
 1685 00c2 1092 0000 		sts rfcomm_tmp_pcb,__zero_reg__
 1686               	.L100:
 1687 00c6 1196      		adiw r26,1
 1688 00c8 1C92      		st X,__zero_reg__
 1689 00ca 1E92      		st -X,__zero_reg__
 1690               	.LSM183:
 1691 00cc 89E0      		ldi r24,lo8(9)
 1692               	.L105:
 1693 00ce BD01      		movw r22,r26
 1694 00d0 0E94 0000 		call lwbt_memp_free
 1695               	.LVL200:
 1696 00d4 0895      		ret
 1697               	.LFE7:
 1699               		.section	.text.rfcomm_reset_all,"ax",@progbits
 1700               	.global	rfcomm_reset_all
 1702               	rfcomm_reset_all:
 1703               	.LFB8:
 1704               	.LSM184:
 1705 0000 0F93      		push r16
 1706 0002 1F93      		push r17
 1707               	/* prologue: function */
 1708               	/* frame size = 0 */
 1709               	.LSM185:
 1710 0004 E091 0000 		lds r30,rfcomm_active_pcbs
 1711 0008 F091 0000 		lds r31,(rfcomm_active_pcbs)+1
 1712               	.LVL201:
 1713 000c 00C0      		rjmp .L107
 1714               	.LVL202:
 1715               	.L108:
 1716               	.LSM186:
 1717 000e 1081      		ld r17,Z
 1718 0010 0181      		ldd r16,Z+1
 1719               	.LSM187:
 1720 0012 CF01      		movw r24,r30
 1721 0014 0E94 0000 		call rfcomm_close
 1722               	.LVL203:
 1723 0018 212F      		mov r18,r17
 1724               	.LVL204:
 1725 001a 302F      		mov r19,r16
 1726               	.LVL205:
 1727 001c C901      		movw r24,r18
 1728               	.LVL206:
 1729 001e FC01      		movw r30,r24
 1730               	.LVL207:
 1731               	.L107:
 1732               	.LSM188:
 1733 0020 3097      		sbiw r30,0
 1734 0022 01F4      		brne .L108
 1735               	.LSM189:
 1736 0024 E091 0000 		lds r30,rfcomm_listen_pcbs
 1737 0028 F091 0000 		lds r31,(rfcomm_listen_pcbs)+1
 1738               	.LVL208:
 1739 002c 00C0      		rjmp .L109
 1740               	.LVL209:
 1741               	.L110:
 1742               	.LSM190:
 1743 002e 1081      		ld r17,Z
 1744               	.LVL210:
 1745 0030 0181      		ldd r16,Z+1
 1746               	.LVL211:
 1747               	.LSM191:
 1748 0032 CF01      		movw r24,r30
 1749               	.LVL212:
 1750 0034 0E94 0000 		call rfcomm_close
 1751               	.LVL213:
 1752 0038 212F      		mov r18,r17
 1753               	.LVL214:
 1754 003a 302F      		mov r19,r16
 1755               	.LVL215:
 1756 003c C901      		movw r24,r18
 1757               	.LVL216:
 1758 003e FC01      		movw r30,r24
 1759               	.LVL217:
 1760               	.L109:
 1761               	.LSM192:
 1762 0040 3097      		sbiw r30,0
 1763 0042 01F4      		brne .L110
 1764               	.LSM193:
 1765 0044 0E94 0000 		call rfcomm_init
 1766               	.LVL218:
 1767               	/* epilogue start */
 1768               	.LSM194:
 1769 0048 1F91      		pop r17
 1770               	.LVL219:
 1771 004a 0F91      		pop r16
 1772               	.LVL220:
 1773 004c 0895      		ret
 1774               	.LFE8:
 1776               		.section	.text.rfcomm_lp_disconnected,"ax",@progbits
 1777               	.global	rfcomm_lp_disconnected
 1779               	rfcomm_lp_disconnected:
 1780               	.LFB5:
 1781               	.LSM195:
 1782               	.LVL221:
 1783 0000 FF92      		push r15
 1784 0002 0F93      		push r16
 1785 0004 1F93      		push r17
 1786 0006 CF93      		push r28
 1787 0008 DF93      		push r29
 1788               	/* prologue: function */
 1789               	/* frame size = 0 */
 1790 000a EC01      		movw r28,r24
 1791               	.LSM196:
 1792 000c E091 0000 		lds r30,rfcomm_active_pcbs
 1793 0010 F091 0000 		lds r31,(rfcomm_active_pcbs)+1
 1794               	.LVL222:
 1795 0014 10E0      		ldi r17,lo8(0)
 1796               	.LVL223:
 1797 0016 00C0      		rjmp .L113
 1798               	.LVL224:
 1799               	.L116:
 1800               	.LSM197:
 1801 0018 0081      		ld r16,Z
 1802 001a F180      		ldd r15,Z+1
 1803               	.LSM198:
 1804 001c A381      		ldd r26,Z+3
 1805 001e B481      		ldd r27,Z+4
 1806 0020 9889      		ldd r25,Y+16
 1807               	.LVL225:
 1808 0022 5096      		adiw r26,16
 1809 0024 8C91      		ld r24,X
 1810 0026 5097      		sbiw r26,16
 1811 0028 9817      		cp r25,r24
 1812 002a 01F4      		brne .L114
 1813 002c 9989      		ldd r25,Y+17
 1814 002e 5196      		adiw r26,17
 1815 0030 8C91      		ld r24,X
 1816 0032 5197      		sbiw r26,17
 1817 0034 9817      		cp r25,r24
 1818 0036 01F4      		brne .L114
 1819 0038 9A89      		ldd r25,Y+18
 1820 003a 5296      		adiw r26,18
 1821 003c 8C91      		ld r24,X
 1822 003e 5297      		sbiw r26,18
 1823 0040 9817      		cp r25,r24
 1824 0042 01F4      		brne .L114
 1825 0044 9B89      		ldd r25,Y+19
 1826 0046 5396      		adiw r26,19
 1827 0048 8C91      		ld r24,X
 1828 004a 5397      		sbiw r26,19
 1829 004c 9817      		cp r25,r24
 1830 004e 01F4      		brne .L114
 1831 0050 9C89      		ldd r25,Y+20
 1832 0052 5496      		adiw r26,20
 1833 0054 8C91      		ld r24,X
 1834 0056 5497      		sbiw r26,20
 1835 0058 9817      		cp r25,r24
 1836 005a 01F4      		brne .L114
 1837 005c 9D89      		ldd r25,Y+21
 1838 005e 5596      		adiw r26,21
 1839 0060 8C91      		ld r24,X
 1840 0062 9817      		cp r25,r24
 1841 0064 01F4      		brne .L114
 1842               	.LSM199:
 1843 0066 1282      		std Z+2,__zero_reg__
 1844               	.LSM200:
 1845 0068 238D      		ldd r18,Z+27
 1846 006a 348D      		ldd r19,Z+28
 1847 006c 2115      		cp r18,__zero_reg__
 1848 006e 3105      		cpc r19,__zero_reg__
 1849 0070 01F0      		breq .L115
 1850 0072 8589      		ldd r24,Z+21
 1851 0074 9689      		ldd r25,Z+22
 1852 0076 BF01      		movw r22,r30
 1853 0078 40E0      		ldi r20,lo8(0)
 1854 007a F901      		movw r30,r18
 1855 007c 0995      		icall
 1856               	.LVL226:
 1857 007e 182F      		mov r17,r24
 1858 0080 00C0      		rjmp .L114
 1859               	.LVL227:
 1860               	.L115:
 1861 0082 CF01      		movw r24,r30
 1862 0084 0E94 0000 		call rfcomm_close
 1863               	.LVL228:
 1864               	.L114:
 1865 0088 802F      		mov r24,r16
 1866               	.LVL229:
 1867 008a 9F2D      		mov r25,r15
 1868               	.LVL230:
 1869 008c 9C01      		movw r18,r24
 1870               	.LVL231:
 1871 008e F901      		movw r30,r18
 1872               	.LVL232:
 1873               	.L113:
 1874               	.LSM201:
 1875 0090 3097      		sbiw r30,0
 1876 0092 01F4      		brne .L116
 1877               	.LSM202:
 1878 0094 812F      		mov r24,r17
 1879               	/* epilogue start */
 1880 0096 DF91      		pop r29
 1881 0098 CF91      		pop r28
 1882               	.LVL233:
 1883 009a 1F91      		pop r17
 1884               	.LVL234:
 1885 009c 0F91      		pop r16
 1886               	.LVL235:
 1887 009e FF90      		pop r15
 1888               	.LVL236:
 1889 00a0 0895      		ret
 1890               	.LFE5:
 1892               		.section	.text.rfcomm_tmr,"ax",@progbits
 1893               	.global	rfcomm_tmr
 1895               	rfcomm_tmr:
 1896               	.LFB4:
 1897               	.LSM203:
 1898 0000 0F93      		push r16
 1899 0002 1F93      		push r17
 1900 0004 CF93      		push r28
 1901 0006 DF93      		push r29
 1902               	/* prologue: function */
 1903               	/* frame size = 0 */
 1904               	.LSM204:
 1905 0008 0091 0000 		lds r16,rfcomm_active_pcbs
 1906 000c 1091 0000 		lds r17,(rfcomm_active_pcbs)+1
 1907               	.LVL237:
 1908 0010 00C0      		rjmp .L119
 1909               	.LVL238:
 1910               	.L127:
 1911               	.LSM205:
 1912 0012 D801      		movw r26,r16
 1913 0014 1D96      		adiw r26,13
 1914 0016 8D91      		ld r24,X+
 1915 0018 9C91      		ld r25,X
 1916 001a 1E97      		sbiw r26,13+1
 1917 001c 0097      		sbiw r24,0
 1918 001e 01F4      		brne .+2
 1919 0020 00C0      		rjmp .L120
 1920               	.LSM206:
 1921 0022 0197      		sbiw r24,1
 1922 0024 1E96      		adiw r26,13+1
 1923 0026 9C93      		st X,r25
 1924 0028 8E93      		st -X,r24
 1925 002a 1D97      		sbiw r26,13
 1926               	.LSM207:
 1927 002c 892B      		or r24,r25
 1928 002e 01F0      		breq .+2
 1929 0030 00C0      		rjmp .L120
 1930               	.LSM208:
 1931 0032 1596      		adiw r26,5
 1932 0034 8C91      		ld r24,X
 1933 0036 8823      		tst r24
 1934 0038 01F0      		breq .+2
 1935 003a 00C0      		rjmp .L121
 1936               	.LSM209:
 1937 003c C091 0000 		lds r28,rfcomm_active_pcbs
 1938 0040 D091 0000 		lds r29,(rfcomm_active_pcbs)+1
 1939 0044 00C0      		rjmp .L122
 1940               	.L125:
 1941               	.LSM210:
 1942 0046 8D81      		ldd r24,Y+5
 1943 0048 8823      		tst r24
 1944 004a 01F0      		breq .L123
 1945 004c AB81      		ldd r26,Y+3
 1946 004e BC81      		ldd r27,Y+4
 1947 0050 F801      		movw r30,r16
 1948 0052 2381      		ldd r18,Z+3
 1949 0054 3481      		ldd r19,Z+4
 1950 0056 5096      		adiw r26,16
 1951 0058 9C91      		ld r25,X
 1952 005a 5097      		sbiw r26,16
 1953 005c F901      		movw r30,r18
 1954 005e 8089      		ldd r24,Z+16
 1955 0060 9817      		cp r25,r24
 1956 0062 01F4      		brne .L123
 1957 0064 5196      		adiw r26,17
 1958 0066 9C91      		ld r25,X
 1959 0068 5197      		sbiw r26,17
 1960 006a 8189      		ldd r24,Z+17
 1961 006c 9817      		cp r25,r24
 1962 006e 01F4      		brne .L123
 1963 0070 5296      		adiw r26,18
 1964 0072 9C91      		ld r25,X
 1965 0074 5297      		sbiw r26,18
 1966 0076 8289      		ldd r24,Z+18
 1967 0078 9817      		cp r25,r24
 1968 007a 01F4      		brne .L123
 1969 007c 5396      		adiw r26,19
 1970 007e 9C91      		ld r25,X
 1971 0080 5397      		sbiw r26,19
 1972 0082 8389      		ldd r24,Z+19
 1973 0084 9817      		cp r25,r24
 1974 0086 01F4      		brne .L123
 1975 0088 5496      		adiw r26,20
 1976 008a 9C91      		ld r25,X
 1977 008c 5497      		sbiw r26,20
 1978 008e 8489      		ldd r24,Z+20
 1979 0090 9817      		cp r25,r24
 1980 0092 01F4      		brne .L123
 1981 0094 5596      		adiw r26,21
 1982 0096 9C91      		ld r25,X
 1983 0098 8589      		ldd r24,Z+21
 1984 009a 9817      		cp r25,r24
 1985 009c 01F4      		brne .L123
 1986               	.LSM211:
 1987 009e 1A82      		std Y+2,__zero_reg__
 1988               	.LSM212:
 1989 00a0 EB8D      		ldd r30,Y+27
 1990 00a2 FC8D      		ldd r31,Y+28
 1991 00a4 3097      		sbiw r30,0
 1992 00a6 01F0      		breq .L124
 1993 00a8 8D89      		ldd r24,Y+21
 1994 00aa 9E89      		ldd r25,Y+22
 1995 00ac BE01      		movw r22,r28
 1996 00ae 40E0      		ldi r20,lo8(0)
 1997 00b0 0995      		icall
 1998 00b2 00C0      		rjmp .L123
 1999               	.L124:
 2000 00b4 CE01      		movw r24,r28
 2001 00b6 0E94 0000 		call rfcomm_close
 2002               	.L123:
 2003               	.LSM213:
 2004 00ba 0990      		ld __tmp_reg__,Y+
 2005 00bc D881      		ld r29,Y
 2006 00be C02D      		mov r28,__tmp_reg__
 2007               	.L122:
 2008 00c0 2097      		sbiw r28,0
 2009 00c2 01F4      		brne .L125
 2010               	.L121:
 2011               	.LSM214:
 2012 00c4 D801      		movw r26,r16
 2013 00c6 1296      		adiw r26,2
 2014 00c8 1C92      		st X,__zero_reg__
 2015 00ca 1297      		sbiw r26,2
 2016               	.LSM215:
 2017 00cc 5B96      		adiw r26,27
 2018 00ce ED91      		ld r30,X+
 2019 00d0 FC91      		ld r31,X
 2020 00d2 5C97      		sbiw r26,27+1
 2021 00d4 3097      		sbiw r30,0
 2022 00d6 01F0      		breq .L126
 2023 00d8 5596      		adiw r26,21
 2024 00da 8D91      		ld r24,X+
 2025 00dc 9C91      		ld r25,X
 2026 00de 5697      		sbiw r26,21+1
 2027 00e0 B801      		movw r22,r16
 2028 00e2 40E0      		ldi r20,lo8(0)
 2029 00e4 0995      		icall
 2030 00e6 00C0      		rjmp .L120
 2031               	.L126:
 2032 00e8 C801      		movw r24,r16
 2033 00ea 0E94 0000 		call rfcomm_close
 2034               	.L120:
 2035               	.LSM216:
 2036 00ee F801      		movw r30,r16
 2037 00f0 0081      		ld r16,Z
 2038 00f2 1181      		ldd r17,Z+1
 2039               	.L119:
 2040 00f4 0115      		cp r16,__zero_reg__
 2041 00f6 1105      		cpc r17,__zero_reg__
 2042 00f8 01F0      		breq .+2
 2043 00fa 00C0      		rjmp .L127
 2044               	/* epilogue start */
 2045               	.LSM217:
 2046 00fc DF91      		pop r29
 2047 00fe CF91      		pop r28
 2048               	.LVL239:
 2049 0100 1F91      		pop r17
 2050 0102 0F91      		pop r16
 2051               	.LVL240:
 2052 0104 0895      		ret
 2053               	.LFE4:
 2055               		.section	.text.rfcomm_new,"ax",@progbits
 2056               	.global	rfcomm_new
 2058               	rfcomm_new:
 2059               	.LFB6:
 2060               	.LSM218:
 2061               	.LVL241:
 2062 0000 CF93      		push r28
 2063 0002 DF93      		push r29
 2064               	/* prologue: function */
 2065               	/* frame size = 0 */
 2066 0004 EC01      		movw r28,r24
 2067               	.LSM219:
 2068 0006 89E0      		ldi r24,lo8(9)
 2069               	.LVL242:
 2070 0008 0E94 0000 		call lwbt_memp_malloc
 2071 000c FC01      		movw r30,r24
 2072               	.LSM220:
 2073 000e 0097      		sbiw r24,0
 2074               	.LVL243:
 2075 0010 01F0      		breq .L130
 2076               	.LSM221:
 2077 0012 87E2      		ldi r24,lo8(39)
 2078               	.LVL244:
 2079 0014 DF01      		movw r26,r30
 2080               	.LVL245:
 2081 0016 1D92      		st X+,__zero_reg__
 2082 0018 8A95      	        dec r24
 2083 001a 01F4      		brne .-6
 2084               	.LSM222:
 2085 001c D483      		std Z+4,r29
 2086 001e C383      		std Z+3,r28
 2087               	.LSM223:
 2088 0020 8FE0      		ldi r24,lo8(15)
 2089 0022 8683      		std Z+6,r24
 2090               	.LSM224:
 2091 0024 88E8      		ldi r24,lo8(1160)
 2092 0026 94E0      		ldi r25,hi8(1160)
 2093 0028 9187      		std Z+9,r25
 2094 002a 8087      		std Z+8,r24
 2095               	.LSM225:
 2096 002c 1282      		std Z+2,__zero_reg__
 2097               	.LVL246:
 2098               	.L130:
 2099               	.LSM226:
 2100 002e CF01      		movw r24,r30
 2101               	.LVL247:
 2102               	/* epilogue start */
 2103 0030 DF91      		pop r29
 2104 0032 CF91      		pop r28
 2105               	.LVL248:
 2106 0034 0895      		ret
 2107               	.LFE6:
 2109               		.section	.text.rfcomm_connect,"ax",@progbits
 2110               	.global	rfcomm_connect
 2112               	rfcomm_connect:
 2113               	.LFB11:
 2114               	.LSM227:
 2115               	.LVL249:
 2116 0000 EF92      		push r14
 2117 0002 FF92      		push r15
 2118 0004 0F93      		push r16
 2119 0006 1F93      		push r17
 2120 0008 CF93      		push r28
 2121 000a DF93      		push r29
 2122               	/* prologue: function */
 2123               	/* frame size = 0 */
 2124 000c EC01      		movw r28,r24
 2125               	.LSM228:
 2126 000e 588F      		std Y+24,r21
 2127 0010 4F8B      		std Y+23,r20
 2128               	.LSM229:
 2129 0012 6D83      		std Y+5,r22
 2130               	.LSM230:
 2131 0014 8C85      		ldd r24,Y+12
 2132               	.LVL250:
 2133 0016 8160      		ori r24,lo8(1)
 2134 0018 8C87      		std Y+12,r24
 2135               	.LSM231:
 2136 001a 6623      		tst r22
 2137 001c 01F0      		breq .L133
 2138               	.LSM232:
 2139 001e 6B81      		ldd r22,Y+3
 2140 0020 7C81      		ldd r23,Y+4
 2141               	.LVL251:
 2142 0022 605F      		subi r22,lo8(-(16))
 2143 0024 7F4F      		sbci r23,hi8(-(16))
 2144 0026 80E0      		ldi r24,lo8(0)
 2145 0028 0E94 0000 		call rfcomm_get_active_pcb
 2146               	.LVL252:
 2147               	.LSM233:
 2148 002c 892B      		or r24,r25
 2149 002e 01F4      		brne .L133
 2150               	.LSM234:
 2151 0030 82E0      		ldi r24,lo8(2)
 2152 0032 8A83      		std Y+2,r24
 2153               	.LSM235:
 2154 0034 8091 0000 		lds r24,rfcomm_active_pcbs
 2155 0038 9091 0000 		lds r25,(rfcomm_active_pcbs)+1
 2156 003c 9983      		std Y+1,r25
 2157 003e 8883      		st Y,r24
 2158 0040 D093 0000 		sts (rfcomm_active_pcbs)+1,r29
 2159 0044 C093 0000 		sts rfcomm_active_pcbs,r28
 2160               	.LSM236:
 2161 0048 8B81      		ldd r24,Y+3
 2162 004a 9C81      		ldd r25,Y+4
 2163 004c 0E94 0000 		call rfcomm_new
 2164 0050 EC01      		movw r28,r24
 2165               	.LSM237:
 2166 0052 8C85      		ldd r24,Y+12
 2167 0054 8160      		ori r24,lo8(1)
 2168 0056 8C87      		std Y+12,r24
 2169               	.LVL253:
 2170               	.L133:
 2171               	.LSM238:
 2172 0058 83E0      		ldi r24,lo8(3)
 2173 005a 64E0      		ldi r22,lo8(4)
 2174 005c 70E0      		ldi r23,hi8(4)
 2175               	.LVL254:
 2176 005e 40E0      		ldi r20,lo8(0)
 2177               	.LVL255:
 2178 0060 0E94 0000 		call pbuf_alloc
 2179 0064 7C01      		movw r14,r24
 2180               	.LVL256:
 2181 0066 0097      		sbiw r24,0
 2182 0068 01F4      		brne .L134
 2183               	.LVL257:
 2184 006a 1FEF      		ldi r17,lo8(-1)
 2185               	.LVL258:
 2186 006c 00C0      		rjmp .L135
 2187               	.LVL259:
 2188               	.L134:
 2189               	.LSM239:
 2190 006e FC01      		movw r30,r24
 2191 0070 0281      		ldd r16,Z+2
 2192 0072 1381      		ldd r17,Z+3
 2193               	.LSM240:
 2194 0074 8C85      		ldd r24,Y+12
 2195               	.LVL260:
 2196 0076 90E0      		ldi r25,lo8(0)
 2197 0078 9C01      		movw r18,r24
 2198 007a 2170      		andi r18,lo8(1)
 2199 007c 3070      		andi r19,hi8(1)
 2200 007e 80FD      		sbrc r24,0
 2201 0080 00C0      		rjmp .L136
 2202 0082 94E0      		ldi r25,lo8(4)
 2203 0084 00C0      		rjmp .L137
 2204               	.L136:
 2205 0086 90E0      		ldi r25,lo8(0)
 2206               	.L137:
 2207 0088 8D81      		ldd r24,Y+5
 2208 008a 880F      		lsl r24
 2209 008c 880F      		lsl r24
 2210 008e 880F      		lsl r24
 2211 0090 8160      		ori r24,lo8(1)
 2212 0092 220F      		lsl r18
 2213 0094 331F      		rol r19
 2214 0096 822B      		or r24,r18
 2215 0098 892B      		or r24,r25
 2216 009a F801      		movw r30,r16
 2217 009c 8083      		st Z,r24
 2218               	.LSM241:
 2219 009e 8FE3      		ldi r24,lo8(63)
 2220 00a0 8183      		std Z+1,r24
 2221               	.LSM242:
 2222 00a2 81E0      		ldi r24,lo8(1)
 2223 00a4 90E0      		ldi r25,hi8(1)
 2224 00a6 9383      		std Z+3,r25
 2225 00a8 8283      		std Z+2,r24
 2226               	.LSM243:
 2227 00aa C701      		movw r24,r14
 2228 00ac 63E0      		ldi r22,lo8(3)
 2229 00ae 0E94 0000 		call fcs8_crc_calc
 2230 00b2 F801      		movw r30,r16
 2231 00b4 8383      		std Z+3,r24
 2232               	.LSM244:
 2233 00b6 8B81      		ldd r24,Y+3
 2234 00b8 9C81      		ldd r25,Y+4
 2235 00ba B701      		movw r22,r14
 2236 00bc 0E94 0000 		call l2ca_datawrite
 2237 00c0 182F      		mov r17,r24
 2238               	.LVL261:
 2239 00c2 8823      		tst r24
 2240 00c4 01F4      		brne .L138
 2241               	.LVL262:
 2242               	.LSM245:
 2243 00c6 83E0      		ldi r24,lo8(3)
 2244               	.LVL263:
 2245 00c8 8A83      		std Y+2,r24
 2246               	.LSM246:
 2247 00ca 84E6      		ldi r24,lo8(100)
 2248 00cc 90E0      		ldi r25,hi8(100)
 2249 00ce 9E87      		std Y+14,r25
 2250 00d0 8D87      		std Y+13,r24
 2251               	.LVL264:
 2252               	.L138:
 2253               	.LSM247:
 2254 00d2 6B81      		ldd r22,Y+3
 2255 00d4 7C81      		ldd r23,Y+4
 2256 00d6 605F      		subi r22,lo8(-(16))
 2257 00d8 7F4F      		sbci r23,hi8(-(16))
 2258 00da 8D81      		ldd r24,Y+5
 2259 00dc 0E94 0000 		call rfcomm_get_active_pcb
 2260 00e0 892B      		or r24,r25
 2261 00e2 01F4      		brne .L139
 2262               	.LSM248:
 2263 00e4 8091 0000 		lds r24,rfcomm_active_pcbs
 2264 00e8 9091 0000 		lds r25,(rfcomm_active_pcbs)+1
 2265 00ec 9983      		std Y+1,r25
 2266 00ee 8883      		st Y,r24
 2267 00f0 D093 0000 		sts (rfcomm_active_pcbs)+1,r29
 2268 00f4 C093 0000 		sts rfcomm_active_pcbs,r28
 2269               	.L139:
 2270               	.LSM249:
 2271 00f8 C701      		movw r24,r14
 2272 00fa 0E94 0000 		call pbuf_free
 2273               	.LVL265:
 2274               	.L135:
 2275               	.LSM250:
 2276 00fe 812F      		mov r24,r17
 2277               	/* epilogue start */
 2278 0100 DF91      		pop r29
 2279 0102 CF91      		pop r28
 2280               	.LVL266:
 2281 0104 1F91      		pop r17
 2282               	.LVL267:
 2283 0106 0F91      		pop r16
 2284 0108 FF90      		pop r15
 2285 010a EF90      		pop r14
 2286               	.LVL268:
 2287 010c 0895      		ret
 2288               	.LFE11:
 2290               		.section	.text.rfcomm_process_msg,"ax",@progbits
 2291               	.global	rfcomm_process_msg
 2293               	rfcomm_process_msg:
 2294               	.LFB20:
 2295               	.LSM251:
 2296               	.LVL269:
 2297 0000 8F92      		push r8
 2298 0002 9F92      		push r9
 2299 0004 AF92      		push r10
 2300 0006 BF92      		push r11
 2301 0008 CF92      		push r12
 2302 000a DF92      		push r13
 2303 000c EF92      		push r14
 2304 000e FF92      		push r15
 2305 0010 0F93      		push r16
 2306 0012 1F93      		push r17
 2307 0014 CF93      		push r28
 2308 0016 DF93      		push r29
 2309               	/* prologue: function */
 2310               	/* frame size = 0 */
 2311 0018 5C01      		movw r10,r24
 2312 001a 4B01      		movw r8,r22
 2313 001c EA01      		movw r28,r20
 2314 001e 7901      		movw r14,r18
 2315               	.LSM252:
 2316 0020 D901      		movw r26,r18
 2317 0022 1296      		adiw r26,2
 2318 0024 CD90      		ld r12,X+
 2319 0026 DC90      		ld r13,X
 2320 0028 1397      		sbiw r26,2+1
 2321               	.LVL270:
 2322               	.LSM253:
 2323 002a C901      		movw r24,r18
 2324               	.LVL271:
 2325 002c 6EEF      		ldi r22,lo8(-2)
 2326 002e 7FEF      		ldi r23,hi8(-2)
 2327               	.LVL272:
 2328 0030 0E94 0000 		call pbuf_header
 2329               	.LVL273:
 2330               	.LSM254:
 2331 0034 F601      		movw r30,r12
 2332 0036 8081      		ld r24,Z
 2333 0038 8138      		cpi r24,lo8(-127)
 2334 003a 01F4      		brne .+2
 2335 003c 00C0      		rjmp .L148
 2336 003e 8238      		cpi r24,lo8(-126)
 2337 0040 00F4      		brsh .L155
 2338 0042 8135      		cpi r24,lo8(81)
 2339 0044 01F4      		brne .+2
 2340 0046 00C0      		rjmp .L182
 2341 0048 8235      		cpi r24,lo8(82)
 2342 004a 00F4      		brsh .L156
 2343 004c 8132      		cpi r24,lo8(33)
 2344 004e 01F4      		brne .+2
 2345 0050 00C0      		rjmp .L144
 2346 0052 8332      		cpi r24,lo8(35)
 2347 0054 01F4      		brne .+2
 2348 0056 00C0      		rjmp .L145
 2349 0058 8131      		cpi r24,lo8(17)
 2350 005a 01F0      		breq .+2
 2351 005c 00C0      		rjmp .L142
 2352 005e 00C0      		rjmp .L182
 2353               	.L156:
 2354 0060 8136      		cpi r24,lo8(97)
 2355 0062 01F4      		brne .+2
 2356 0064 00C0      		rjmp .L182
 2357 0066 8336      		cpi r24,lo8(99)
 2358 0068 01F4      		brne .+2
 2359 006a 00C0      		rjmp .L147
 2360 006c 8335      		cpi r24,lo8(83)
 2361 006e 01F0      		breq .+2
 2362 0070 00C0      		rjmp .L142
 2363 0072 00C0      		rjmp .L200
 2364               	.L155:
 2365 0074 813A      		cpi r24,lo8(-95)
 2366 0076 01F4      		brne .+2
 2367 0078 00C0      		rjmp .L182
 2368 007a 823A      		cpi r24,lo8(-94)
 2369 007c 00F4      		brsh .L157
 2370 007e 8139      		cpi r24,lo8(-111)
 2371 0080 01F4      		brne .+2
 2372 0082 00C0      		rjmp .L150
 2373 0084 8339      		cpi r24,lo8(-109)
 2374 0086 01F4      		brne .+2
 2375 0088 00C0      		rjmp .L151
 2376 008a 8338      		cpi r24,lo8(-125)
 2377 008c 01F0      		breq .+2
 2378 008e 00C0      		rjmp .L142
 2379 0090 00C0      		rjmp .L201
 2380               	.L157:
 2381 0092 813E      		cpi r24,lo8(-31)
 2382 0094 01F4      		brne .+2
 2383 0096 00C0      		rjmp .L153
 2384 0098 833E      		cpi r24,lo8(-29)
 2385 009a 01F4      		brne .+2
 2386 009c 00C0      		rjmp .L154
 2387 009e 833A      		cpi r24,lo8(-93)
 2388 00a0 01F0      		breq .+2
 2389 00a2 00C0      		rjmp .L142
 2390 00a4 00C0      		rjmp .L202
 2391               	.L201:
 2392               	.LSM255:
 2393 00a6 D701      		movw r26,r14
 2394 00a8 1296      		adiw r26,2
 2395 00aa 0D91      		ld r16,X+
 2396 00ac 1C91      		ld r17,X
 2397 00ae 1397      		sbiw r26,2+1
 2398               	.LVL274:
 2399               	.LSM256:
 2400 00b0 E801      		movw r28,r16
 2401               	.LVL275:
 2402 00b2 8881      		ld r24,Y
 2403 00b4 F501      		movw r30,r10
 2404 00b6 6381      		ldd r22,Z+3
 2405 00b8 7481      		ldd r23,Z+4
 2406 00ba 605F      		subi r22,lo8(-(16))
 2407 00bc 7F4F      		sbci r23,hi8(-(16))
 2408 00be 8695      		lsr r24
 2409 00c0 0E94 0000 		call rfcomm_get_active_pcb
 2410 00c4 FC01      		movw r30,r24
 2411               	.LVL276:
 2412               	.LSM257:
 2413 00c6 0097      		sbiw r24,0
 2414 00c8 01F4      		brne .L158
 2415               	.LVL277:
 2416               	.LSM258:
 2417 00ca C091 0000 		lds r28,rfcomm_listen_pcbs
 2418 00ce D091 0000 		lds r29,(rfcomm_listen_pcbs)+1
 2419               	.LVL278:
 2420 00d2 00C0      		rjmp .L159
 2421               	.L161:
 2422               	.LSM259:
 2423 00d4 D801      		movw r26,r16
 2424 00d6 8C91      		ld r24,X
 2425               	.LVL279:
 2426 00d8 8695      		lsr r24
 2427 00da 9B81      		ldd r25,Y+3
 2428 00dc 9817      		cp r25,r24
 2429 00de 01F0      		breq .L160
 2430               	.LSM260:
 2431 00e0 0990      		ld __tmp_reg__,Y+
 2432 00e2 D881      		ld r29,Y
 2433 00e4 C02D      		mov r28,__tmp_reg__
 2434               	.LVL280:
 2435               	.L159:
 2436 00e6 2097      		sbiw r28,0
 2437 00e8 01F4      		brne .L161
 2438               	.LVL281:
 2439 00ea 00C0      		rjmp .L203
 2440               	.LVL282:
 2441               	.L160:
 2442               	.LSM261:
 2443 00ec F501      		movw r30,r10
 2444               	.LVL283:
 2445 00ee 8381      		ldd r24,Z+3
 2446 00f0 9481      		ldd r25,Z+4
 2447 00f2 0E94 0000 		call rfcomm_new
 2448 00f6 FC01      		movw r30,r24
 2449               	.LVL284:
 2450 00f8 0097      		sbiw r24,0
 2451 00fa 01F4      		brne .+2
 2452 00fc 00C0      		rjmp .L182
 2453               	.LVL285:
 2454               	.LSM262:
 2455 00fe 8B81      		ldd r24,Y+3
 2456               	.LVL286:
 2457 0100 8583      		std Z+5,r24
 2458               	.LSM263:
 2459 0102 8C81      		ldd r24,Y+4
 2460 0104 9D81      		ldd r25,Y+5
 2461 0106 968B      		std Z+22,r25
 2462 0108 858B      		std Z+21,r24
 2463               	.LSM264:
 2464 010a 8E81      		ldd r24,Y+6
 2465 010c 9F81      		ldd r25,Y+7
 2466 010e 928F      		std Z+26,r25
 2467 0110 818F      		std Z+25,r24
 2468               	.LSM265:
 2469 0112 84E0      		ldi r24,lo8(4)
 2470 0114 8283      		std Z+2,r24
 2471               	.LSM266:
 2472 0116 8091 0000 		lds r24,rfcomm_active_pcbs
 2473 011a 9091 0000 		lds r25,(rfcomm_active_pcbs)+1
 2474 011e 9183      		std Z+1,r25
 2475 0120 8083      		st Z,r24
 2476 0122 F093 0000 		sts (rfcomm_active_pcbs)+1,r31
 2477 0126 E093 0000 		sts rfcomm_active_pcbs,r30
 2478               	.LVL287:
 2479               	.L158:
 2480               	.LSM267:
 2481 012a D801      		movw r26,r16
 2482 012c 1196      		adiw r26,1
 2483 012e 8C91      		ld r24,X
 2484 0130 1197      		sbiw r26,1
 2485 0132 8295      		swap r24
 2486 0134 8F70      		andi r24,lo8(15)
 2487 0136 8683      		std Z+6,r24
 2488               	.LSM268:
 2489 0138 1296      		adiw r26,2
 2490 013a 8C91      		ld r24,X
 2491 013c 1297      		sbiw r26,2
 2492 013e 8783      		std Z+7,r24
 2493               	.LSM269:
 2494 0140 1496      		adiw r26,4
 2495 0142 2D91      		ld r18,X+
 2496 0144 3C91      		ld r19,X
 2497 0146 1597      		sbiw r26,4+1
 2498 0148 8085      		ldd r24,Z+8
 2499 014a 9185      		ldd r25,Z+9
 2500 014c 2817      		cp r18,r24
 2501 014e 3907      		cpc r19,r25
 2502 0150 00F4      		brsh .L163
 2503               	.LSM270:
 2504 0152 3187      		std Z+9,r19
 2505 0154 2087      		std Z+8,r18
 2506               	.L163:
 2507               	.LSM271:
 2508 0156 E801      		movw r28,r16
 2509               	.LVL288:
 2510 0158 8F81      		ldd r24,Y+7
 2511 015a 8287      		std Z+10,r24
 2512               	.LSM272:
 2513 015c D601      		movw r26,r12
 2514 015e 8C91      		ld r24,X
 2515 0160 8D7F      		andi r24,lo8(-3)
 2516 0162 8C93      		st X,r24
 2517               	.LSM273:
 2518 0164 8681      		ldd r24,Z+6
 2519 0166 8F30      		cpi r24,lo8(15)
 2520 0168 01F4      		brne .L164
 2521               	.LSM274:
 2522 016a 80EE      		ldi r24,lo8(-32)
 2523 016c 8983      		std Y+1,r24
 2524 016e 00C0      		rjmp .L165
 2525               	.L164:
 2526               	.LSM275:
 2527 0170 E801      		movw r28,r16
 2528 0172 1982      		std Y+1,__zero_reg__
 2529               	.L165:
 2530               	.LSM276:
 2531 0174 8781      		ldd r24,Z+7
 2532 0176 D801      		movw r26,r16
 2533 0178 1296      		adiw r26,2
 2534 017a 8C93      		st X,r24
 2535 017c 1297      		sbiw r26,2
 2536               	.LSM277:
 2537 017e 8085      		ldd r24,Z+8
 2538 0180 9185      		ldd r25,Z+9
 2539 0182 1596      		adiw r26,4+1
 2540 0184 9C93      		st X,r25
 2541 0186 8E93      		st -X,r24
 2542 0188 1497      		sbiw r26,4
 2543               	.LSM278:
 2544 018a 8285      		ldd r24,Z+10
 2545 018c 1796      		adiw r26,7
 2546 018e 8C93      		st X,r24
 2547 0190 00C0      		rjmp .L185
 2548               	.LVL289:
 2549               	.L148:
 2550               	.LSM279:
 2551 0192 E501      		movw r28,r10
 2552               	.LVL290:
 2553 0194 1E86      		std Y+14,__zero_reg__
 2554 0196 1D86      		std Y+13,__zero_reg__
 2555               	.LSM280:
 2556 0198 F701      		movw r30,r14
 2557 019a 0281      		ldd r16,Z+2
 2558 019c 1381      		ldd r17,Z+3
 2559               	.LVL291:
 2560               	.LSM281:
 2561 019e D801      		movw r26,r16
 2562 01a0 8C91      		ld r24,X
 2563 01a2 6B81      		ldd r22,Y+3
 2564 01a4 7C81      		ldd r23,Y+4
 2565 01a6 605F      		subi r22,lo8(-(16))
 2566 01a8 7F4F      		sbci r23,hi8(-(16))
 2567 01aa 8695      		lsr r24
 2568 01ac 0E94 0000 		call rfcomm_get_active_pcb
 2569 01b0 EC01      		movw r28,r24
 2570               	.LVL292:
 2571               	.LSM282:
 2572 01b2 0097      		sbiw r24,0
 2573 01b4 01F4      		brne .+2
 2574 01b6 00C0      		rjmp .L182
 2575               	.LVL293:
 2576               	.LSM283:
 2577 01b8 F801      		movw r30,r16
 2578 01ba 8181      		ldd r24,Z+1
 2579               	.LVL294:
 2580 01bc 8295      		swap r24
 2581 01be 8F70      		andi r24,lo8(15)
 2582 01c0 8E30      		cpi r24,lo8(14)
 2583 01c2 01F4      		brne .L166
 2584               	.LSM284:
 2585 01c4 8FE0      		ldi r24,lo8(15)
 2586 01c6 8E83      		std Y+6,r24
 2587               	.LSM285:
 2588 01c8 8781      		ldd r24,Z+7
 2589 01ca 8A87      		std Y+10,r24
 2590 01cc 00C0      		rjmp .L167
 2591               	.L166:
 2592               	.LSM286:
 2593 01ce 1E82      		std Y+6,__zero_reg__
 2594               	.L167:
 2595               	.LSM287:
 2596 01d0 D801      		movw r26,r16
 2597 01d2 1496      		adiw r26,4
 2598 01d4 8D91      		ld r24,X+
 2599 01d6 9C91      		ld r25,X
 2600 01d8 1597      		sbiw r26,4+1
 2601 01da 9987      		std Y+9,r25
 2602 01dc 8887      		std Y+8,r24
 2603               	.LSM288:
 2604 01de 8A81      		ldd r24,Y+2
 2605 01e0 8230      		cpi r24,lo8(2)
 2606 01e2 01F4      		brne .L168
 2607               	.LSM289:
 2608 01e4 4F89      		ldd r20,Y+23
 2609 01e6 588D      		ldd r21,Y+24
 2610 01e8 CE01      		movw r24,r28
 2611 01ea 6D81      		ldd r22,Y+5
 2612 01ec 0E94 0000 		call rfcomm_connect
 2613               	.L168:
 2614               	.LSM290:
 2615 01f0 85E0      		ldi r24,lo8(5)
 2616 01f2 F501      		movw r30,r10
 2617 01f4 8283      		std Z+2,r24
 2618               	.LSM291:
 2619 01f6 ED8D      		ldd r30,Y+29
 2620 01f8 FE8D      		ldd r31,Y+30
 2621 01fa 00C0      		rjmp .L198
 2622               	.LVL295:
 2623               	.L145:
 2624               	.LSM292:
 2625 01fc D601      		movw r26,r12
 2626 01fe 00C0      		rjmp .L195
 2627               	.L144:
 2628               	.LSM293:
 2629 0200 E501      		movw r28,r10
 2630               	.LVL296:
 2631 0202 1E86      		std Y+14,__zero_reg__
 2632 0204 1D86      		std Y+13,__zero_reg__
 2633               	.LSM294:
 2634 0206 EF8D      		ldd r30,Y+31
 2635 0208 F8A1      		ldd r31,Y+32
 2636 020a 3097      		sbiw r30,0
 2637 020c 01F4      		brne .+2
 2638 020e 00C0      		rjmp .L182
 2639 0210 8D89      		ldd r24,Y+21
 2640 0212 9E89      		ldd r25,Y+22
 2641 0214 B501      		movw r22,r10
 2642               	.LVL297:
 2643               	.L186:
 2644 0216 40E0      		ldi r20,lo8(0)
 2645 0218 0995      		icall
 2646 021a 00C0      		rjmp .L182
 2647               	.LVL298:
 2648               	.L202:
 2649               	.LSM295:
 2650 021c E091 0000 		lds r30,rfcomm_active_pcbs
 2651 0220 F091 0000 		lds r31,(rfcomm_active_pcbs)+1
 2652               	.LVL299:
 2653 0224 00C0      		rjmp .L169
 2654               	.L171:
 2655               	.LSM296:
 2656 0226 A381      		ldd r26,Z+3
 2657 0228 B481      		ldd r27,Z+4
 2658 022a 5096      		adiw r26,16
 2659 022c 9C91      		ld r25,X
 2660 022e 5097      		sbiw r26,16
 2661 0230 8889      		ldd r24,Y+16
 2662 0232 9817      		cp r25,r24
 2663 0234 01F4      		brne .L170
 2664 0236 5196      		adiw r26,17
 2665 0238 9C91      		ld r25,X
 2666 023a 5197      		sbiw r26,17
 2667 023c 8989      		ldd r24,Y+17
 2668 023e 9817      		cp r25,r24
 2669 0240 01F4      		brne .L170
 2670 0242 5296      		adiw r26,18
 2671 0244 9C91      		ld r25,X
 2672 0246 5297      		sbiw r26,18
 2673 0248 8A89      		ldd r24,Y+18
 2674 024a 9817      		cp r25,r24
 2675 024c 01F4      		brne .L170
 2676 024e 5396      		adiw r26,19
 2677 0250 9C91      		ld r25,X
 2678 0252 5397      		sbiw r26,19
 2679 0254 8B89      		ldd r24,Y+19
 2680 0256 9817      		cp r25,r24
 2681 0258 01F4      		brne .L170
 2682 025a 5496      		adiw r26,20
 2683 025c 9C91      		ld r25,X
 2684 025e 5497      		sbiw r26,20
 2685 0260 8C89      		ldd r24,Y+20
 2686 0262 9817      		cp r25,r24
 2687 0264 01F4      		brne .L170
 2688 0266 5596      		adiw r26,21
 2689 0268 9C91      		ld r25,X
 2690 026a 8D89      		ldd r24,Y+21
 2691 026c 9817      		cp r25,r24
 2692 026e 01F4      		brne .L170
 2693 0270 8581      		ldd r24,Z+5
 2694 0272 8823      		tst r24
 2695 0274 01F0      		breq .L170
 2696               	.LSM297:
 2697 0276 8485      		ldd r24,Z+12
 2698 0278 8260      		ori r24,lo8(2)
 2699 027a 8487      		std Z+12,r24
 2700               	.L170:
 2701               	.LSM298:
 2702 027c 0190      		ld __tmp_reg__,Z+
 2703 027e F081      		ld r31,Z
 2704 0280 E02D      		mov r30,__tmp_reg__
 2705               	.L169:
 2706 0282 3097      		sbiw r30,0
 2707 0284 01F4      		brne .L171
 2708               	.LSM299:
 2709 0286 F601      		movw r30,r12
 2710               	.LVL300:
 2711 0288 8081      		ld r24,Z
 2712 028a 8F7B      		andi r24,lo8(-65)
 2713 028c 00C0      		rjmp .L196
 2714               	.L147:
 2715               	.LSM300:
 2716 028e E091 0000 		lds r30,rfcomm_active_pcbs
 2717 0292 F091 0000 		lds r31,(rfcomm_active_pcbs)+1
 2718               	.LVL301:
 2719 0296 00C0      		rjmp .L172
 2720               	.L174:
 2721               	.LSM301:
 2722 0298 A381      		ldd r26,Z+3
 2723 029a B481      		ldd r27,Z+4
 2724 029c 5096      		adiw r26,16
 2725 029e 9C91      		ld r25,X
 2726 02a0 5097      		sbiw r26,16
 2727 02a2 8889      		ldd r24,Y+16
 2728 02a4 9817      		cp r25,r24
 2729 02a6 01F4      		brne .L173
 2730 02a8 5196      		adiw r26,17
 2731 02aa 9C91      		ld r25,X
 2732 02ac 5197      		sbiw r26,17
 2733 02ae 8989      		ldd r24,Y+17
 2734 02b0 9817      		cp r25,r24
 2735 02b2 01F4      		brne .L173
 2736 02b4 5296      		adiw r26,18
 2737 02b6 9C91      		ld r25,X
 2738 02b8 5297      		sbiw r26,18
 2739 02ba 8A89      		ldd r24,Y+18
 2740 02bc 9817      		cp r25,r24
 2741 02be 01F4      		brne .L173
 2742 02c0 5396      		adiw r26,19
 2743 02c2 9C91      		ld r25,X
 2744 02c4 5397      		sbiw r26,19
 2745 02c6 8B89      		ldd r24,Y+19
 2746 02c8 9817      		cp r25,r24
 2747 02ca 01F4      		brne .L173
 2748 02cc 5496      		adiw r26,20
 2749 02ce 9C91      		ld r25,X
 2750 02d0 5497      		sbiw r26,20
 2751 02d2 8C89      		ldd r24,Y+20
 2752 02d4 9817      		cp r25,r24
 2753 02d6 01F4      		brne .L173
 2754 02d8 5596      		adiw r26,21
 2755 02da 9C91      		ld r25,X
 2756 02dc 8D89      		ldd r24,Y+21
 2757 02de 9817      		cp r25,r24
 2758 02e0 01F4      		brne .L173
 2759 02e2 8581      		ldd r24,Z+5
 2760 02e4 8823      		tst r24
 2761 02e6 01F0      		breq .L173
 2762               	.LSM302:
 2763 02e8 8485      		ldd r24,Z+12
 2764 02ea 8D7F      		andi r24,lo8(-3)
 2765 02ec 8487      		std Z+12,r24
 2766               	.L173:
 2767               	.LSM303:
 2768 02ee 0190      		ld __tmp_reg__,Z+
 2769 02f0 F081      		ld r31,Z
 2770 02f2 E02D      		mov r30,__tmp_reg__
 2771               	.L172:
 2772 02f4 3097      		sbiw r30,0
 2773 02f6 01F4      		brne .L174
 2774               	.LSM304:
 2775 02f8 D601      		movw r26,r12
 2776 02fa 8C91      		ld r24,X
 2777 02fc 8F7B      		andi r24,lo8(-65)
 2778               	.L195:
 2779 02fe 8C93      		st X,r24
 2780 0300 00C0      		rjmp .L185
 2781               	.LVL302:
 2782               	.L154:
 2783               	.LSM305:
 2784 0302 E701      		movw r28,r14
 2785               	.LVL303:
 2786 0304 0A81      		ldd r16,Y+2
 2787 0306 1B81      		ldd r17,Y+3
 2788               	.LVL304:
 2789               	.LSM306:
 2790 0308 F801      		movw r30,r16
 2791 030a 8081      		ld r24,Z
 2792 030c D501      		movw r26,r10
 2793 030e 1396      		adiw r26,3
 2794 0310 6D91      		ld r22,X+
 2795 0312 7C91      		ld r23,X
 2796 0314 1497      		sbiw r26,3+1
 2797 0316 605F      		subi r22,lo8(-(16))
 2798 0318 7F4F      		sbci r23,hi8(-(16))
 2799 031a 8695      		lsr r24
 2800 031c 8695      		lsr r24
 2801 031e 8695      		lsr r24
 2802 0320 0E94 0000 		call rfcomm_get_active_pcb
 2803 0324 EC01      		movw r28,r24
 2804               	.LVL305:
 2805               	.LSM307:
 2806 0326 0097      		sbiw r24,0
 2807 0328 01F4      		brne .+2
 2808 032a 00C0      		rjmp .L182
 2809               	.LVL306:
 2810               	.LSM308:
 2811 032c F801      		movw r30,r16
 2812 032e 8181      		ldd r24,Z+1
 2813               	.LVL307:
 2814 0330 8695      		lsr r24
 2815 0332 9C85      		ldd r25,Y+12
 2816 0334 80FF      		sbrs r24,0
 2817 0336 00C0      		rjmp .L175
 2818               	.LSM309:
 2819 0338 9260      		ori r25,lo8(2)
 2820 033a 00C0      		rjmp .L184
 2821               	.L175:
 2822               	.LSM310:
 2823 033c 9D7F      		andi r25,lo8(-3)
 2824               	.L184:
 2825 033e 9C87      		std Y+12,r25
 2826               	.LSM311:
 2827 0340 D601      		movw r26,r12
 2828 0342 8C91      		ld r24,X
 2829 0344 8D7F      		andi r24,lo8(-3)
 2830 0346 8C93      		st X,r24
 2831               	.LSM312:
 2832 0348 C701      		movw r24,r14
 2833 034a 62E0      		ldi r22,lo8(2)
 2834 034c 70E0      		ldi r23,hi8(2)
 2835 034e 0E94 0000 		call pbuf_header
 2836               	.LSM313:
 2837 0352 8C85      		ldd r24,Y+12
 2838 0354 80FD      		sbrc r24,0
 2839 0356 00C0      		rjmp .L177
 2840 0358 83FD      		sbrc r24,3
 2841 035a 00C0      		rjmp .L177
 2842               	.LSM314:
 2843 035c CE01      		movw r24,r28
 2844 035e 60E0      		ldi r22,lo8(0)
 2845 0360 40E0      		ldi r20,lo8(0)
 2846 0362 50E0      		ldi r21,hi8(0)
 2847 0364 0E94 0000 		call rfcomm_msc
 2848               	.L177:
 2849               	.LSM315:
 2850 0368 C501      		movw r24,r10
 2851 036a 60E0      		ldi r22,lo8(0)
 2852 036c A701      		movw r20,r14
 2853 036e 0E94 0000 		call rfcomm_uih
 2854               	.LSM316:
 2855 0372 8C85      		ldd r24,Y+12
 2856 0374 8460      		ori r24,lo8(4)
 2857 0376 8C87      		std Y+12,r24
 2858               	.LSM317:
 2859 0378 982F      		mov r25,r24
 2860 037a 83FF      		sbrs r24,3
 2861 037c 00C0      		rjmp .L182
 2862 037e 8A81      		ldd r24,Y+2
 2863 0380 8530      		cpi r24,lo8(5)
 2864 0382 01F4      		brne .+2
 2865 0384 00C0      		rjmp .L182
 2866               	.LSM318:
 2867 0386 85E0      		ldi r24,lo8(5)
 2868 0388 8A83      		std Y+2,r24
 2869               	.LSM319:
 2870 038a 90FF      		sbrs r25,0
 2871 038c 00C0      		rjmp .L178
 2872               	.LSM320:
 2873 038e EF89      		ldd r30,Y+23
 2874 0390 F88D      		ldd r31,Y+24
 2875 0392 00C0      		rjmp .L198
 2876               	.L178:
 2877               	.LSM321:
 2878 0394 E98D      		ldd r30,Y+25
 2879 0396 FA8D      		ldd r31,Y+26
 2880               	.LVL308:
 2881               	.L198:
 2882 0398 3097      		sbiw r30,0
 2883 039a 01F4      		brne .+2
 2884 039c 00C0      		rjmp .L182
 2885 039e 8D89      		ldd r24,Y+21
 2886 03a0 9E89      		ldd r25,Y+22
 2887 03a2 BE01      		movw r22,r28
 2888 03a4 00C0      		rjmp .L186
 2889               	.LVL309:
 2890               	.L153:
 2891               	.LSM322:
 2892 03a6 E501      		movw r28,r10
 2893               	.LVL310:
 2894 03a8 1E86      		std Y+14,__zero_reg__
 2895 03aa 1D86      		std Y+13,__zero_reg__
 2896               	.LSM323:
 2897 03ac D701      		movw r26,r14
 2898 03ae 1296      		adiw r26,2
 2899 03b0 ED91      		ld r30,X+
 2900 03b2 FC91      		ld r31,X
 2901 03b4 1397      		sbiw r26,2+1
 2902 03b6 8081      		ld r24,Z
 2903 03b8 6B81      		ldd r22,Y+3
 2904 03ba 7C81      		ldd r23,Y+4
 2905 03bc 605F      		subi r22,lo8(-(16))
 2906 03be 7F4F      		sbci r23,hi8(-(16))
 2907 03c0 8695      		lsr r24
 2908 03c2 8695      		lsr r24
 2909 03c4 8695      		lsr r24
 2910 03c6 0E94 0000 		call rfcomm_get_active_pcb
 2911 03ca FC01      		movw r30,r24
 2912               	.LVL311:
 2913               	.LSM324:
 2914 03cc 0097      		sbiw r24,0
 2915 03ce 01F4      		brne .+2
 2916 03d0 00C0      		rjmp .L182
 2917               	.LVL312:
 2918               	.LSM325:
 2919 03d2 8485      		ldd r24,Z+12
 2920               	.LVL313:
 2921 03d4 83FF      		sbrs r24,3
 2922 03d6 00C0      		rjmp .L179
 2923               	.LSM326:
 2924 03d8 21A1      		ldd r18,Z+33
 2925 03da 32A1      		ldd r19,Z+34
 2926 03dc 00C0      		rjmp .L192
 2927               	.L179:
 2928               	.LSM327:
 2929 03de 8860      		ori r24,lo8(8)
 2930 03e0 8487      		std Z+12,r24
 2931               	.LSM328:
 2932 03e2 982F      		mov r25,r24
 2933 03e4 82FF      		sbrs r24,2
 2934 03e6 00C0      		rjmp .L182
 2935               	.LSM329:
 2936 03e8 85E0      		ldi r24,lo8(5)
 2937 03ea 8283      		std Z+2,r24
 2938               	.LSM330:
 2939 03ec 90FF      		sbrs r25,0
 2940 03ee 00C0      		rjmp .L180
 2941               	.LSM331:
 2942 03f0 2789      		ldd r18,Z+23
 2943 03f2 308D      		ldd r19,Z+24
 2944 03f4 00C0      		rjmp .L192
 2945               	.L180:
 2946               	.LSM332:
 2947 03f6 218D      		ldd r18,Z+25
 2948 03f8 328D      		ldd r19,Z+26
 2949 03fa 00C0      		rjmp .L192
 2950               	.LVL314:
 2951               	.L151:
 2952               	.LSM333:
 2953 03fc E601      		movw r28,r12
 2954               	.LVL315:
 2955 03fe 9981      		ldd r25,Y+1
 2956 0400 9830      		cpi r25,lo8(8)
 2957 0402 01F4      		brne .L181
 2958               	.LSM334:
 2959 0404 8883      		st Y,r24
 2960 0406 00C0      		rjmp .L185
 2961               	.L181:
 2962               	.LSM335:
 2963 0408 9130      		cpi r25,lo8(1)
 2964 040a 01F0      		breq .+2
 2965 040c 00C0      		rjmp .L182
 2966               	.LSM336:
 2967 040e 83E0      		ldi r24,lo8(3)
 2968 0410 6AE0      		ldi r22,lo8(10)
 2969 0412 70E0      		ldi r23,hi8(10)
 2970 0414 40E0      		ldi r20,lo8(0)
 2971 0416 0E94 0000 		call pbuf_alloc
 2972 041a 8C01      		movw r16,r24
 2973               	.LVL316:
 2974               	.LSM337:
 2975 041c DC01      		movw r26,r24
 2976 041e 1296      		adiw r26,2
 2977 0420 ED91      		ld r30,X+
 2978 0422 FC91      		ld r31,X
 2979 0424 1397      		sbiw r26,2+1
 2980               	.LVL317:
 2981               	.LSM338:
 2982 0426 E601      		movw r28,r12
 2983 0428 8881      		ld r24,Y
 2984 042a 8F7B      		andi r24,lo8(-65)
 2985 042c 8083      		st Z,r24
 2986               	.LSM339:
 2987 042e 88E0      		ldi r24,lo8(8)
 2988 0430 8183      		std Z+1,r24
 2989               	.LSM340:
 2990 0432 C801      		movw r24,r16
 2991 0434 6EEF      		ldi r22,lo8(-2)
 2992 0436 7FEF      		ldi r23,hi8(-2)
 2993 0438 0E94 0000 		call pbuf_header
 2994               	.LVL318:
 2995               	.LSM341:
 2996 043c D801      		movw r26,r16
 2997 043e 1296      		adiw r26,2
 2998 0440 ED91      		ld r30,X+
 2999 0442 FC91      		ld r31,X
 3000 0444 1397      		sbiw r26,2+1
 3001               	.LVL319:
 3002               	.LSM342:
 3003 0446 E701      		movw r28,r14
 3004 0448 AA81      		ldd r26,Y+2
 3005 044a BB81      		ldd r27,Y+3
 3006 044c 8C91      		ld r24,X
 3007 044e 8083      		st Z,r24
 3008               	.LSM343:
 3009 0450 83E0      		ldi r24,lo8(3)
 3010 0452 8183      		std Z+1,r24
 3011               	.LSM344:
 3012 0454 8283      		std Z+2,r24
 3013               	.LSM345:
 3014 0456 1382      		std Z+3,__zero_reg__
 3015               	.LSM346:
 3016 0458 1482      		std Z+4,__zero_reg__
 3017               	.LSM347:
 3018 045a 1582      		std Z+5,__zero_reg__
 3019               	.LSM348:
 3020 045c 8FEF      		ldi r24,lo8(-1)
 3021 045e 9FEF      		ldi r25,hi8(-1)
 3022 0460 9783      		std Z+7,r25
 3023 0462 8683      		std Z+6,r24
 3024               	.LSM349:
 3025 0464 C801      		movw r24,r16
 3026 0466 62E0      		ldi r22,lo8(2)
 3027 0468 70E0      		ldi r23,hi8(2)
 3028 046a 0E94 0000 		call pbuf_header
 3029               	.LVL320:
 3030 046e 00C0      		rjmp .L187
 3031               	.LVL321:
 3032               	.L150:
 3033               	.LSM350:
 3034 0470 F501      		movw r30,r10
 3035 0472 1686      		std Z+14,__zero_reg__
 3036 0474 1586      		std Z+13,__zero_reg__
 3037               	.LSM351:
 3038 0476 D701      		movw r26,r14
 3039 0478 1296      		adiw r26,2
 3040 047a ED91      		ld r30,X+
 3041 047c FC91      		ld r31,X
 3042 047e 1397      		sbiw r26,2+1
 3043 0480 8081      		ld r24,Z
 3044 0482 E501      		movw r28,r10
 3045               	.LVL322:
 3046 0484 6B81      		ldd r22,Y+3
 3047 0486 7C81      		ldd r23,Y+4
 3048 0488 605F      		subi r22,lo8(-(16))
 3049 048a 7F4F      		sbci r23,hi8(-(16))
 3050 048c 8695      		lsr r24
 3051 048e 8695      		lsr r24
 3052 0490 8695      		lsr r24
 3053 0492 0E94 0000 		call rfcomm_get_active_pcb
 3054 0496 FC01      		movw r30,r24
 3055               	.LVL323:
 3056               	.LSM352:
 3057 0498 0097      		sbiw r24,0
 3058 049a 01F0      		breq .L182
 3059               	.LVL324:
 3060               	.LSM353:
 3061 049c 23A1      		ldd r18,Z+35
 3062 049e 34A1      		ldd r19,Z+36
 3063               	.LVL325:
 3064               	.L192:
 3065 04a0 2115      		cp r18,__zero_reg__
 3066 04a2 3105      		cpc r19,__zero_reg__
 3067 04a4 01F0      		breq .L182
 3068 04a6 8589      		ldd r24,Z+21
 3069 04a8 9689      		ldd r25,Z+22
 3070 04aa BF01      		movw r22,r30
 3071 04ac 40E0      		ldi r20,lo8(0)
 3072 04ae F901      		movw r30,r18
 3073 04b0 0995      		icall
 3074               	.LVL326:
 3075 04b2 00C0      		rjmp .L182
 3076               	.LVL327:
 3077               	.L200:
 3078               	.LSM354:
 3079 04b4 83E1      		ldi r24,lo8(19)
 3080 04b6 F601      		movw r30,r12
 3081               	.L196:
 3082 04b8 8083      		st Z,r24
 3083               	.LVL328:
 3084               	.L185:
 3085               	.LSM355:
 3086 04ba C701      		movw r24,r14
 3087 04bc 62E0      		ldi r22,lo8(2)
 3088 04be 70E0      		ldi r23,hi8(2)
 3089 04c0 0E94 0000 		call pbuf_header
 3090               	.LVL329:
 3091               	.LSM356:
 3092 04c4 C501      		movw r24,r10
 3093 04c6 60E0      		ldi r22,lo8(0)
 3094 04c8 A701      		movw r20,r14
 3095 04ca 0E94 0000 		call rfcomm_uih
 3096 04ce 00C0      		rjmp .L182
 3097               	.LVL330:
 3098               	.L142:
 3099               	.LSM357:
 3100 04d0 83E0      		ldi r24,lo8(3)
 3101 04d2 62E0      		ldi r22,lo8(2)
 3102 04d4 70E0      		ldi r23,hi8(2)
 3103 04d6 40E0      		ldi r20,lo8(0)
 3104 04d8 0E94 0000 		call pbuf_alloc
 3105 04dc 8C01      		movw r16,r24
 3106               	.LVL331:
 3107               	.LSM358:
 3108 04de DC01      		movw r26,r24
 3109 04e0 1296      		adiw r26,2
 3110 04e2 ED91      		ld r30,X+
 3111 04e4 FC91      		ld r31,X
 3112 04e6 1397      		sbiw r26,2+1
 3113               	.LVL332:
 3114               	.LSM359:
 3115 04e8 E601      		movw r28,r12
 3116               	.LVL333:
 3117 04ea 8881      		ld r24,Y
 3118 04ec 8370      		andi r24,lo8(3)
 3119 04ee 8464      		ori r24,lo8(68)
 3120 04f0 8083      		st Z,r24
 3121               	.LSM360:
 3122 04f2 1182      		std Z+1,__zero_reg__
 3123               	.L187:
 3124               	.LSM361:
 3125 04f4 C501      		movw r24,r10
 3126 04f6 60E0      		ldi r22,lo8(0)
 3127 04f8 A801      		movw r20,r16
 3128 04fa 0E94 0000 		call rfcomm_uih
 3129               	.LVL334:
 3130               	.LSM362:
 3131 04fe C801      		movw r24,r16
 3132 0500 0E94 0000 		call pbuf_free
 3133 0504 00C0      		rjmp .L182
 3134               	.LVL335:
 3135               	.L203:
 3136               	.LSM363:
 3137 0506 F501      		movw r30,r10
 3138 0508 8381      		ldd r24,Z+3
 3139 050a 9481      		ldd r25,Z+4
 3140               	.LVL336:
 3141 050c B401      		movw r22,r8
 3142 050e 0E94 0000 		call rfcomm_dm
 3143               	.LVL337:
 3144               	.L182:
 3145               	/* epilogue start */
 3146               	.LSM364:
 3147 0512 DF91      		pop r29
 3148 0514 CF91      		pop r28
 3149               	.LVL338:
 3150 0516 1F91      		pop r17
 3151 0518 0F91      		pop r16
 3152               	.LVL339:
 3153 051a FF90      		pop r15
 3154 051c EF90      		pop r14
 3155               	.LVL340:
 3156 051e DF90      		pop r13
 3157 0520 CF90      		pop r12
 3158               	.LVL341:
 3159 0522 BF90      		pop r11
 3160 0524 AF90      		pop r10
 3161               	.LVL342:
 3162 0526 9F90      		pop r9
 3163 0528 8F90      		pop r8
 3164               	.LVL343:
 3165 052a 0895      		ret
 3166               	.LFE20:
 3168               		.section	.text.rfcomm_input,"ax",@progbits
 3169               	.global	rfcomm_input
 3171               	rfcomm_input:
 3172               	.LFB21:
 3173               	.LSM365:
 3174               	.LVL344:
 3175 0000 8F92      		push r8
 3176 0002 9F92      		push r9
 3177 0004 AF92      		push r10
 3178 0006 BF92      		push r11
 3179 0008 CF92      		push r12
 3180 000a DF92      		push r13
 3181 000c EF92      		push r14
 3182 000e FF92      		push r15
 3183 0010 0F93      		push r16
 3184 0012 1F93      		push r17
 3185 0014 DF93      		push r29
 3186 0016 CF93      		push r28
 3187 0018 00D0      		rcall .
 3188 001a 00D0      		rcall .
 3189 001c 0F92      		push __tmp_reg__
 3190 001e CDB7      		in r28,__SP_L__
 3191 0020 DEB7      		in r29,__SP_H__
 3192               	/* prologue: function */
 3193               	/* frame size = 5 */
 3194 0022 5B01      		movw r10,r22
 3195 0024 6A01      		movw r12,r20
 3196               	.LSM366:
 3197 0026 DA01      		movw r26,r20
 3198 0028 1296      		adiw r26,2
 3199 002a ED91      		ld r30,X+
 3200 002c FC91      		ld r31,X
 3201 002e 1397      		sbiw r26,2+1
 3202 0030 8081      		ld r24,Z
 3203               	.LVL345:
 3204 0032 8983      		std Y+1,r24
 3205               	.LSM367:
 3206 0034 9181      		ldd r25,Z+1
 3207 0036 9A83      		std Y+2,r25
 3208               	.LSM368:
 3209 0038 605F      		subi r22,lo8(-(16))
 3210 003a 7F4F      		sbci r23,hi8(-(16))
 3211               	.LVL346:
 3212 003c 8695      		lsr r24
 3213 003e 8695      		lsr r24
 3214 0040 8695      		lsr r24
 3215 0042 0E94 0000 		call rfcomm_get_active_pcb
 3216               	.LVL347:
 3217 0046 7C01      		movw r14,r24
 3218               	.LVL348:
 3219               	.LSM369:
 3220 0048 0097      		sbiw r24,0
 3221 004a 01F4      		brne .L205
 3222               	.LVL349:
 3223 004c 8A81      		ldd r24,Y+2
 3224               	.LVL350:
 3225 004e 8F33      		cpi r24,lo8(63)
 3226 0050 01F0      		breq .L205
 3227               	.LSM370:
 3228 0052 8F31      		cpi r24,lo8(31)
 3229 0054 01F4      		brne .+2
 3230 0056 00C0      		rjmp .L218
 3231 0058 8F30      		cpi r24,lo8(15)
 3232 005a 01F0      		breq .+2
 3233 005c 00C0      		rjmp .L253
 3234 005e 00C0      		rjmp .L218
 3235               	.LVL351:
 3236               	.L205:
 3237               	.LSM371:
 3238 0060 D601      		movw r26,r12
 3239 0062 1296      		adiw r26,2
 3240 0064 ED91      		ld r30,X+
 3241 0066 FC91      		ld r31,X
 3242 0068 1397      		sbiw r26,2+1
 3243 006a 8281      		ldd r24,Z+2
 3244 006c 80FF      		sbrs r24,0
 3245 006e 00C0      		rjmp .L208
 3246               	.LSM372:
 3247 0070 8695      		lsr r24
 3248 0072 8B83      		std Y+3,r24
 3249 0074 1C82      		std Y+4,__zero_reg__
 3250 0076 13E0      		ldi r17,lo8(3)
 3251               	.LVL352:
 3252 0078 00C0      		rjmp .L209
 3253               	.LVL353:
 3254               	.L208:
 3255               	.LSM373:
 3256 007a 8281      		ldd r24,Z+2
 3257 007c 9381      		ldd r25,Z+3
 3258 007e 9695      		lsr r25
 3259 0080 8795      		ror r24
 3260 0082 9C83      		std Y+4,r25
 3261 0084 8B83      		std Y+3,r24
 3262 0086 14E0      		ldi r17,lo8(4)
 3263               	.LVL354:
 3264               	.L209:
 3265               	.LSM374:
 3266 0088 8A81      		ldd r24,Y+2
 3267 008a 8F3F      		cpi r24,lo8(-1)
 3268 008c 01F4      		brne .L210
 3269               	.LSM375:
 3270 008e D701      		movw r26,r14
 3271 0090 1696      		adiw r26,6
 3272 0092 8C91      		ld r24,X
 3273 0094 8F30      		cpi r24,lo8(15)
 3274 0096 01F4      		brne .L210
 3275               	.LSM376:
 3276 0098 E10F      		add r30,r17
 3277 009a F11D      		adc r31,__zero_reg__
 3278 009c 8081      		ld r24,Z
 3279 009e 8D83      		std Y+5,r24
 3280 00a0 1F5F      		subi r17,lo8(-(1))
 3281               	.L210:
 3282               	.LSM377:
 3283 00a2 4B81      		ldd r20,Y+3
 3284 00a4 5C81      		ldd r21,Y+4
 3285 00a6 BA01      		movw r22,r20
 3286 00a8 610F      		add r22,r17
 3287 00aa 711D      		adc r23,__zero_reg__
 3288 00ac F601      		movw r30,r12
 3289               	.LVL355:
 3290 00ae 80E0      		ldi r24,lo8(0)
 3291 00b0 90E0      		ldi r25,hi8(0)
 3292               	.LVL356:
 3293 00b2 00C0      		rjmp .L211
 3294               	.L214:
 3295               	.LSM378:
 3296 00b4 2681      		ldd r18,Z+6
 3297 00b6 3781      		ldd r19,Z+7
 3298 00b8 820F      		add r24,r18
 3299 00ba 931F      		adc r25,r19
 3300               	.LVL357:
 3301               	.LSM379:
 3302 00bc 6817      		cp r22,r24
 3303 00be 7907      		cpc r23,r25
 3304 00c0 00F4      		brsh .L212
 3305               	.LSM380:
 3306 00c2 821B      		sub r24,r18
 3307 00c4 930B      		sbc r25,r19
 3308 00c6 9A01      		movw r18,r20
 3309 00c8 281B      		sub r18,r24
 3310 00ca 390B      		sbc r19,r25
 3311 00cc C901      		movw r24,r18
 3312               	.LVL358:
 3313               	.LSM381:
 3314 00ce 810F      		add r24,r17
 3315 00d0 911D      		adc r25,__zero_reg__
 3316 00d2 00C0      		rjmp .L213
 3317               	.LVL359:
 3318               	.L212:
 3319               	.LSM382:
 3320 00d4 0190      		ld __tmp_reg__,Z+
 3321 00d6 F081      		ld r31,Z
 3322 00d8 E02D      		mov r30,__tmp_reg__
 3323               	.LVL360:
 3324               	.L211:
 3325 00da 3097      		sbiw r30,0
 3326 00dc 01F4      		brne .L214
 3327               	.L213:
 3328               	.LSM383:
 3329 00de 0280      		ldd __tmp_reg__,Z+2
 3330 00e0 F381      		ldd r31,Z+3
 3331 00e2 E02D      		mov r30,__tmp_reg__
 3332               	.LVL361:
 3333 00e4 E80F      		add r30,r24
 3334 00e6 F91F      		adc r31,r25
 3335 00e8 4081      		ld r20,Z
 3336               	.LVL362:
 3337               	.LSM384:
 3338 00ea 8A81      		ldd r24,Y+2
 3339               	.LVL363:
 3340 00ec 8F3E      		cpi r24,lo8(-17)
 3341 00ee 01F4      		brne .L215
 3342               	.LSM385:
 3343 00f0 D701      		movw r26,r14
 3344 00f2 1596      		adiw r26,5
 3345 00f4 8C91      		ld r24,X
 3346 00f6 1597      		sbiw r26,5
 3347 00f8 8823      		tst r24
 3348 00fa 01F4      		brne .L216
 3349               	.LSM386:
 3350 00fc 5396      		adiw r26,19
 3351 00fe 8C91      		ld r24,X
 3352 0100 00C0      		rjmp .L264
 3353               	.L215:
 3354               	.LSM387:
 3355 0102 8F3F      		cpi r24,lo8(-1)
 3356 0104 01F4      		brne .L217
 3357               	.LSM388:
 3358 0106 F701      		movw r30,r14
 3359 0108 8089      		ldd r24,Z+16
 3360               	.L264:
 3361 010a 4817      		cp r20,r24
 3362 010c 01F0      		breq .L216
 3363 010e 00C0      		rjmp .L218
 3364               	.L217:
 3365               	.LSM389:
 3366 0110 C601      		movw r24,r12
 3367 0112 612F      		mov r22,r17
 3368 0114 0E94 0000 		call fcs8_crc_check
 3369               	.LVL364:
 3370 0118 8823      		tst r24
 3371 011a 01F0      		breq .+2
 3372 011c 00C0      		rjmp .L218
 3373               	.LVL365:
 3374               	.L216:
 3375               	.LSM390:
 3376 011e 812E      		mov r8,r17
 3377 0120 9924      		clr r9
 3378 0122 6627      		clr r22
 3379 0124 7727      		clr r23
 3380 0126 6819      		sub r22,r8
 3381 0128 7909      		sbc r23,r9
 3382 012a C601      		movw r24,r12
 3383 012c 0E94 0000 		call pbuf_header
 3384               	.LVL366:
 3385               	.LSM391:
 3386 0130 6B81      		ldd r22,Y+3
 3387 0132 7C81      		ldd r23,Y+4
 3388 0134 C601      		movw r24,r12
 3389 0136 0E94 0000 		call pbuf_realloc
 3390               	.LSM392:
 3391 013a 8A81      		ldd r24,Y+2
 3392 013c 8335      		cpi r24,lo8(83)
 3393 013e 01F4      		brne .+2
 3394 0140 00C0      		rjmp .L221
 3395 0142 8435      		cpi r24,lo8(84)
 3396 0144 00F4      		brsh .L225
 3397 0146 8F31      		cpi r24,lo8(31)
 3398 0148 01F4      		brne .+2
 3399 014a 00C0      		rjmp .L219
 3400 014c 8F33      		cpi r24,lo8(63)
 3401 014e 01F0      		breq .L220
 3402 0150 8F30      		cpi r24,lo8(15)
 3403 0152 01F0      		breq .+2
 3404 0154 00C0      		rjmp .L218
 3405 0156 00C0      		rjmp .L219
 3406               	.L225:
 3407 0158 8F3E      		cpi r24,lo8(-17)
 3408 015a 01F4      		brne .+2
 3409 015c 00C0      		rjmp .L223
 3410 015e 8F3F      		cpi r24,lo8(-1)
 3411 0160 01F4      		brne .+2
 3412 0162 00C0      		rjmp .L224
 3413 0164 8337      		cpi r24,lo8(115)
 3414 0166 01F0      		breq .+2
 3415 0168 00C0      		rjmp .L218
 3416 016a 00C0      		rjmp .L266
 3417               	.L220:
 3418               	.LSM393:
 3419 016c E114      		cp r14,__zero_reg__
 3420 016e F104      		cpc r15,__zero_reg__
 3421 0170 01F4      		brne .L226
 3422               	.LSM394:
 3423 0172 8981      		ldd r24,Y+1
 3424 0174 8695      		lsr r24
 3425 0176 8695      		lsr r24
 3426 0178 8695      		lsr r24
 3427 017a 01F4      		brne .L253
 3428               	.LSM395:
 3429 017c 0091 0000 		lds r16,rfcomm_listen_pcbs
 3430 0180 1091 0000 		lds r17,(rfcomm_listen_pcbs)+1
 3431               	.LVL367:
 3432 0184 00C0      		rjmp .L228
 3433               	.L230:
 3434               	.LSM396:
 3435 0186 D801      		movw r26,r16
 3436 0188 1396      		adiw r26,3
 3437 018a 8C91      		ld r24,X
 3438 018c 1397      		sbiw r26,3
 3439 018e 8823      		tst r24
 3440 0190 01F4      		brne .+2
 3441 0192 00C0      		rjmp .L229
 3442               	.LSM397:
 3443 0194 0D91      		ld r16,X+
 3444 0196 1C91      		ld r17,X
 3445               	.L228:
 3446 0198 0115      		cp r16,__zero_reg__
 3447 019a 1105      		cpc r17,__zero_reg__
 3448 019c 01F4      		brne .L230
 3449               	.LVL368:
 3450               	.L253:
 3451               	.LSM398:
 3452 019e C501      		movw r24,r10
 3453 01a0 BE01      		movw r22,r28
 3454 01a2 6F5F      		subi r22,lo8(-(1))
 3455 01a4 7F4F      		sbci r23,hi8(-(1))
 3456 01a6 0E94 0000 		call rfcomm_dm
 3457 01aa 00C0      		rjmp .L218
 3458               	.LVL369:
 3459               	.L256:
 3460               	.LSM399:
 3461 01ac F801      		movw r30,r16
 3462 01ae 8381      		ldd r24,Z+3
 3463               	.LVL370:
 3464 01b0 D701      		movw r26,r14
 3465 01b2 1596      		adiw r26,5
 3466 01b4 8C93      		st X,r24
 3467 01b6 1597      		sbiw r26,5
 3468               	.LSM400:
 3469 01b8 8481      		ldd r24,Z+4
 3470 01ba 9581      		ldd r25,Z+5
 3471 01bc 5696      		adiw r26,21+1
 3472 01be 9C93      		st X,r25
 3473 01c0 8E93      		st -X,r24
 3474 01c2 5597      		sbiw r26,21
 3475               	.LSM401:
 3476 01c4 8681      		ldd r24,Z+6
 3477 01c6 9781      		ldd r25,Z+7
 3478 01c8 5A96      		adiw r26,25+1
 3479 01ca 9C93      		st X,r25
 3480 01cc 8E93      		st -X,r24
 3481 01ce 5997      		sbiw r26,25
 3482               	.LSM402:
 3483 01d0 8091 0000 		lds r24,rfcomm_active_pcbs
 3484 01d4 9091 0000 		lds r25,(rfcomm_active_pcbs)+1
 3485 01d8 8D93      		st X+,r24
 3486 01da 9C93      		st X,r25
 3487 01dc F092 0000 		sts (rfcomm_active_pcbs)+1,r15
 3488 01e0 E092 0000 		sts rfcomm_active_pcbs,r14
 3489               	.L226:
 3490               	.LSM403:
 3491 01e4 F701      		movw r30,r14
 3492 01e6 8485      		ldd r24,Z+12
 3493 01e8 8E7F      		andi r24,lo8(-2)
 3494 01ea 8487      		std Z+12,r24
 3495               	.LSM404:
 3496 01ec C501      		movw r24,r10
 3497 01ee BE01      		movw r22,r28
 3498 01f0 6F5F      		subi r22,lo8(-(1))
 3499 01f2 7F4F      		sbci r23,hi8(-(1))
 3500 01f4 0E94 0000 		call rfcomm_ua
 3501               	.LSM405:
 3502 01f8 C601      		movw r24,r12
 3503 01fa B401      		movw r22,r8
 3504 01fc 0E94 0000 		call pbuf_header
 3505               	.LSM406:
 3506 0200 D601      		movw r26,r12
 3507 0202 1296      		adiw r26,2
 3508 0204 ED91      		ld r30,X+
 3509 0206 FC91      		ld r31,X
 3510 0208 1397      		sbiw r26,2+1
 3511 020a 8081      		ld r24,Z
 3512 020c 8B7F      		andi r24,lo8(-5)
 3513 020e 8083      		st Z,r24
 3514               	.LSM407:
 3515 0210 1296      		adiw r26,2
 3516 0212 ED91      		ld r30,X+
 3517 0214 FC91      		ld r31,X
 3518 0216 1397      		sbiw r26,2+1
 3519 0218 8081      		ld r24,Z
 3520 021a 8D7F      		andi r24,lo8(-3)
 3521 021c 8083      		st Z,r24
 3522               	.LSM408:
 3523 021e 1296      		adiw r26,2
 3524 0220 ED91      		ld r30,X+
 3525 0222 FC91      		ld r31,X
 3526 0224 1397      		sbiw r26,2+1
 3527 0226 1FEE      		ldi r17,lo8(-17)
 3528               	.LVL371:
 3529 0228 1183      		std Z+1,r17
 3530               	.LSM409:
 3531 022a C601      		movw r24,r12
 3532 022c 62E0      		ldi r22,lo8(2)
 3533 022e 0E94 0000 		call fcs8_crc_calc
 3534 0232 F701      		movw r30,r14
 3535 0234 818B      		std Z+17,r24
 3536               	.LSM410:
 3537 0236 D601      		movw r26,r12
 3538 0238 1296      		adiw r26,2
 3539 023a ED91      		ld r30,X+
 3540 023c FC91      		ld r31,X
 3541 023e 1397      		sbiw r26,2+1
 3542 0240 0FEF      		ldi r16,lo8(-1)
 3543               	.LVL372:
 3544 0242 0183      		std Z+1,r16
 3545               	.LSM411:
 3546 0244 C601      		movw r24,r12
 3547 0246 62E0      		ldi r22,lo8(2)
 3548 0248 0E94 0000 		call fcs8_crc_calc
 3549 024c F701      		movw r30,r14
 3550 024e 828B      		std Z+18,r24
 3551               	.LSM412:
 3552 0250 D601      		movw r26,r12
 3553 0252 1296      		adiw r26,2
 3554 0254 ED91      		ld r30,X+
 3555 0256 FC91      		ld r31,X
 3556 0258 1397      		sbiw r26,2+1
 3557 025a 8081      		ld r24,Z
 3558 025c 8B7F      		andi r24,lo8(-5)
 3559 025e 8083      		st Z,r24
 3560               	.LSM413:
 3561 0260 1296      		adiw r26,2
 3562 0262 ED91      		ld r30,X+
 3563 0264 FC91      		ld r31,X
 3564 0266 1397      		sbiw r26,2+1
 3565 0268 8081      		ld r24,Z
 3566 026a 8260      		ori r24,lo8(2)
 3567 026c 8083      		st Z,r24
 3568               	.LSM414:
 3569 026e 1296      		adiw r26,2
 3570 0270 ED91      		ld r30,X+
 3571 0272 FC91      		ld r31,X
 3572 0274 1397      		sbiw r26,2+1
 3573 0276 1183      		std Z+1,r17
 3574               	.LSM415:
 3575 0278 C601      		movw r24,r12
 3576 027a 62E0      		ldi r22,lo8(2)
 3577 027c 0E94 0000 		call fcs8_crc_calc
 3578 0280 F701      		movw r30,r14
 3579 0282 8787      		std Z+15,r24
 3580               	.LSM416:
 3581 0284 D601      		movw r26,r12
 3582 0286 1296      		adiw r26,2
 3583 0288 ED91      		ld r30,X+
 3584 028a FC91      		ld r31,X
 3585 028c 1397      		sbiw r26,2+1
 3586 028e 0183      		std Z+1,r16
 3587               	.LSM417:
 3588 0290 C601      		movw r24,r12
 3589 0292 62E0      		ldi r22,lo8(2)
 3590 0294 0E94 0000 		call fcs8_crc_calc
 3591 0298 F701      		movw r30,r14
 3592 029a 808B      		std Z+16,r24
 3593               	.LSM418:
 3594 029c D601      		movw r26,r12
 3595 029e 1296      		adiw r26,2
 3596 02a0 ED91      		ld r30,X+
 3597 02a2 FC91      		ld r31,X
 3598 02a4 1397      		sbiw r26,2+1
 3599 02a6 8081      		ld r24,Z
 3600 02a8 8B7F      		andi r24,lo8(-5)
 3601 02aa 8083      		st Z,r24
 3602               	.LSM419:
 3603 02ac 1296      		adiw r26,2
 3604 02ae ED91      		ld r30,X+
 3605 02b0 FC91      		ld r31,X
 3606 02b2 1397      		sbiw r26,2+1
 3607 02b4 1183      		std Z+1,r17
 3608               	.LSM420:
 3609 02b6 C601      		movw r24,r12
 3610 02b8 62E0      		ldi r22,lo8(2)
 3611 02ba 0E94 0000 		call fcs8_crc_calc
 3612 02be F701      		movw r30,r14
 3613 02c0 838B      		std Z+19,r24
 3614               	.LSM421:
 3615 02c2 D601      		movw r26,r12
 3616 02c4 1296      		adiw r26,2
 3617 02c6 ED91      		ld r30,X+
 3618 02c8 FC91      		ld r31,X
 3619 02ca 1397      		sbiw r26,2+1
 3620 02cc 8081      		ld r24,Z
 3621 02ce 897F      		andi r24,lo8(-7)
 3622 02d0 8083      		st Z,r24
 3623               	.LSM422:
 3624 02d2 1296      		adiw r26,2
 3625 02d4 ED91      		ld r30,X+
 3626 02d6 FC91      		ld r31,X
 3627 02d8 1397      		sbiw r26,2+1
 3628 02da 1183      		std Z+1,r17
 3629               	.LSM423:
 3630 02dc C601      		movw r24,r12
 3631 02de 62E0      		ldi r22,lo8(2)
 3632 02e0 0E94 0000 		call fcs8_crc_calc
 3633 02e4 F701      		movw r30,r14
 3634 02e6 848B      		std Z+20,r24
 3635 02e8 00C0      		rjmp .L218
 3636               	.LVL373:
 3637               	.L266:
 3638               	.LSM424:
 3639 02ea D701      		movw r26,r14
 3640 02ec 1E96      		adiw r26,13+1
 3641 02ee 1C92      		st X,__zero_reg__
 3642 02f0 1E92      		st -X,__zero_reg__
 3643 02f2 1D97      		sbiw r26,13
 3644               	.LSM425:
 3645 02f4 1296      		adiw r26,2
 3646 02f6 8C91      		ld r24,X
 3647 02f8 1297      		sbiw r26,2
 3648 02fa 8330      		cpi r24,lo8(3)
 3649 02fc 01F0      		breq .+2
 3650 02fe 00C0      		rjmp .L231
 3651               	.LSM426:
 3652 0300 84E0      		ldi r24,lo8(4)
 3653 0302 1296      		adiw r26,2
 3654 0304 8C93      		st X,r24
 3655               	.LSM427:
 3656 0306 C601      		movw r24,r12
 3657 0308 B401      		movw r22,r8
 3658 030a 0E94 0000 		call pbuf_header
 3659               	.LSM428:
 3660 030e D601      		movw r26,r12
 3661 0310 1296      		adiw r26,2
 3662 0312 ED91      		ld r30,X+
 3663 0314 FC91      		ld r31,X
 3664 0316 1397      		sbiw r26,2+1
 3665 0318 8081      		ld r24,Z
 3666 031a 8B7F      		andi r24,lo8(-5)
 3667 031c 8083      		st Z,r24
 3668               	.LSM429:
 3669 031e 1296      		adiw r26,2
 3670 0320 ED91      		ld r30,X+
 3671 0322 FC91      		ld r31,X
 3672 0324 1397      		sbiw r26,2+1
 3673 0326 8081      		ld r24,Z
 3674 0328 8260      		ori r24,lo8(2)
 3675 032a 8083      		st Z,r24
 3676               	.LSM430:
 3677 032c 1296      		adiw r26,2
 3678 032e ED91      		ld r30,X+
 3679 0330 FC91      		ld r31,X
 3680 0332 1397      		sbiw r26,2+1
 3681 0334 1FEE      		ldi r17,lo8(-17)
 3682               	.LVL374:
 3683 0336 1183      		std Z+1,r17
 3684               	.LSM431:
 3685 0338 C601      		movw r24,r12
 3686 033a 62E0      		ldi r22,lo8(2)
 3687 033c 0E94 0000 		call fcs8_crc_calc
 3688 0340 F701      		movw r30,r14
 3689 0342 818B      		std Z+17,r24
 3690               	.LSM432:
 3691 0344 D601      		movw r26,r12
 3692 0346 1296      		adiw r26,2
 3693 0348 ED91      		ld r30,X+
 3694 034a FC91      		ld r31,X
 3695 034c 1397      		sbiw r26,2+1
 3696 034e 0FEF      		ldi r16,lo8(-1)
 3697 0350 0183      		std Z+1,r16
 3698               	.LSM433:
 3699 0352 C601      		movw r24,r12
 3700 0354 62E0      		ldi r22,lo8(2)
 3701 0356 0E94 0000 		call fcs8_crc_calc
 3702 035a F701      		movw r30,r14
 3703 035c 828B      		std Z+18,r24
 3704               	.LSM434:
 3705 035e D601      		movw r26,r12
 3706 0360 1296      		adiw r26,2
 3707 0362 ED91      		ld r30,X+
 3708 0364 FC91      		ld r31,X
 3709 0366 1397      		sbiw r26,2+1
 3710 0368 8081      		ld r24,Z
 3711 036a 8B7F      		andi r24,lo8(-5)
 3712 036c 8083      		st Z,r24
 3713               	.LSM435:
 3714 036e 1296      		adiw r26,2
 3715 0370 ED91      		ld r30,X+
 3716 0372 FC91      		ld r31,X
 3717 0374 1397      		sbiw r26,2+1
 3718 0376 8081      		ld r24,Z
 3719 0378 8D7F      		andi r24,lo8(-3)
 3720 037a 8083      		st Z,r24
 3721               	.LSM436:
 3722 037c 1296      		adiw r26,2
 3723 037e ED91      		ld r30,X+
 3724 0380 FC91      		ld r31,X
 3725 0382 1397      		sbiw r26,2+1
 3726 0384 1183      		std Z+1,r17
 3727               	.LSM437:
 3728 0386 C601      		movw r24,r12
 3729 0388 62E0      		ldi r22,lo8(2)
 3730 038a 0E94 0000 		call fcs8_crc_calc
 3731 038e F701      		movw r30,r14
 3732 0390 8787      		std Z+15,r24
 3733               	.LSM438:
 3734 0392 D601      		movw r26,r12
 3735 0394 1296      		adiw r26,2
 3736 0396 ED91      		ld r30,X+
 3737 0398 FC91      		ld r31,X
 3738 039a 1397      		sbiw r26,2+1
 3739 039c 0183      		std Z+1,r16
 3740               	.LSM439:
 3741 039e C601      		movw r24,r12
 3742 03a0 62E0      		ldi r22,lo8(2)
 3743 03a2 0E94 0000 		call fcs8_crc_calc
 3744 03a6 F701      		movw r30,r14
 3745 03a8 808B      		std Z+16,r24
 3746               	.LSM440:
 3747 03aa D601      		movw r26,r12
 3748 03ac 1296      		adiw r26,2
 3749 03ae ED91      		ld r30,X+
 3750 03b0 FC91      		ld r31,X
 3751 03b2 1397      		sbiw r26,2+1
 3752 03b4 8081      		ld r24,Z
 3753 03b6 8B7F      		andi r24,lo8(-5)
 3754 03b8 8083      		st Z,r24
 3755               	.LSM441:
 3756 03ba 1296      		adiw r26,2
 3757 03bc ED91      		ld r30,X+
 3758 03be FC91      		ld r31,X
 3759 03c0 1397      		sbiw r26,2+1
 3760 03c2 8081      		ld r24,Z
 3761 03c4 8260      		ori r24,lo8(2)
 3762 03c6 8083      		st Z,r24
 3763               	.LSM442:
 3764 03c8 1296      		adiw r26,2
 3765 03ca ED91      		ld r30,X+
 3766 03cc FC91      		ld r31,X
 3767 03ce 1397      		sbiw r26,2+1
 3768 03d0 1183      		std Z+1,r17
 3769               	.LSM443:
 3770 03d2 C601      		movw r24,r12
 3771 03d4 62E0      		ldi r22,lo8(2)
 3772 03d6 0E94 0000 		call fcs8_crc_calc
 3773 03da F701      		movw r30,r14
 3774 03dc 848B      		std Z+20,r24
 3775               	.LSM444:
 3776 03de D601      		movw r26,r12
 3777 03e0 1296      		adiw r26,2
 3778 03e2 ED91      		ld r30,X+
 3779 03e4 FC91      		ld r31,X
 3780 03e6 1397      		sbiw r26,2+1
 3781 03e8 8081      		ld r24,Z
 3782 03ea 897F      		andi r24,lo8(-7)
 3783 03ec 8083      		st Z,r24
 3784               	.LSM445:
 3785 03ee 1296      		adiw r26,2
 3786 03f0 ED91      		ld r30,X+
 3787 03f2 FC91      		ld r31,X
 3788 03f4 1397      		sbiw r26,2+1
 3789 03f6 1183      		std Z+1,r17
 3790               	.LSM446:
 3791 03f8 C601      		movw r24,r12
 3792 03fa 62E0      		ldi r22,lo8(2)
 3793 03fc 0E94 0000 		call fcs8_crc_calc
 3794 0400 F701      		movw r30,r14
 3795 0402 838B      		std Z+19,r24
 3796               	.LSM447:
 3797 0404 8581      		ldd r24,Z+5
 3798 0406 8823      		tst r24
 3799 0408 01F0      		breq .+2
 3800 040a 00C0      		rjmp .L232
 3801               	.LSM448:
 3802 040c 2091 0000 		lds r18,rfcomm_active_pcbs
 3803 0410 3091 0000 		lds r19,(rfcomm_active_pcbs)+1
 3804               	.LVL375:
 3805 0414 00C0      		rjmp .L233
 3806               	.L236:
 3807               	.LSM449:
 3808 0416 F901      		movw r30,r18
 3809 0418 A381      		ldd r26,Z+3
 3810 041a B481      		ldd r27,Z+4
 3811 041c F701      		movw r30,r14
 3812 041e 4381      		ldd r20,Z+3
 3813 0420 5481      		ldd r21,Z+4
 3814 0422 5096      		adiw r26,16
 3815 0424 9C91      		ld r25,X
 3816 0426 5097      		sbiw r26,16
 3817 0428 FA01      		movw r30,r20
 3818 042a 8089      		ldd r24,Z+16
 3819 042c 9817      		cp r25,r24
 3820 042e 01F4      		brne .L234
 3821 0430 5196      		adiw r26,17
 3822 0432 9C91      		ld r25,X
 3823 0434 5197      		sbiw r26,17
 3824 0436 8189      		ldd r24,Z+17
 3825 0438 9817      		cp r25,r24
 3826 043a 01F4      		brne .L234
 3827 043c 5296      		adiw r26,18
 3828 043e 9C91      		ld r25,X
 3829 0440 5297      		sbiw r26,18
 3830 0442 8289      		ldd r24,Z+18
 3831 0444 9817      		cp r25,r24
 3832 0446 01F4      		brne .L234
 3833 0448 5396      		adiw r26,19
 3834 044a 9C91      		ld r25,X
 3835 044c 5397      		sbiw r26,19
 3836 044e 8389      		ldd r24,Z+19
 3837 0450 9817      		cp r25,r24
 3838 0452 01F4      		brne .L234
 3839 0454 5496      		adiw r26,20
 3840 0456 9C91      		ld r25,X
 3841 0458 5497      		sbiw r26,20
 3842 045a 8489      		ldd r24,Z+20
 3843 045c 9817      		cp r25,r24
 3844 045e 01F4      		brne .L234
 3845 0460 5596      		adiw r26,21
 3846 0462 9C91      		ld r25,X
 3847 0464 8589      		ldd r24,Z+21
 3848 0466 9817      		cp r25,r24
 3849 0468 01F4      		brne .L234
 3850 046a D901      		movw r26,r18
 3851 046c 1296      		adiw r26,2
 3852 046e 8C91      		ld r24,X
 3853 0470 8230      		cpi r24,lo8(2)
 3854 0472 01F4      		brne .L234
 3855               	.LSM450:
 3856 0474 C901      		movw r24,r18
 3857 0476 60E0      		ldi r22,lo8(0)
 3858 0478 70E0      		ldi r23,hi8(0)
 3859 047a 0E94 0000 		call rfcomm_pn
 3860               	.LVL376:
 3861 047e 00C0      		rjmp .L218
 3862               	.LVL377:
 3863               	.L234:
 3864               	.LSM451:
 3865 0480 F901      		movw r30,r18
 3866 0482 2081      		ld r18,Z
 3867 0484 3181      		ldd r19,Z+1
 3868               	.L233:
 3869 0486 2115      		cp r18,__zero_reg__
 3870 0488 3105      		cpc r19,__zero_reg__
 3871 048a 01F4      		brne .L236
 3872 048c 00C0      		rjmp .L218
 3873               	.LVL378:
 3874               	.L232:
 3875               	.LSM452:
 3876 048e C701      		movw r24,r14
 3877 0490 60E0      		ldi r22,lo8(0)
 3878 0492 40E0      		ldi r20,lo8(0)
 3879 0494 50E0      		ldi r21,hi8(0)
 3880 0496 0E94 0000 		call rfcomm_msc
 3881 049a 00C0      		rjmp .L218
 3882               	.LVL379:
 3883               	.L231:
 3884               	.LSM453:
 3885 049c 8630      		cpi r24,lo8(6)
 3886 049e 01F0      		breq .+2
 3887 04a0 00C0      		rjmp .L218
 3888               	.LSM454:
 3889 04a2 D701      		movw r26,r14
 3890 04a4 1296      		adiw r26,2
 3891 04a6 1C92      		st X,__zero_reg__
 3892 04a8 1297      		sbiw r26,2
 3893               	.LSM455:
 3894 04aa 5B96      		adiw r26,27
 3895 04ac ED91      		ld r30,X+
 3896 04ae FC91      		ld r31,X
 3897 04b0 5C97      		sbiw r26,27+1
 3898 04b2 3097      		sbiw r30,0
 3899 04b4 01F4      		brne .L265
 3900 04b6 00C0      		rjmp .L241
 3901               	.L219:
 3902               	.LSM456:
 3903 04b8 F701      		movw r30,r14
 3904 04ba 1686      		std Z+14,__zero_reg__
 3905 04bc 1586      		std Z+13,__zero_reg__
 3906               	.LSM457:
 3907 04be 8281      		ldd r24,Z+2
 3908 04c0 8330      		cpi r24,lo8(3)
 3909 04c2 01F4      		brne .L238
 3910               	.LSM458:
 3911 04c4 1282      		std Z+2,__zero_reg__
 3912               	.LSM459:
 3913 04c6 0788      		ldd __tmp_reg__,Z+23
 3914 04c8 F08D      		ldd r31,Z+24
 3915 04ca E02D      		mov r30,__tmp_reg__
 3916 04cc 3097      		sbiw r30,0
 3917 04ce 01F4      		brne .L257
 3918 04d0 00C0      		rjmp .L218
 3919               	.L238:
 3920               	.LSM460:
 3921 04d2 F701      		movw r30,r14
 3922 04d4 1282      		std Z+2,__zero_reg__
 3923               	.LSM461:
 3924 04d6 038C      		ldd __tmp_reg__,Z+27
 3925 04d8 F48D      		ldd r31,Z+28
 3926 04da E02D      		mov r30,__tmp_reg__
 3927 04dc 3097      		sbiw r30,0
 3928 04de 01F0      		breq .L241
 3929               	.L257:
 3930 04e0 D701      		movw r26,r14
 3931 04e2 5596      		adiw r26,21
 3932 04e4 8D91      		ld r24,X+
 3933 04e6 9C91      		ld r25,X
 3934 04e8 5697      		sbiw r26,21+1
 3935 04ea B701      		movw r22,r14
 3936 04ec 49EF      		ldi r20,lo8(-7)
 3937 04ee 00C0      		rjmp .L261
 3938               	.L221:
 3939               	.LSM462:
 3940 04f0 C501      		movw r24,r10
 3941 04f2 BE01      		movw r22,r28
 3942 04f4 6F5F      		subi r22,lo8(-(1))
 3943 04f6 7F4F      		sbci r23,hi8(-(1))
 3944 04f8 0E94 0000 		call rfcomm_ua
 3945               	.LSM463:
 3946 04fc F701      		movw r30,r14
 3947 04fe 1282      		std Z+2,__zero_reg__
 3948               	.LSM464:
 3949 0500 038C      		ldd __tmp_reg__,Z+27
 3950 0502 F48D      		ldd r31,Z+28
 3951 0504 E02D      		mov r30,__tmp_reg__
 3952 0506 3097      		sbiw r30,0
 3953 0508 01F0      		breq .L241
 3954 050a D701      		movw r26,r14
 3955               	.L265:
 3956 050c 5596      		adiw r26,21
 3957 050e 8D91      		ld r24,X+
 3958 0510 9C91      		ld r25,X
 3959 0512 5697      		sbiw r26,21+1
 3960 0514 B701      		movw r22,r14
 3961 0516 40E0      		ldi r20,lo8(0)
 3962               	.L261:
 3963 0518 0995      		icall
 3964 051a 00C0      		rjmp .L218
 3965               	.L241:
 3966 051c C701      		movw r24,r14
 3967 051e 0E94 0000 		call rfcomm_close
 3968 0522 00C0      		rjmp .L218
 3969               	.L224:
 3970               	.LSM465:
 3971 0524 8981      		ldd r24,Y+1
 3972 0526 8695      		lsr r24
 3973 0528 8695      		lsr r24
 3974 052a 8695      		lsr r24
 3975 052c 01F0      		breq .L262
 3976               	.L243:
 3977               	.LSM466:
 3978 052e F701      		movw r30,r14
 3979 0530 8681      		ldd r24,Z+6
 3980 0532 8F30      		cpi r24,lo8(15)
 3981 0534 01F4      		brne .L251
 3982               	.LSM467:
 3983 0536 8385      		ldd r24,Z+11
 3984 0538 8823      		tst r24
 3985 053a 01F0      		breq .L245
 3986               	.LSM468:
 3987 053c 8150      		subi r24,lo8(-(-1))
 3988 053e 8387      		std Z+11,r24
 3989               	.L245:
 3990               	.LSM469:
 3991 0540 D701      		movw r26,r14
 3992 0542 1A96      		adiw r26,10
 3993 0544 3C91      		ld r19,X
 3994 0546 1A97      		sbiw r26,10
 3995 0548 2D81      		ldd r18,Y+5
 3996 054a 832F      		mov r24,r19
 3997 054c 90E0      		ldi r25,lo8(0)
 3998 054e 820F      		add r24,r18
 3999 0550 911D      		adc r25,__zero_reg__
 4000 0552 8F3F      		cpi r24,255
 4001 0554 9105      		cpc r25,__zero_reg__
 4002 0556 04F4      		brge .L246
 4003               	.LSM470:
 4004 0558 230F      		add r18,r19
 4005 055a 1A96      		adiw r26,10
 4006 055c 2C93      		st X,r18
 4007 055e 00C0      		rjmp .L251
 4008               	.L246:
 4009               	.LSM471:
 4010 0560 8FEF      		ldi r24,lo8(-1)
 4011 0562 F701      		movw r30,r14
 4012 0564 8287      		std Z+10,r24
 4013 0566 00C0      		rjmp .L251
 4014               	.L223:
 4015               	.LSM472:
 4016 0568 8981      		ldd r24,Y+1
 4017 056a 8695      		lsr r24
 4018 056c 8695      		lsr r24
 4019 056e 8695      		lsr r24
 4020 0570 01F4      		brne .L250
 4021               	.L262:
 4022               	.LSM473:
 4023 0572 C701      		movw r24,r14
 4024 0574 BE01      		movw r22,r28
 4025 0576 6F5F      		subi r22,lo8(-(1))
 4026 0578 7F4F      		sbci r23,hi8(-(1))
 4027 057a A501      		movw r20,r10
 4028 057c 9601      		movw r18,r12
 4029 057e 0E94 0000 		call rfcomm_process_msg
 4030 0582 00C0      		rjmp .L218
 4031               	.L250:
 4032               	.LSM474:
 4033 0584 F701      		movw r30,r14
 4034 0586 8385      		ldd r24,Z+11
 4035 0588 8823      		tst r24
 4036 058a 01F0      		breq .L251
 4037               	.LSM475:
 4038 058c 8150      		subi r24,lo8(-(-1))
 4039 058e 8387      		std Z+11,r24
 4040               	.L251:
 4041               	.LSM476:
 4042 0590 D701      		movw r26,r14
 4043 0592 9596      		adiw r26,37
 4044 0594 ED91      		ld r30,X+
 4045 0596 FC91      		ld r31,X
 4046 0598 9697      		sbiw r26,37+1
 4047 059a 3097      		sbiw r30,0
 4048 059c 01F0      		breq .L218
 4049 059e 5596      		adiw r26,21
 4050 05a0 8D91      		ld r24,X+
 4051 05a2 9C91      		ld r25,X
 4052 05a4 5697      		sbiw r26,21+1
 4053 05a6 B701      		movw r22,r14
 4054 05a8 A601      		movw r20,r12
 4055 05aa 20E0      		ldi r18,lo8(0)
 4056 05ac 0995      		icall
 4057 05ae 00C0      		rjmp .L207
 4058               	.LVL380:
 4059               	.L218:
 4060               	.LSM477:
 4061 05b0 C601      		movw r24,r12
 4062 05b2 0E94 0000 		call pbuf_free
 4063               	.LVL381:
 4064               	.L207:
 4065               	.LSM478:
 4066 05b6 80E0      		ldi r24,lo8(0)
 4067               	/* epilogue start */
 4068 05b8 0F90      		pop __tmp_reg__
 4069 05ba 0F90      		pop __tmp_reg__
 4070 05bc 0F90      		pop __tmp_reg__
 4071 05be 0F90      		pop __tmp_reg__
 4072 05c0 0F90      		pop __tmp_reg__
 4073 05c2 CF91      		pop r28
 4074 05c4 DF91      		pop r29
 4075 05c6 1F91      		pop r17
 4076               	.LVL382:
 4077 05c8 0F91      		pop r16
 4078               	.LVL383:
 4079 05ca FF90      		pop r15
 4080 05cc EF90      		pop r14
 4081               	.LVL384:
 4082 05ce DF90      		pop r13
 4083 05d0 CF90      		pop r12
 4084               	.LVL385:
 4085 05d2 BF90      		pop r11
 4086 05d4 AF90      		pop r10
 4087               	.LVL386:
 4088 05d6 9F90      		pop r9
 4089 05d8 8F90      		pop r8
 4090 05da 0895      		ret
 4091               	.LVL387:
 4092               	.L229:
 4093               	.LSM479:
 4094 05dc C501      		movw r24,r10
 4095 05de 0E94 0000 		call rfcomm_new
 4096 05e2 7C01      		movw r14,r24
 4097 05e4 0097      		sbiw r24,0
 4098 05e6 01F0      		breq .+2
 4099 05e8 00C0      		rjmp .L256
 4100               	.LVL388:
 4101 05ea 00C0      		rjmp .L253
 4102               	.LFE21:
 4104               		.comm rfcomm_listen_pcbs,2,1
 4105               		.comm rfcomm_active_pcbs,2,1
 4106               		.comm rfcomm_tmp_pcb,2,1
 4299               	.Letext0:
DEFINED SYMBOLS
                            *ABS*:00000000 rfcomm.c
C:\DOCUME~1\ADMINI~1\LOCALS~1\Temp/ccrbC7Yy.s:2      *ABS*:0000003f __SREG__
C:\DOCUME~1\ADMINI~1\LOCALS~1\Temp/ccrbC7Yy.s:3      *ABS*:0000003e __SP_H__
C:\DOCUME~1\ADMINI~1\LOCALS~1\Temp/ccrbC7Yy.s:4      *ABS*:0000003d __SP_L__
C:\DOCUME~1\ADMINI~1\LOCALS~1\Temp/ccrbC7Yy.s:5      *ABS*:00000034 __CCP__
C:\DOCUME~1\ADMINI~1\LOCALS~1\Temp/ccrbC7Yy.s:6      *ABS*:00000000 __tmp_reg__
C:\DOCUME~1\ADMINI~1\LOCALS~1\Temp/ccrbC7Yy.s:7      *ABS*:00000001 __zero_reg__
C:\DOCUME~1\ADMINI~1\LOCALS~1\Temp/ccrbC7Yy.s:19     .text.rfcomm_init:00000000 rfcomm_init
                            *COM*:00000002 rfcomm_listen_pcbs
                            *COM*:00000002 rfcomm_active_pcbs
                            *COM*:00000002 rfcomm_tmp_pcb
C:\DOCUME~1\ADMINI~1\LOCALS~1\Temp/ccrbC7Yy.s:41     .text.rfcomm_get_active_pcb:00000000 rfcomm_get_active_pcb
C:\DOCUME~1\ADMINI~1\LOCALS~1\Temp/ccrbC7Yy.s:122    .text.rfcomm_arg:00000000 rfcomm_arg
C:\DOCUME~1\ADMINI~1\LOCALS~1\Temp/ccrbC7Yy.s:140    .text.rfcomm_recv:00000000 rfcomm_recv
C:\DOCUME~1\ADMINI~1\LOCALS~1\Temp/ccrbC7Yy.s:158    .text.rfcomm_disc:00000000 rfcomm_disc
C:\DOCUME~1\ADMINI~1\LOCALS~1\Temp/ccrbC7Yy.s:175    .text.rfcomm_dm:00000000 rfcomm_dm
C:\DOCUME~1\ADMINI~1\LOCALS~1\Temp/ccrbC7Yy.s:263    .text.rfcomm_ua:00000000 rfcomm_ua
C:\DOCUME~1\ADMINI~1\LOCALS~1\Temp/ccrbC7Yy.s:352    .text.rfcomm_disconnect:00000000 rfcomm_disconnect
C:\DOCUME~1\ADMINI~1\LOCALS~1\Temp/ccrbC7Yy.s:484    .text.rfcomm_uih_credits:00000000 rfcomm_uih_credits
C:\DOCUME~1\ADMINI~1\LOCALS~1\Temp/ccrbC7Yy.s:767    .text.rfcomm_uih:00000000 rfcomm_uih
C:\DOCUME~1\ADMINI~1\LOCALS~1\Temp/ccrbC7Yy.s:1061   .text.rfcomm_rpn:00000000 rfcomm_rpn
C:\DOCUME~1\ADMINI~1\LOCALS~1\Temp/ccrbC7Yy.s:1207   .text.rfcomm_msc:00000000 rfcomm_msc
C:\DOCUME~1\ADMINI~1\LOCALS~1\Temp/ccrbC7Yy.s:1337   .text.rfcomm_test:00000000 rfcomm_test
C:\DOCUME~1\ADMINI~1\LOCALS~1\Temp/ccrbC7Yy.s:1438   .text.rfcomm_pn:00000000 rfcomm_pn
C:\DOCUME~1\ADMINI~1\LOCALS~1\Temp/ccrbC7Yy.s:1586   .text.rfcomm_close:00000000 rfcomm_close
C:\DOCUME~1\ADMINI~1\LOCALS~1\Temp/ccrbC7Yy.s:1702   .text.rfcomm_reset_all:00000000 rfcomm_reset_all
C:\DOCUME~1\ADMINI~1\LOCALS~1\Temp/ccrbC7Yy.s:1779   .text.rfcomm_lp_disconnected:00000000 rfcomm_lp_disconnected
C:\DOCUME~1\ADMINI~1\LOCALS~1\Temp/ccrbC7Yy.s:1895   .text.rfcomm_tmr:00000000 rfcomm_tmr
C:\DOCUME~1\ADMINI~1\LOCALS~1\Temp/ccrbC7Yy.s:2058   .text.rfcomm_new:00000000 rfcomm_new
C:\DOCUME~1\ADMINI~1\LOCALS~1\Temp/ccrbC7Yy.s:2112   .text.rfcomm_connect:00000000 rfcomm_connect
C:\DOCUME~1\ADMINI~1\LOCALS~1\Temp/ccrbC7Yy.s:2293   .text.rfcomm_process_msg:00000000 rfcomm_process_msg
C:\DOCUME~1\ADMINI~1\LOCALS~1\Temp/ccrbC7Yy.s:3171   .text.rfcomm_input:00000000 rfcomm_input

UNDEFINED SYMBOLS
pbuf_alloc
fcs8_crc_calc
l2ca_datawrite
pbuf_free
pbuf_chain
pbuf_dechain
pbuf_realloc
lwbt_memp_free
lwbt_memp_malloc
pbuf_header
fcs8_crc_check
__do_clear_bss
